
/nfs/home/fuwenyi/xiaohe/nexus-am/apps/coremark-mt/build/coremark-mt-riscv64-nutshell.elf:     file format elf64-littleriscv


Disassembly of section .text:

0000000080000000 <_start>:
    80000000:	00000413          	li	s0,0
    80000004:	0000d117          	auipc	sp,0xd
    80000008:	ffc10113          	addi	sp,sp,-4 # 8000d000 <_stack_top+0x4000>
    8000000c:	f14022f3          	csrr	t0,mhartid
    80000010:	00029463          	bnez	t0,80000018 <setup_stack1>

0000000080000014 <to_main>:
    80000014:	7a8040ef          	jal	ra,800047bc <_trm_init>

0000000080000018 <setup_stack1>:
    80000018:	00011117          	auipc	sp,0x11
    8000001c:	fe810113          	addi	sp,sp,-24 # 80011000 <_end>
    80000020:	ff5ff06f          	j	80000014 <to_main>

0000000080000024 <calc_func>:
    80000024:	fd010113          	addi	sp,sp,-48
    80000028:	02113423          	sd	ra,40(sp)
    8000002c:	02813023          	sd	s0,32(sp)
    80000030:	03010413          	addi	s0,sp,48
    80000034:	fca43c23          	sd	a0,-40(s0)
    80000038:	fcb43823          	sd	a1,-48(s0)
    8000003c:	fd843783          	ld	a5,-40(s0)
    80000040:	0007d783          	lhu	a5,0(a5)
    80000044:	fef41523          	sh	a5,-22(s0)
    80000048:	fea41783          	lh	a5,-22(s0)
    8000004c:	4077d79b          	sraiw	a5,a5,0x7
    80000050:	0107979b          	slliw	a5,a5,0x10
    80000054:	4107d79b          	sraiw	a5,a5,0x10
    80000058:	0ff7f793          	zext.b	a5,a5
    8000005c:	0017f793          	andi	a5,a5,1
    80000060:	fef404a3          	sb	a5,-23(s0)
    80000064:	fe944783          	lbu	a5,-23(s0)
    80000068:	0ff7f793          	zext.b	a5,a5
    8000006c:	00078c63          	beqz	a5,80000084 <calc_func+0x60>
    80000070:	fea45783          	lhu	a5,-22(s0)
    80000074:	07f7f793          	andi	a5,a5,127
    80000078:	0107979b          	slliw	a5,a5,0x10
    8000007c:	4107d79b          	sraiw	a5,a5,0x10
    80000080:	1a00006f          	j	80000220 <calc_func+0x1fc>
    80000084:	fea45783          	lhu	a5,-22(s0)
    80000088:	0077f793          	andi	a5,a5,7
    8000008c:	fef41323          	sh	a5,-26(s0)
    80000090:	fea41783          	lh	a5,-22(s0)
    80000094:	4037d79b          	sraiw	a5,a5,0x3
    80000098:	0107979b          	slliw	a5,a5,0x10
    8000009c:	4107d79b          	sraiw	a5,a5,0x10
    800000a0:	00f7f793          	andi	a5,a5,15
    800000a4:	fef41623          	sh	a5,-20(s0)
    800000a8:	fec41783          	lh	a5,-20(s0)
    800000ac:	0007879b          	sext.w	a5,a5
    800000b0:	0047979b          	slliw	a5,a5,0x4
    800000b4:	0007879b          	sext.w	a5,a5
    800000b8:	0107971b          	slliw	a4,a5,0x10
    800000bc:	4107571b          	sraiw	a4,a4,0x10
    800000c0:	fec45783          	lhu	a5,-20(s0)
    800000c4:	00f767b3          	or	a5,a4,a5
    800000c8:	fef41623          	sh	a5,-20(s0)
    800000cc:	fe641783          	lh	a5,-26(s0)
    800000d0:	0007879b          	sext.w	a5,a5
    800000d4:	00078a63          	beqz	a5,800000e8 <calc_func+0xc4>
    800000d8:	00078713          	mv	a4,a5
    800000dc:	00100793          	li	a5,1
    800000e0:	06f70a63          	beq	a4,a5,80000154 <calc_func+0x130>
    800000e4:	0b80006f          	j	8000019c <calc_func+0x178>
    800000e8:	fec41783          	lh	a5,-20(s0)
    800000ec:	0007871b          	sext.w	a4,a5
    800000f0:	02100793          	li	a5,33
    800000f4:	00e7c663          	blt	a5,a4,80000100 <calc_func+0xdc>
    800000f8:	02200793          	li	a5,34
    800000fc:	fef41623          	sh	a5,-20(s0)
    80000100:	fd043783          	ld	a5,-48(s0)
    80000104:	0287a503          	lw	a0,40(a5)
    80000108:	fd043783          	ld	a5,-48(s0)
    8000010c:	0207b583          	ld	a1,32(a5)
    80000110:	fd043783          	ld	a5,-48(s0)
    80000114:	00079603          	lh	a2,0(a5)
    80000118:	fd043783          	ld	a5,-48(s0)
    8000011c:	00279683          	lh	a3,2(a5)
    80000120:	fd043783          	ld	a5,-48(s0)
    80000124:	0607d783          	lhu	a5,96(a5)
    80000128:	fec41703          	lh	a4,-20(s0)
    8000012c:	569020ef          	jal	ra,80002e94 <core_bench_state>
    80000130:	00050793          	mv	a5,a0
    80000134:	fef41723          	sh	a5,-18(s0)
    80000138:	fd043783          	ld	a5,-48(s0)
    8000013c:	0667d783          	lhu	a5,102(a5)
    80000140:	06079463          	bnez	a5,800001a8 <calc_func+0x184>
    80000144:	fee45703          	lhu	a4,-18(s0)
    80000148:	fd043783          	ld	a5,-48(s0)
    8000014c:	06e79323          	sh	a4,102(a5)
    80000150:	0580006f          	j	800001a8 <calc_func+0x184>
    80000154:	fd043783          	ld	a5,-48(s0)
    80000158:	04078713          	addi	a4,a5,64
    8000015c:	fd043783          	ld	a5,-48(s0)
    80000160:	0607d683          	lhu	a3,96(a5)
    80000164:	fec41783          	lh	a5,-20(s0)
    80000168:	00068613          	mv	a2,a3
    8000016c:	00078593          	mv	a1,a5
    80000170:	00070513          	mv	a0,a4
    80000174:	7a9010ef          	jal	ra,8000211c <core_bench_matrix>
    80000178:	00050793          	mv	a5,a0
    8000017c:	fef41723          	sh	a5,-18(s0)
    80000180:	fd043783          	ld	a5,-48(s0)
    80000184:	0647d783          	lhu	a5,100(a5)
    80000188:	02079463          	bnez	a5,800001b0 <calc_func+0x18c>
    8000018c:	fee45703          	lhu	a4,-18(s0)
    80000190:	fd043783          	ld	a5,-48(s0)
    80000194:	06e79223          	sh	a4,100(a5)
    80000198:	0180006f          	j	800001b0 <calc_func+0x18c>
    8000019c:	fea45783          	lhu	a5,-22(s0)
    800001a0:	fef41723          	sh	a5,-18(s0)
    800001a4:	0100006f          	j	800001b4 <calc_func+0x190>
    800001a8:	00000013          	nop
    800001ac:	0080006f          	j	800001b4 <calc_func+0x190>
    800001b0:	00000013          	nop
    800001b4:	fee45703          	lhu	a4,-18(s0)
    800001b8:	fd043783          	ld	a5,-48(s0)
    800001bc:	0607d783          	lhu	a5,96(a5)
    800001c0:	00078593          	mv	a1,a5
    800001c4:	00070513          	mv	a0,a4
    800001c8:	0e9030ef          	jal	ra,80003ab0 <crcu16>
    800001cc:	00050793          	mv	a5,a0
    800001d0:	00078713          	mv	a4,a5
    800001d4:	fd043783          	ld	a5,-48(s0)
    800001d8:	06e79023          	sh	a4,96(a5)
    800001dc:	fee45783          	lhu	a5,-18(s0)
    800001e0:	07f7f793          	andi	a5,a5,127
    800001e4:	fef41723          	sh	a5,-18(s0)
    800001e8:	fea45783          	lhu	a5,-22(s0)
    800001ec:	f007f793          	andi	a5,a5,-256
    800001f0:	0107979b          	slliw	a5,a5,0x10
    800001f4:	4107d79b          	sraiw	a5,a5,0x10
    800001f8:	0807e793          	ori	a5,a5,128
    800001fc:	0107971b          	slliw	a4,a5,0x10
    80000200:	4107571b          	sraiw	a4,a4,0x10
    80000204:	fee45783          	lhu	a5,-18(s0)
    80000208:	00f767b3          	or	a5,a4,a5
    8000020c:	0107971b          	slliw	a4,a5,0x10
    80000210:	4107571b          	sraiw	a4,a4,0x10
    80000214:	fd843783          	ld	a5,-40(s0)
    80000218:	00e79023          	sh	a4,0(a5)
    8000021c:	fee41783          	lh	a5,-18(s0)
    80000220:	00078513          	mv	a0,a5
    80000224:	02813083          	ld	ra,40(sp)
    80000228:	02013403          	ld	s0,32(sp)
    8000022c:	03010113          	addi	sp,sp,48
    80000230:	00008067          	ret

0000000080000234 <cmp_complex>:
    80000234:	fc010113          	addi	sp,sp,-64
    80000238:	02113c23          	sd	ra,56(sp)
    8000023c:	02813823          	sd	s0,48(sp)
    80000240:	04010413          	addi	s0,sp,64
    80000244:	fca43c23          	sd	a0,-40(s0)
    80000248:	fcb43823          	sd	a1,-48(s0)
    8000024c:	fcc43423          	sd	a2,-56(s0)
    80000250:	fd843783          	ld	a5,-40(s0)
    80000254:	fc843583          	ld	a1,-56(s0)
    80000258:	00078513          	mv	a0,a5
    8000025c:	dc9ff0ef          	jal	ra,80000024 <calc_func>
    80000260:	00050793          	mv	a5,a0
    80000264:	fef41723          	sh	a5,-18(s0)
    80000268:	fd043783          	ld	a5,-48(s0)
    8000026c:	fc843583          	ld	a1,-56(s0)
    80000270:	00078513          	mv	a0,a5
    80000274:	db1ff0ef          	jal	ra,80000024 <calc_func>
    80000278:	00050793          	mv	a5,a0
    8000027c:	fef41623          	sh	a5,-20(s0)
    80000280:	fee41783          	lh	a5,-18(s0)
    80000284:	0007871b          	sext.w	a4,a5
    80000288:	fec41783          	lh	a5,-20(s0)
    8000028c:	0007879b          	sext.w	a5,a5
    80000290:	40f707bb          	subw	a5,a4,a5
    80000294:	0007879b          	sext.w	a5,a5
    80000298:	00078513          	mv	a0,a5
    8000029c:	03813083          	ld	ra,56(sp)
    800002a0:	03013403          	ld	s0,48(sp)
    800002a4:	04010113          	addi	sp,sp,64
    800002a8:	00008067          	ret

00000000800002ac <cmp_idx>:
    800002ac:	fd010113          	addi	sp,sp,-48
    800002b0:	02813423          	sd	s0,40(sp)
    800002b4:	03010413          	addi	s0,sp,48
    800002b8:	fea43423          	sd	a0,-24(s0)
    800002bc:	feb43023          	sd	a1,-32(s0)
    800002c0:	fcc43c23          	sd	a2,-40(s0)
    800002c4:	fd843783          	ld	a5,-40(s0)
    800002c8:	08079e63          	bnez	a5,80000364 <cmp_idx+0xb8>
    800002cc:	fe843783          	ld	a5,-24(s0)
    800002d0:	00079783          	lh	a5,0(a5)
    800002d4:	f007f793          	andi	a5,a5,-256
    800002d8:	0107971b          	slliw	a4,a5,0x10
    800002dc:	4107571b          	sraiw	a4,a4,0x10
    800002e0:	fe843783          	ld	a5,-24(s0)
    800002e4:	00079783          	lh	a5,0(a5)
    800002e8:	03079793          	slli	a5,a5,0x30
    800002ec:	0307d793          	srli	a5,a5,0x30
    800002f0:	0087d79b          	srliw	a5,a5,0x8
    800002f4:	03079793          	slli	a5,a5,0x30
    800002f8:	0307d793          	srli	a5,a5,0x30
    800002fc:	0107979b          	slliw	a5,a5,0x10
    80000300:	4107d79b          	sraiw	a5,a5,0x10
    80000304:	00f767b3          	or	a5,a4,a5
    80000308:	0107971b          	slliw	a4,a5,0x10
    8000030c:	4107571b          	sraiw	a4,a4,0x10
    80000310:	fe843783          	ld	a5,-24(s0)
    80000314:	00e79023          	sh	a4,0(a5)
    80000318:	fe043783          	ld	a5,-32(s0)
    8000031c:	00079783          	lh	a5,0(a5)
    80000320:	f007f793          	andi	a5,a5,-256
    80000324:	0107971b          	slliw	a4,a5,0x10
    80000328:	4107571b          	sraiw	a4,a4,0x10
    8000032c:	fe043783          	ld	a5,-32(s0)
    80000330:	00079783          	lh	a5,0(a5)
    80000334:	03079793          	slli	a5,a5,0x30
    80000338:	0307d793          	srli	a5,a5,0x30
    8000033c:	0087d79b          	srliw	a5,a5,0x8
    80000340:	03079793          	slli	a5,a5,0x30
    80000344:	0307d793          	srli	a5,a5,0x30
    80000348:	0107979b          	slliw	a5,a5,0x10
    8000034c:	4107d79b          	sraiw	a5,a5,0x10
    80000350:	00f767b3          	or	a5,a4,a5
    80000354:	0107971b          	slliw	a4,a5,0x10
    80000358:	4107571b          	sraiw	a4,a4,0x10
    8000035c:	fe043783          	ld	a5,-32(s0)
    80000360:	00e79023          	sh	a4,0(a5)
    80000364:	fe843783          	ld	a5,-24(s0)
    80000368:	00279783          	lh	a5,2(a5)
    8000036c:	0007871b          	sext.w	a4,a5
    80000370:	fe043783          	ld	a5,-32(s0)
    80000374:	00279783          	lh	a5,2(a5)
    80000378:	0007879b          	sext.w	a5,a5
    8000037c:	40f707bb          	subw	a5,a4,a5
    80000380:	0007879b          	sext.w	a5,a5
    80000384:	00078513          	mv	a0,a5
    80000388:	02813403          	ld	s0,40(sp)
    8000038c:	03010113          	addi	sp,sp,48
    80000390:	00008067          	ret

0000000080000394 <copy_info>:
    80000394:	fe010113          	addi	sp,sp,-32
    80000398:	00813c23          	sd	s0,24(sp)
    8000039c:	02010413          	addi	s0,sp,32
    800003a0:	fea43423          	sd	a0,-24(s0)
    800003a4:	feb43023          	sd	a1,-32(s0)
    800003a8:	fe043783          	ld	a5,-32(s0)
    800003ac:	00079703          	lh	a4,0(a5)
    800003b0:	fe843783          	ld	a5,-24(s0)
    800003b4:	00e79023          	sh	a4,0(a5)
    800003b8:	fe043783          	ld	a5,-32(s0)
    800003bc:	00279703          	lh	a4,2(a5)
    800003c0:	fe843783          	ld	a5,-24(s0)
    800003c4:	00e79123          	sh	a4,2(a5)
    800003c8:	00000013          	nop
    800003cc:	01813403          	ld	s0,24(sp)
    800003d0:	02010113          	addi	sp,sp,32
    800003d4:	00008067          	ret

00000000800003d8 <core_bench_list>:
    800003d8:	fa010113          	addi	sp,sp,-96
    800003dc:	04113c23          	sd	ra,88(sp)
    800003e0:	04813823          	sd	s0,80(sp)
    800003e4:	06010413          	addi	s0,sp,96
    800003e8:	faa43423          	sd	a0,-88(s0)
    800003ec:	00058793          	mv	a5,a1
    800003f0:	faf41323          	sh	a5,-90(s0)
    800003f4:	fe041723          	sh	zero,-18(s0)
    800003f8:	fe041623          	sh	zero,-20(s0)
    800003fc:	fe041523          	sh	zero,-22(s0)
    80000400:	fa843783          	ld	a5,-88(s0)
    80000404:	0387b783          	ld	a5,56(a5)
    80000408:	fef43023          	sd	a5,-32(s0)
    8000040c:	fa843783          	ld	a5,-88(s0)
    80000410:	0047d783          	lhu	a5,4(a5)
    80000414:	fcf41a23          	sh	a5,-44(s0)
    80000418:	fa645783          	lhu	a5,-90(s0)
    8000041c:	faf41d23          	sh	a5,-70(s0)
    80000420:	fc041b23          	sh	zero,-42(s0)
    80000424:	1840006f          	j	800005a8 <core_bench_list+0x1d0>
    80000428:	fd645783          	lhu	a5,-42(s0)
    8000042c:	0ff7f793          	zext.b	a5,a5
    80000430:	0107979b          	slliw	a5,a5,0x10
    80000434:	4107d79b          	sraiw	a5,a5,0x10
    80000438:	faf41c23          	sh	a5,-72(s0)
    8000043c:	fb840793          	addi	a5,s0,-72
    80000440:	00078593          	mv	a1,a5
    80000444:	fe043503          	ld	a0,-32(s0)
    80000448:	774000ef          	jal	ra,80000bbc <core_list_find>
    8000044c:	fca43023          	sd	a0,-64(s0)
    80000450:	fe043503          	ld	a0,-32(s0)
    80000454:	025000ef          	jal	ra,80000c78 <core_list_reverse>
    80000458:	fea43023          	sd	a0,-32(s0)
    8000045c:	fc043783          	ld	a5,-64(s0)
    80000460:	04079863          	bnez	a5,800004b0 <core_bench_list+0xd8>
    80000464:	fea45783          	lhu	a5,-22(s0)
    80000468:	0017879b          	addiw	a5,a5,1
    8000046c:	fef41523          	sh	a5,-22(s0)
    80000470:	fe043783          	ld	a5,-32(s0)
    80000474:	0007b783          	ld	a5,0(a5)
    80000478:	0087b783          	ld	a5,8(a5)
    8000047c:	00079783          	lh	a5,0(a5)
    80000480:	4087d79b          	sraiw	a5,a5,0x8
    80000484:	0107979b          	slliw	a5,a5,0x10
    80000488:	4107d79b          	sraiw	a5,a5,0x10
    8000048c:	03079793          	slli	a5,a5,0x30
    80000490:	0307d793          	srli	a5,a5,0x30
    80000494:	0017f793          	andi	a5,a5,1
    80000498:	03079793          	slli	a5,a5,0x30
    8000049c:	0307d793          	srli	a5,a5,0x30
    800004a0:	fee45703          	lhu	a4,-18(s0)
    800004a4:	00f707bb          	addw	a5,a4,a5
    800004a8:	fef41723          	sh	a5,-18(s0)
    800004ac:	0b00006f          	j	8000055c <core_bench_list+0x184>
    800004b0:	fec45783          	lhu	a5,-20(s0)
    800004b4:	0017879b          	addiw	a5,a5,1
    800004b8:	fef41623          	sh	a5,-20(s0)
    800004bc:	fc043783          	ld	a5,-64(s0)
    800004c0:	0087b783          	ld	a5,8(a5)
    800004c4:	00079783          	lh	a5,0(a5)
    800004c8:	03079793          	slli	a5,a5,0x30
    800004cc:	0307d793          	srli	a5,a5,0x30
    800004d0:	0007879b          	sext.w	a5,a5
    800004d4:	0017f793          	andi	a5,a5,1
    800004d8:	0007879b          	sext.w	a5,a5
    800004dc:	02078e63          	beqz	a5,80000518 <core_bench_list+0x140>
    800004e0:	fc043783          	ld	a5,-64(s0)
    800004e4:	0087b783          	ld	a5,8(a5)
    800004e8:	00079783          	lh	a5,0(a5)
    800004ec:	4097d79b          	sraiw	a5,a5,0x9
    800004f0:	0107979b          	slliw	a5,a5,0x10
    800004f4:	4107d79b          	sraiw	a5,a5,0x10
    800004f8:	03079793          	slli	a5,a5,0x30
    800004fc:	0307d793          	srli	a5,a5,0x30
    80000500:	0017f793          	andi	a5,a5,1
    80000504:	03079793          	slli	a5,a5,0x30
    80000508:	0307d793          	srli	a5,a5,0x30
    8000050c:	fee45703          	lhu	a4,-18(s0)
    80000510:	00f707bb          	addw	a5,a4,a5
    80000514:	fef41723          	sh	a5,-18(s0)
    80000518:	fc043783          	ld	a5,-64(s0)
    8000051c:	0007b783          	ld	a5,0(a5)
    80000520:	02078e63          	beqz	a5,8000055c <core_bench_list+0x184>
    80000524:	fc043783          	ld	a5,-64(s0)
    80000528:	0007b783          	ld	a5,0(a5)
    8000052c:	fcf43c23          	sd	a5,-40(s0)
    80000530:	fd843783          	ld	a5,-40(s0)
    80000534:	0007b703          	ld	a4,0(a5)
    80000538:	fc043783          	ld	a5,-64(s0)
    8000053c:	00e7b023          	sd	a4,0(a5)
    80000540:	fe043783          	ld	a5,-32(s0)
    80000544:	0007b703          	ld	a4,0(a5)
    80000548:	fd843783          	ld	a5,-40(s0)
    8000054c:	00e7b023          	sd	a4,0(a5)
    80000550:	fe043783          	ld	a5,-32(s0)
    80000554:	fd843703          	ld	a4,-40(s0)
    80000558:	00e7b023          	sd	a4,0(a5)
    8000055c:	fba41783          	lh	a5,-70(s0)
    80000560:	0007879b          	sext.w	a5,a5
    80000564:	0207c463          	bltz	a5,8000058c <core_bench_list+0x1b4>
    80000568:	fba41783          	lh	a5,-70(s0)
    8000056c:	03079793          	slli	a5,a5,0x30
    80000570:	0307d793          	srli	a5,a5,0x30
    80000574:	0017879b          	addiw	a5,a5,1
    80000578:	03079793          	slli	a5,a5,0x30
    8000057c:	0307d793          	srli	a5,a5,0x30
    80000580:	0107979b          	slliw	a5,a5,0x10
    80000584:	4107d79b          	sraiw	a5,a5,0x10
    80000588:	faf41d23          	sh	a5,-70(s0)
    8000058c:	fd641783          	lh	a5,-42(s0)
    80000590:	03079793          	slli	a5,a5,0x30
    80000594:	0307d793          	srli	a5,a5,0x30
    80000598:	0017879b          	addiw	a5,a5,1
    8000059c:	03079793          	slli	a5,a5,0x30
    800005a0:	0307d793          	srli	a5,a5,0x30
    800005a4:	fcf41b23          	sh	a5,-42(s0)
    800005a8:	fd641703          	lh	a4,-42(s0)
    800005ac:	fd441783          	lh	a5,-44(s0)
    800005b0:	0007071b          	sext.w	a4,a4
    800005b4:	0007879b          	sext.w	a5,a5
    800005b8:	e6f748e3          	blt	a4,a5,80000428 <core_bench_list+0x50>
    800005bc:	fec45783          	lhu	a5,-20(s0)
    800005c0:	0027979b          	slliw	a5,a5,0x2
    800005c4:	03079713          	slli	a4,a5,0x30
    800005c8:	03075713          	srli	a4,a4,0x30
    800005cc:	fea45783          	lhu	a5,-22(s0)
    800005d0:	40f707bb          	subw	a5,a4,a5
    800005d4:	03079793          	slli	a5,a5,0x30
    800005d8:	0307d793          	srli	a5,a5,0x30
    800005dc:	fee45703          	lhu	a4,-18(s0)
    800005e0:	00f707bb          	addw	a5,a4,a5
    800005e4:	fef41723          	sh	a5,-18(s0)
    800005e8:	fa641783          	lh	a5,-90(s0)
    800005ec:	0007879b          	sext.w	a5,a5
    800005f0:	00f05e63          	blez	a5,8000060c <core_bench_list+0x234>
    800005f4:	fa843603          	ld	a2,-88(s0)
    800005f8:	00000597          	auipc	a1,0x0
    800005fc:	c3c58593          	addi	a1,a1,-964 # 80000234 <cmp_complex>
    80000600:	fe043503          	ld	a0,-32(s0)
    80000604:	6d0000ef          	jal	ra,80000cd4 <core_list_mergesort>
    80000608:	fea43023          	sd	a0,-32(s0)
    8000060c:	fe043783          	ld	a5,-32(s0)
    80000610:	0007b783          	ld	a5,0(a5)
    80000614:	00078513          	mv	a0,a5
    80000618:	4c4000ef          	jal	ra,80000adc <core_list_remove>
    8000061c:	fca43423          	sd	a0,-56(s0)
    80000620:	fb840793          	addi	a5,s0,-72
    80000624:	00078593          	mv	a1,a5
    80000628:	fe043503          	ld	a0,-32(s0)
    8000062c:	590000ef          	jal	ra,80000bbc <core_list_find>
    80000630:	fca43c23          	sd	a0,-40(s0)
    80000634:	fd843783          	ld	a5,-40(s0)
    80000638:	04079263          	bnez	a5,8000067c <core_bench_list+0x2a4>
    8000063c:	fe043783          	ld	a5,-32(s0)
    80000640:	0007b783          	ld	a5,0(a5)
    80000644:	fcf43c23          	sd	a5,-40(s0)
    80000648:	0340006f          	j	8000067c <core_bench_list+0x2a4>
    8000064c:	fe043783          	ld	a5,-32(s0)
    80000650:	0087b783          	ld	a5,8(a5)
    80000654:	00079783          	lh	a5,0(a5)
    80000658:	fee45703          	lhu	a4,-18(s0)
    8000065c:	00070593          	mv	a1,a4
    80000660:	00078513          	mv	a0,a5
    80000664:	560030ef          	jal	ra,80003bc4 <crc16>
    80000668:	00050793          	mv	a5,a0
    8000066c:	fef41723          	sh	a5,-18(s0)
    80000670:	fd843783          	ld	a5,-40(s0)
    80000674:	0007b783          	ld	a5,0(a5)
    80000678:	fcf43c23          	sd	a5,-40(s0)
    8000067c:	fd843783          	ld	a5,-40(s0)
    80000680:	fc0796e3          	bnez	a5,8000064c <core_bench_list+0x274>
    80000684:	fe043783          	ld	a5,-32(s0)
    80000688:	0007b783          	ld	a5,0(a5)
    8000068c:	00078593          	mv	a1,a5
    80000690:	fc843503          	ld	a0,-56(s0)
    80000694:	4bc000ef          	jal	ra,80000b50 <core_list_undo_remove>
    80000698:	fca43423          	sd	a0,-56(s0)
    8000069c:	00000613          	li	a2,0
    800006a0:	00000597          	auipc	a1,0x0
    800006a4:	c0c58593          	addi	a1,a1,-1012 # 800002ac <cmp_idx>
    800006a8:	fe043503          	ld	a0,-32(s0)
    800006ac:	628000ef          	jal	ra,80000cd4 <core_list_mergesort>
    800006b0:	fea43023          	sd	a0,-32(s0)
    800006b4:	fe043783          	ld	a5,-32(s0)
    800006b8:	0007b783          	ld	a5,0(a5)
    800006bc:	fcf43c23          	sd	a5,-40(s0)
    800006c0:	0340006f          	j	800006f4 <core_bench_list+0x31c>
    800006c4:	fe043783          	ld	a5,-32(s0)
    800006c8:	0087b783          	ld	a5,8(a5)
    800006cc:	00079783          	lh	a5,0(a5)
    800006d0:	fee45703          	lhu	a4,-18(s0)
    800006d4:	00070593          	mv	a1,a4
    800006d8:	00078513          	mv	a0,a5
    800006dc:	4e8030ef          	jal	ra,80003bc4 <crc16>
    800006e0:	00050793          	mv	a5,a0
    800006e4:	fef41723          	sh	a5,-18(s0)
    800006e8:	fd843783          	ld	a5,-40(s0)
    800006ec:	0007b783          	ld	a5,0(a5)
    800006f0:	fcf43c23          	sd	a5,-40(s0)
    800006f4:	fd843783          	ld	a5,-40(s0)
    800006f8:	fc0796e3          	bnez	a5,800006c4 <core_bench_list+0x2ec>
    800006fc:	fee45783          	lhu	a5,-18(s0)
    80000700:	00078513          	mv	a0,a5
    80000704:	05813083          	ld	ra,88(sp)
    80000708:	05013403          	ld	s0,80(sp)
    8000070c:	06010113          	addi	sp,sp,96
    80000710:	00008067          	ret

0000000080000714 <core_list_init>:
    80000714:	f9010113          	addi	sp,sp,-112
    80000718:	06113423          	sd	ra,104(sp)
    8000071c:	06813023          	sd	s0,96(sp)
    80000720:	07010413          	addi	s0,sp,112
    80000724:	00050793          	mv	a5,a0
    80000728:	f8b43823          	sd	a1,-112(s0)
    8000072c:	00060713          	mv	a4,a2
    80000730:	f8f42e23          	sw	a5,-100(s0)
    80000734:	00070793          	mv	a5,a4
    80000738:	f8f41d23          	sh	a5,-102(s0)
    8000073c:	01400793          	li	a5,20
    80000740:	fcf42e23          	sw	a5,-36(s0)
    80000744:	f9c42703          	lw	a4,-100(s0)
    80000748:	fdc42783          	lw	a5,-36(s0)
    8000074c:	02f757bb          	divuw	a5,a4,a5
    80000750:	0007879b          	sext.w	a5,a5
    80000754:	ffe7879b          	addiw	a5,a5,-2
    80000758:	fcf42c23          	sw	a5,-40(s0)
    8000075c:	f9043703          	ld	a4,-112(s0)
    80000760:	fd846783          	lwu	a5,-40(s0)
    80000764:	00479793          	slli	a5,a5,0x4
    80000768:	00f707b3          	add	a5,a4,a5
    8000076c:	fcf43823          	sd	a5,-48(s0)
    80000770:	fd043783          	ld	a5,-48(s0)
    80000774:	faf43823          	sd	a5,-80(s0)
    80000778:	fb043703          	ld	a4,-80(s0)
    8000077c:	fd846783          	lwu	a5,-40(s0)
    80000780:	00279793          	slli	a5,a5,0x2
    80000784:	00f707b3          	add	a5,a4,a5
    80000788:	fcf43423          	sd	a5,-56(s0)
    8000078c:	f9043783          	ld	a5,-112(s0)
    80000790:	fcf43023          	sd	a5,-64(s0)
    80000794:	fc043783          	ld	a5,-64(s0)
    80000798:	0007b023          	sd	zero,0(a5)
    8000079c:	fb043703          	ld	a4,-80(s0)
    800007a0:	fc043783          	ld	a5,-64(s0)
    800007a4:	00e7b423          	sd	a4,8(a5)
    800007a8:	fc043783          	ld	a5,-64(s0)
    800007ac:	0087b783          	ld	a5,8(a5)
    800007b0:	00079123          	sh	zero,2(a5)
    800007b4:	fc043783          	ld	a5,-64(s0)
    800007b8:	0087b783          	ld	a5,8(a5)
    800007bc:	ffff8737          	lui	a4,0xffff8
    800007c0:	08070713          	addi	a4,a4,128 # ffffffffffff8080 <_pmem_end+0xffffffff77ff8080>
    800007c4:	00e79023          	sh	a4,0(a5)
    800007c8:	f9043783          	ld	a5,-112(s0)
    800007cc:	01078793          	addi	a5,a5,16
    800007d0:	f8f43823          	sd	a5,-112(s0)
    800007d4:	fb043783          	ld	a5,-80(s0)
    800007d8:	00478793          	addi	a5,a5,4
    800007dc:	faf43823          	sd	a5,-80(s0)
    800007e0:	ffff87b7          	lui	a5,0xffff8
    800007e4:	fff7c793          	not	a5,a5
    800007e8:	faf41523          	sh	a5,-86(s0)
    800007ec:	fff00793          	li	a5,-1
    800007f0:	faf41423          	sh	a5,-88(s0)
    800007f4:	fb040693          	addi	a3,s0,-80
    800007f8:	f9040613          	addi	a2,s0,-112
    800007fc:	fa840593          	addi	a1,s0,-88
    80000800:	fc843783          	ld	a5,-56(s0)
    80000804:	fd043703          	ld	a4,-48(s0)
    80000808:	fc043503          	ld	a0,-64(s0)
    8000080c:	1e4000ef          	jal	ra,800009f0 <core_list_insert_new>
    80000810:	fe042623          	sw	zero,-20(s0)
    80000814:	0ac0006f          	j	800008c0 <core_list_init+0x1ac>
    80000818:	fec42783          	lw	a5,-20(s0)
    8000081c:	03079713          	slli	a4,a5,0x30
    80000820:	03075713          	srli	a4,a4,0x30
    80000824:	f9a45783          	lhu	a5,-102(s0)
    80000828:	00f747b3          	xor	a5,a4,a5
    8000082c:	03079793          	slli	a5,a5,0x30
    80000830:	0307d793          	srli	a5,a5,0x30
    80000834:	00f7f793          	andi	a5,a5,15
    80000838:	faf41e23          	sh	a5,-68(s0)
    8000083c:	fbc45783          	lhu	a5,-68(s0)
    80000840:	0037979b          	slliw	a5,a5,0x3
    80000844:	03079713          	slli	a4,a5,0x30
    80000848:	03075713          	srli	a4,a4,0x30
    8000084c:	fec42783          	lw	a5,-20(s0)
    80000850:	03079793          	slli	a5,a5,0x30
    80000854:	0307d793          	srli	a5,a5,0x30
    80000858:	0077f793          	andi	a5,a5,7
    8000085c:	03079793          	slli	a5,a5,0x30
    80000860:	0307d793          	srli	a5,a5,0x30
    80000864:	00f767b3          	or	a5,a4,a5
    80000868:	faf41d23          	sh	a5,-70(s0)
    8000086c:	fba45783          	lhu	a5,-70(s0)
    80000870:	0007879b          	sext.w	a5,a5
    80000874:	0087979b          	slliw	a5,a5,0x8
    80000878:	0007879b          	sext.w	a5,a5
    8000087c:	0107971b          	slliw	a4,a5,0x10
    80000880:	4107571b          	sraiw	a4,a4,0x10
    80000884:	fba41783          	lh	a5,-70(s0)
    80000888:	00f767b3          	or	a5,a4,a5
    8000088c:	0107979b          	slliw	a5,a5,0x10
    80000890:	4107d79b          	sraiw	a5,a5,0x10
    80000894:	faf41423          	sh	a5,-88(s0)
    80000898:	fb040693          	addi	a3,s0,-80
    8000089c:	f9040613          	addi	a2,s0,-112
    800008a0:	fa840593          	addi	a1,s0,-88
    800008a4:	fc843783          	ld	a5,-56(s0)
    800008a8:	fd043703          	ld	a4,-48(s0)
    800008ac:	fc043503          	ld	a0,-64(s0)
    800008b0:	140000ef          	jal	ra,800009f0 <core_list_insert_new>
    800008b4:	fec42783          	lw	a5,-20(s0)
    800008b8:	0017879b          	addiw	a5,a5,1 # ffffffffffff8001 <_pmem_end+0xffffffff77ff8001>
    800008bc:	fef42623          	sw	a5,-20(s0)
    800008c0:	fec42703          	lw	a4,-20(s0)
    800008c4:	fd842783          	lw	a5,-40(s0)
    800008c8:	0007071b          	sext.w	a4,a4
    800008cc:	0007879b          	sext.w	a5,a5
    800008d0:	f4f764e3          	bltu	a4,a5,80000818 <core_list_init+0x104>
    800008d4:	fc043783          	ld	a5,-64(s0)
    800008d8:	0007b783          	ld	a5,0(a5)
    800008dc:	fef43023          	sd	a5,-32(s0)
    800008e0:	00100793          	li	a5,1
    800008e4:	fef42623          	sw	a5,-20(s0)
    800008e8:	0cc0006f          	j	800009b4 <core_list_init+0x2a0>
    800008ec:	fd842703          	lw	a4,-40(s0)
    800008f0:	00500793          	li	a5,5
    800008f4:	02f757bb          	divuw	a5,a4,a5
    800008f8:	0007871b          	sext.w	a4,a5
    800008fc:	fec42783          	lw	a5,-20(s0)
    80000900:	0007879b          	sext.w	a5,a5
    80000904:	02e7f463          	bgeu	a5,a4,8000092c <core_list_init+0x218>
    80000908:	fec42783          	lw	a5,-20(s0)
    8000090c:	0017871b          	addiw	a4,a5,1
    80000910:	fee42623          	sw	a4,-20(s0)
    80000914:	fe043703          	ld	a4,-32(s0)
    80000918:	00873703          	ld	a4,8(a4)
    8000091c:	0107979b          	slliw	a5,a5,0x10
    80000920:	4107d79b          	sraiw	a5,a5,0x10
    80000924:	00f71123          	sh	a5,2(a4)
    80000928:	0800006f          	j	800009a8 <core_list_init+0x294>
    8000092c:	fec42783          	lw	a5,-20(s0)
    80000930:	0017871b          	addiw	a4,a5,1
    80000934:	fee42623          	sw	a4,-20(s0)
    80000938:	03079713          	slli	a4,a5,0x30
    8000093c:	03075713          	srli	a4,a4,0x30
    80000940:	f9a45783          	lhu	a5,-102(s0)
    80000944:	00f747b3          	xor	a5,a4,a5
    80000948:	faf41f23          	sh	a5,-66(s0)
    8000094c:	fec42783          	lw	a5,-20(s0)
    80000950:	03079793          	slli	a5,a5,0x30
    80000954:	0307d793          	srli	a5,a5,0x30
    80000958:	0087979b          	slliw	a5,a5,0x8
    8000095c:	03079793          	slli	a5,a5,0x30
    80000960:	0307d793          	srli	a5,a5,0x30
    80000964:	7007f793          	andi	a5,a5,1792
    80000968:	03079713          	slli	a4,a5,0x30
    8000096c:	03075713          	srli	a4,a4,0x30
    80000970:	fbe45783          	lhu	a5,-66(s0)
    80000974:	00f767b3          	or	a5,a4,a5
    80000978:	03079793          	slli	a5,a5,0x30
    8000097c:	0307d793          	srli	a5,a5,0x30
    80000980:	0107969b          	slliw	a3,a5,0x10
    80000984:	4106d69b          	sraiw	a3,a3,0x10
    80000988:	fe043783          	ld	a5,-32(s0)
    8000098c:	0087b783          	ld	a5,8(a5)
    80000990:	00004737          	lui	a4,0x4
    80000994:	fff70713          	addi	a4,a4,-1 # 3fff <_start-0x7fffc001>
    80000998:	00e6f733          	and	a4,a3,a4
    8000099c:	0107171b          	slliw	a4,a4,0x10
    800009a0:	4107571b          	sraiw	a4,a4,0x10
    800009a4:	00e79123          	sh	a4,2(a5)
    800009a8:	fe043783          	ld	a5,-32(s0)
    800009ac:	0007b783          	ld	a5,0(a5)
    800009b0:	fef43023          	sd	a5,-32(s0)
    800009b4:	fe043783          	ld	a5,-32(s0)
    800009b8:	0007b783          	ld	a5,0(a5)
    800009bc:	f20798e3          	bnez	a5,800008ec <core_list_init+0x1d8>
    800009c0:	00000613          	li	a2,0
    800009c4:	00000597          	auipc	a1,0x0
    800009c8:	8e858593          	addi	a1,a1,-1816 # 800002ac <cmp_idx>
    800009cc:	fc043503          	ld	a0,-64(s0)
    800009d0:	304000ef          	jal	ra,80000cd4 <core_list_mergesort>
    800009d4:	fca43023          	sd	a0,-64(s0)
    800009d8:	fc043783          	ld	a5,-64(s0)
    800009dc:	00078513          	mv	a0,a5
    800009e0:	06813083          	ld	ra,104(sp)
    800009e4:	06013403          	ld	s0,96(sp)
    800009e8:	07010113          	addi	sp,sp,112
    800009ec:	00008067          	ret

00000000800009f0 <core_list_insert_new>:
    800009f0:	fb010113          	addi	sp,sp,-80
    800009f4:	04113423          	sd	ra,72(sp)
    800009f8:	04813023          	sd	s0,64(sp)
    800009fc:	05010413          	addi	s0,sp,80
    80000a00:	fca43c23          	sd	a0,-40(s0)
    80000a04:	fcb43823          	sd	a1,-48(s0)
    80000a08:	fcc43423          	sd	a2,-56(s0)
    80000a0c:	fcd43023          	sd	a3,-64(s0)
    80000a10:	fae43c23          	sd	a4,-72(s0)
    80000a14:	faf43823          	sd	a5,-80(s0)
    80000a18:	fc843783          	ld	a5,-56(s0)
    80000a1c:	0007b783          	ld	a5,0(a5)
    80000a20:	01078793          	addi	a5,a5,16
    80000a24:	fb843703          	ld	a4,-72(s0)
    80000a28:	00e7e663          	bltu	a5,a4,80000a34 <core_list_insert_new+0x44>
    80000a2c:	00000793          	li	a5,0
    80000a30:	0980006f          	j	80000ac8 <core_list_insert_new+0xd8>
    80000a34:	fc043783          	ld	a5,-64(s0)
    80000a38:	0007b783          	ld	a5,0(a5)
    80000a3c:	00478793          	addi	a5,a5,4
    80000a40:	fb043703          	ld	a4,-80(s0)
    80000a44:	00e7e663          	bltu	a5,a4,80000a50 <core_list_insert_new+0x60>
    80000a48:	00000793          	li	a5,0
    80000a4c:	07c0006f          	j	80000ac8 <core_list_insert_new+0xd8>
    80000a50:	fc843783          	ld	a5,-56(s0)
    80000a54:	0007b783          	ld	a5,0(a5)
    80000a58:	fef43423          	sd	a5,-24(s0)
    80000a5c:	fc843783          	ld	a5,-56(s0)
    80000a60:	0007b783          	ld	a5,0(a5)
    80000a64:	01078713          	addi	a4,a5,16
    80000a68:	fc843783          	ld	a5,-56(s0)
    80000a6c:	00e7b023          	sd	a4,0(a5)
    80000a70:	fd843783          	ld	a5,-40(s0)
    80000a74:	0007b703          	ld	a4,0(a5)
    80000a78:	fe843783          	ld	a5,-24(s0)
    80000a7c:	00e7b023          	sd	a4,0(a5)
    80000a80:	fd843783          	ld	a5,-40(s0)
    80000a84:	fe843703          	ld	a4,-24(s0)
    80000a88:	00e7b023          	sd	a4,0(a5)
    80000a8c:	fc043783          	ld	a5,-64(s0)
    80000a90:	0007b703          	ld	a4,0(a5)
    80000a94:	fe843783          	ld	a5,-24(s0)
    80000a98:	00e7b423          	sd	a4,8(a5)
    80000a9c:	fc043783          	ld	a5,-64(s0)
    80000aa0:	0007b783          	ld	a5,0(a5)
    80000aa4:	00478713          	addi	a4,a5,4
    80000aa8:	fc043783          	ld	a5,-64(s0)
    80000aac:	00e7b023          	sd	a4,0(a5)
    80000ab0:	fe843783          	ld	a5,-24(s0)
    80000ab4:	0087b783          	ld	a5,8(a5)
    80000ab8:	fd043583          	ld	a1,-48(s0)
    80000abc:	00078513          	mv	a0,a5
    80000ac0:	8d5ff0ef          	jal	ra,80000394 <copy_info>
    80000ac4:	fe843783          	ld	a5,-24(s0)
    80000ac8:	00078513          	mv	a0,a5
    80000acc:	04813083          	ld	ra,72(sp)
    80000ad0:	04013403          	ld	s0,64(sp)
    80000ad4:	05010113          	addi	sp,sp,80
    80000ad8:	00008067          	ret

0000000080000adc <core_list_remove>:
    80000adc:	fd010113          	addi	sp,sp,-48
    80000ae0:	02813423          	sd	s0,40(sp)
    80000ae4:	03010413          	addi	s0,sp,48
    80000ae8:	fca43c23          	sd	a0,-40(s0)
    80000aec:	fd843783          	ld	a5,-40(s0)
    80000af0:	0007b783          	ld	a5,0(a5)
    80000af4:	fef43423          	sd	a5,-24(s0)
    80000af8:	fd843783          	ld	a5,-40(s0)
    80000afc:	0087b783          	ld	a5,8(a5)
    80000b00:	fef43023          	sd	a5,-32(s0)
    80000b04:	fe843783          	ld	a5,-24(s0)
    80000b08:	0087b703          	ld	a4,8(a5)
    80000b0c:	fd843783          	ld	a5,-40(s0)
    80000b10:	00e7b423          	sd	a4,8(a5)
    80000b14:	fe843783          	ld	a5,-24(s0)
    80000b18:	fe043703          	ld	a4,-32(s0)
    80000b1c:	00e7b423          	sd	a4,8(a5)
    80000b20:	fd843783          	ld	a5,-40(s0)
    80000b24:	0007b783          	ld	a5,0(a5)
    80000b28:	0007b703          	ld	a4,0(a5)
    80000b2c:	fd843783          	ld	a5,-40(s0)
    80000b30:	00e7b023          	sd	a4,0(a5)
    80000b34:	fe843783          	ld	a5,-24(s0)
    80000b38:	0007b023          	sd	zero,0(a5)
    80000b3c:	fe843783          	ld	a5,-24(s0)
    80000b40:	00078513          	mv	a0,a5
    80000b44:	02813403          	ld	s0,40(sp)
    80000b48:	03010113          	addi	sp,sp,48
    80000b4c:	00008067          	ret

0000000080000b50 <core_list_undo_remove>:
    80000b50:	fd010113          	addi	sp,sp,-48
    80000b54:	02813423          	sd	s0,40(sp)
    80000b58:	03010413          	addi	s0,sp,48
    80000b5c:	fca43c23          	sd	a0,-40(s0)
    80000b60:	fcb43823          	sd	a1,-48(s0)
    80000b64:	fd843783          	ld	a5,-40(s0)
    80000b68:	0087b783          	ld	a5,8(a5)
    80000b6c:	fef43423          	sd	a5,-24(s0)
    80000b70:	fd043783          	ld	a5,-48(s0)
    80000b74:	0087b703          	ld	a4,8(a5)
    80000b78:	fd843783          	ld	a5,-40(s0)
    80000b7c:	00e7b423          	sd	a4,8(a5)
    80000b80:	fd043783          	ld	a5,-48(s0)
    80000b84:	fe843703          	ld	a4,-24(s0)
    80000b88:	00e7b423          	sd	a4,8(a5)
    80000b8c:	fd043783          	ld	a5,-48(s0)
    80000b90:	0007b703          	ld	a4,0(a5)
    80000b94:	fd843783          	ld	a5,-40(s0)
    80000b98:	00e7b023          	sd	a4,0(a5)
    80000b9c:	fd043783          	ld	a5,-48(s0)
    80000ba0:	fd843703          	ld	a4,-40(s0)
    80000ba4:	00e7b023          	sd	a4,0(a5)
    80000ba8:	fd843783          	ld	a5,-40(s0)
    80000bac:	00078513          	mv	a0,a5
    80000bb0:	02813403          	ld	s0,40(sp)
    80000bb4:	03010113          	addi	sp,sp,48
    80000bb8:	00008067          	ret

0000000080000bbc <core_list_find>:
    80000bbc:	fe010113          	addi	sp,sp,-32
    80000bc0:	00813c23          	sd	s0,24(sp)
    80000bc4:	02010413          	addi	s0,sp,32
    80000bc8:	fea43423          	sd	a0,-24(s0)
    80000bcc:	feb43023          	sd	a1,-32(s0)
    80000bd0:	fe043783          	ld	a5,-32(s0)
    80000bd4:	00279783          	lh	a5,2(a5)
    80000bd8:	0007879b          	sext.w	a5,a5
    80000bdc:	0407c863          	bltz	a5,80000c2c <core_list_find+0x70>
    80000be0:	0100006f          	j	80000bf0 <core_list_find+0x34>
    80000be4:	fe843783          	ld	a5,-24(s0)
    80000be8:	0007b783          	ld	a5,0(a5)
    80000bec:	fef43423          	sd	a5,-24(s0)
    80000bf0:	fe843783          	ld	a5,-24(s0)
    80000bf4:	02078263          	beqz	a5,80000c18 <core_list_find+0x5c>
    80000bf8:	fe843783          	ld	a5,-24(s0)
    80000bfc:	0087b783          	ld	a5,8(a5)
    80000c00:	00279703          	lh	a4,2(a5)
    80000c04:	fe043783          	ld	a5,-32(s0)
    80000c08:	00279783          	lh	a5,2(a5)
    80000c0c:	0007071b          	sext.w	a4,a4
    80000c10:	0007879b          	sext.w	a5,a5
    80000c14:	fcf718e3          	bne	a4,a5,80000be4 <core_list_find+0x28>
    80000c18:	fe843783          	ld	a5,-24(s0)
    80000c1c:	04c0006f          	j	80000c68 <core_list_find+0xac>
    80000c20:	fe843783          	ld	a5,-24(s0)
    80000c24:	0007b783          	ld	a5,0(a5)
    80000c28:	fef43423          	sd	a5,-24(s0)
    80000c2c:	fe843783          	ld	a5,-24(s0)
    80000c30:	02078a63          	beqz	a5,80000c64 <core_list_find+0xa8>
    80000c34:	fe843783          	ld	a5,-24(s0)
    80000c38:	0087b783          	ld	a5,8(a5)
    80000c3c:	00079783          	lh	a5,0(a5)
    80000c40:	03079793          	slli	a5,a5,0x30
    80000c44:	0307d793          	srli	a5,a5,0x30
    80000c48:	0007879b          	sext.w	a5,a5
    80000c4c:	0ff7f793          	zext.b	a5,a5
    80000c50:	0007871b          	sext.w	a4,a5
    80000c54:	fe043783          	ld	a5,-32(s0)
    80000c58:	00079783          	lh	a5,0(a5)
    80000c5c:	0007879b          	sext.w	a5,a5
    80000c60:	fcf710e3          	bne	a4,a5,80000c20 <core_list_find+0x64>
    80000c64:	fe843783          	ld	a5,-24(s0)
    80000c68:	00078513          	mv	a0,a5
    80000c6c:	01813403          	ld	s0,24(sp)
    80000c70:	02010113          	addi	sp,sp,32
    80000c74:	00008067          	ret

0000000080000c78 <core_list_reverse>:
    80000c78:	fd010113          	addi	sp,sp,-48
    80000c7c:	02813423          	sd	s0,40(sp)
    80000c80:	03010413          	addi	s0,sp,48
    80000c84:	fca43c23          	sd	a0,-40(s0)
    80000c88:	fe043423          	sd	zero,-24(s0)
    80000c8c:	02c0006f          	j	80000cb8 <core_list_reverse+0x40>
    80000c90:	fd843783          	ld	a5,-40(s0)
    80000c94:	0007b783          	ld	a5,0(a5)
    80000c98:	fef43023          	sd	a5,-32(s0)
    80000c9c:	fd843783          	ld	a5,-40(s0)
    80000ca0:	fe843703          	ld	a4,-24(s0)
    80000ca4:	00e7b023          	sd	a4,0(a5)
    80000ca8:	fd843783          	ld	a5,-40(s0)
    80000cac:	fef43423          	sd	a5,-24(s0)
    80000cb0:	fe043783          	ld	a5,-32(s0)
    80000cb4:	fcf43c23          	sd	a5,-40(s0)
    80000cb8:	fd843783          	ld	a5,-40(s0)
    80000cbc:	fc079ae3          	bnez	a5,80000c90 <core_list_reverse+0x18>
    80000cc0:	fe843783          	ld	a5,-24(s0)
    80000cc4:	00078513          	mv	a0,a5
    80000cc8:	02813403          	ld	s0,40(sp)
    80000ccc:	03010113          	addi	sp,sp,48
    80000cd0:	00008067          	ret

0000000080000cd4 <core_list_mergesort>:
    80000cd4:	f9010113          	addi	sp,sp,-112
    80000cd8:	06113423          	sd	ra,104(sp)
    80000cdc:	06813023          	sd	s0,96(sp)
    80000ce0:	07010413          	addi	s0,sp,112
    80000ce4:	faa43423          	sd	a0,-88(s0)
    80000ce8:	fab43023          	sd	a1,-96(s0)
    80000cec:	f8c43c23          	sd	a2,-104(s0)
    80000cf0:	00100793          	li	a5,1
    80000cf4:	fcf42623          	sw	a5,-52(s0)
    80000cf8:	fa843783          	ld	a5,-88(s0)
    80000cfc:	fef43423          	sd	a5,-24(s0)
    80000d00:	fa043423          	sd	zero,-88(s0)
    80000d04:	fc043823          	sd	zero,-48(s0)
    80000d08:	fc042423          	sw	zero,-56(s0)
    80000d0c:	1a00006f          	j	80000eac <core_list_mergesort+0x1d8>
    80000d10:	fc842783          	lw	a5,-56(s0)
    80000d14:	0017879b          	addiw	a5,a5,1
    80000d18:	fcf42423          	sw	a5,-56(s0)
    80000d1c:	fe843783          	ld	a5,-24(s0)
    80000d20:	fef43023          	sd	a5,-32(s0)
    80000d24:	fc042223          	sw	zero,-60(s0)
    80000d28:	fa042e23          	sw	zero,-68(s0)
    80000d2c:	0300006f          	j	80000d5c <core_list_mergesort+0x88>
    80000d30:	fc442783          	lw	a5,-60(s0)
    80000d34:	0017879b          	addiw	a5,a5,1
    80000d38:	fcf42223          	sw	a5,-60(s0)
    80000d3c:	fe043783          	ld	a5,-32(s0)
    80000d40:	0007b783          	ld	a5,0(a5)
    80000d44:	fef43023          	sd	a5,-32(s0)
    80000d48:	fe043783          	ld	a5,-32(s0)
    80000d4c:	02078463          	beqz	a5,80000d74 <core_list_mergesort+0xa0>
    80000d50:	fbc42783          	lw	a5,-68(s0)
    80000d54:	0017879b          	addiw	a5,a5,1
    80000d58:	faf42e23          	sw	a5,-68(s0)
    80000d5c:	fbc42703          	lw	a4,-68(s0)
    80000d60:	fcc42783          	lw	a5,-52(s0)
    80000d64:	0007071b          	sext.w	a4,a4
    80000d68:	0007879b          	sext.w	a5,a5
    80000d6c:	fcf742e3          	blt	a4,a5,80000d30 <core_list_mergesort+0x5c>
    80000d70:	0080006f          	j	80000d78 <core_list_mergesort+0xa4>
    80000d74:	00000013          	nop
    80000d78:	fcc42783          	lw	a5,-52(s0)
    80000d7c:	fcf42023          	sw	a5,-64(s0)
    80000d80:	1040006f          	j	80000e84 <core_list_mergesort+0x1b0>
    80000d84:	fc442783          	lw	a5,-60(s0)
    80000d88:	0007879b          	sext.w	a5,a5
    80000d8c:	02079463          	bnez	a5,80000db4 <core_list_mergesort+0xe0>
    80000d90:	fe043783          	ld	a5,-32(s0)
    80000d94:	fcf43c23          	sd	a5,-40(s0)
    80000d98:	fe043783          	ld	a5,-32(s0)
    80000d9c:	0007b783          	ld	a5,0(a5)
    80000da0:	fef43023          	sd	a5,-32(s0)
    80000da4:	fc042783          	lw	a5,-64(s0)
    80000da8:	fff7879b          	addiw	a5,a5,-1
    80000dac:	fcf42023          	sw	a5,-64(s0)
    80000db0:	0ac0006f          	j	80000e5c <core_list_mergesort+0x188>
    80000db4:	fc042783          	lw	a5,-64(s0)
    80000db8:	0007879b          	sext.w	a5,a5
    80000dbc:	00078663          	beqz	a5,80000dc8 <core_list_mergesort+0xf4>
    80000dc0:	fe043783          	ld	a5,-32(s0)
    80000dc4:	02079463          	bnez	a5,80000dec <core_list_mergesort+0x118>
    80000dc8:	fe843783          	ld	a5,-24(s0)
    80000dcc:	fcf43c23          	sd	a5,-40(s0)
    80000dd0:	fe843783          	ld	a5,-24(s0)
    80000dd4:	0007b783          	ld	a5,0(a5)
    80000dd8:	fef43423          	sd	a5,-24(s0)
    80000ddc:	fc442783          	lw	a5,-60(s0)
    80000de0:	fff7879b          	addiw	a5,a5,-1
    80000de4:	fcf42223          	sw	a5,-60(s0)
    80000de8:	0740006f          	j	80000e5c <core_list_mergesort+0x188>
    80000dec:	fe843783          	ld	a5,-24(s0)
    80000df0:	0087b703          	ld	a4,8(a5)
    80000df4:	fe043783          	ld	a5,-32(s0)
    80000df8:	0087b783          	ld	a5,8(a5)
    80000dfc:	fa043683          	ld	a3,-96(s0)
    80000e00:	f9843603          	ld	a2,-104(s0)
    80000e04:	00078593          	mv	a1,a5
    80000e08:	00070513          	mv	a0,a4
    80000e0c:	000680e7          	jalr	a3
    80000e10:	00050793          	mv	a5,a0
    80000e14:	02f04463          	bgtz	a5,80000e3c <core_list_mergesort+0x168>
    80000e18:	fe843783          	ld	a5,-24(s0)
    80000e1c:	fcf43c23          	sd	a5,-40(s0)
    80000e20:	fe843783          	ld	a5,-24(s0)
    80000e24:	0007b783          	ld	a5,0(a5)
    80000e28:	fef43423          	sd	a5,-24(s0)
    80000e2c:	fc442783          	lw	a5,-60(s0)
    80000e30:	fff7879b          	addiw	a5,a5,-1
    80000e34:	fcf42223          	sw	a5,-60(s0)
    80000e38:	0240006f          	j	80000e5c <core_list_mergesort+0x188>
    80000e3c:	fe043783          	ld	a5,-32(s0)
    80000e40:	fcf43c23          	sd	a5,-40(s0)
    80000e44:	fe043783          	ld	a5,-32(s0)
    80000e48:	0007b783          	ld	a5,0(a5)
    80000e4c:	fef43023          	sd	a5,-32(s0)
    80000e50:	fc042783          	lw	a5,-64(s0)
    80000e54:	fff7879b          	addiw	a5,a5,-1
    80000e58:	fcf42023          	sw	a5,-64(s0)
    80000e5c:	fd043783          	ld	a5,-48(s0)
    80000e60:	00078a63          	beqz	a5,80000e74 <core_list_mergesort+0x1a0>
    80000e64:	fd043783          	ld	a5,-48(s0)
    80000e68:	fd843703          	ld	a4,-40(s0)
    80000e6c:	00e7b023          	sd	a4,0(a5)
    80000e70:	00c0006f          	j	80000e7c <core_list_mergesort+0x1a8>
    80000e74:	fd843783          	ld	a5,-40(s0)
    80000e78:	faf43423          	sd	a5,-88(s0)
    80000e7c:	fd843783          	ld	a5,-40(s0)
    80000e80:	fcf43823          	sd	a5,-48(s0)
    80000e84:	fc442783          	lw	a5,-60(s0)
    80000e88:	0007879b          	sext.w	a5,a5
    80000e8c:	eef04ce3          	bgtz	a5,80000d84 <core_list_mergesort+0xb0>
    80000e90:	fc042783          	lw	a5,-64(s0)
    80000e94:	0007879b          	sext.w	a5,a5
    80000e98:	00f05663          	blez	a5,80000ea4 <core_list_mergesort+0x1d0>
    80000e9c:	fe043783          	ld	a5,-32(s0)
    80000ea0:	ee0792e3          	bnez	a5,80000d84 <core_list_mergesort+0xb0>
    80000ea4:	fe043783          	ld	a5,-32(s0)
    80000ea8:	fef43423          	sd	a5,-24(s0)
    80000eac:	fe843783          	ld	a5,-24(s0)
    80000eb0:	e60790e3          	bnez	a5,80000d10 <core_list_mergesort+0x3c>
    80000eb4:	fd043783          	ld	a5,-48(s0)
    80000eb8:	0007b023          	sd	zero,0(a5)
    80000ebc:	fc842783          	lw	a5,-56(s0)
    80000ec0:	0007871b          	sext.w	a4,a5
    80000ec4:	00100793          	li	a5,1
    80000ec8:	00e7c663          	blt	a5,a4,80000ed4 <core_list_mergesort+0x200>
    80000ecc:	fa843783          	ld	a5,-88(s0)
    80000ed0:	0140006f          	j	80000ee4 <core_list_mergesort+0x210>
    80000ed4:	fcc42783          	lw	a5,-52(s0)
    80000ed8:	0017979b          	slliw	a5,a5,0x1
    80000edc:	fcf42623          	sw	a5,-52(s0)
    80000ee0:	e19ff06f          	j	80000cf8 <core_list_mergesort+0x24>
    80000ee4:	00078513          	mv	a0,a5
    80000ee8:	06813083          	ld	ra,104(sp)
    80000eec:	06013403          	ld	s0,96(sp)
    80000ef0:	07010113          	addi	sp,sp,112
    80000ef4:	00008067          	ret

0000000080000ef8 <iterate>:
    80000ef8:	fc010113          	addi	sp,sp,-64
    80000efc:	02113c23          	sd	ra,56(sp)
    80000f00:	02813823          	sd	s0,48(sp)
    80000f04:	04010413          	addi	s0,sp,64
    80000f08:	fca43423          	sd	a0,-56(s0)
    80000f0c:	fc843783          	ld	a5,-56(s0)
    80000f10:	fef43023          	sd	a5,-32(s0)
    80000f14:	fe043783          	ld	a5,-32(s0)
    80000f18:	02c7a783          	lw	a5,44(a5)
    80000f1c:	fcf42e23          	sw	a5,-36(s0)
    80000f20:	fe043783          	ld	a5,-32(s0)
    80000f24:	06079023          	sh	zero,96(a5)
    80000f28:	fe043783          	ld	a5,-32(s0)
    80000f2c:	06079123          	sh	zero,98(a5)
    80000f30:	fe043783          	ld	a5,-32(s0)
    80000f34:	06079223          	sh	zero,100(a5)
    80000f38:	fe043783          	ld	a5,-32(s0)
    80000f3c:	06079323          	sh	zero,102(a5)
    80000f40:	fe042623          	sw	zero,-20(s0)
    80000f44:	0a40006f          	j	80000fe8 <iterate+0xf0>
    80000f48:	00100593          	li	a1,1
    80000f4c:	fe043503          	ld	a0,-32(s0)
    80000f50:	c88ff0ef          	jal	ra,800003d8 <core_bench_list>
    80000f54:	00050793          	mv	a5,a0
    80000f58:	fcf41d23          	sh	a5,-38(s0)
    80000f5c:	fe043783          	ld	a5,-32(s0)
    80000f60:	0607d703          	lhu	a4,96(a5)
    80000f64:	fda45783          	lhu	a5,-38(s0)
    80000f68:	00070593          	mv	a1,a4
    80000f6c:	00078513          	mv	a0,a5
    80000f70:	341020ef          	jal	ra,80003ab0 <crcu16>
    80000f74:	00050793          	mv	a5,a0
    80000f78:	00078713          	mv	a4,a5
    80000f7c:	fe043783          	ld	a5,-32(s0)
    80000f80:	06e79023          	sh	a4,96(a5)
    80000f84:	fff00593          	li	a1,-1
    80000f88:	fe043503          	ld	a0,-32(s0)
    80000f8c:	c4cff0ef          	jal	ra,800003d8 <core_bench_list>
    80000f90:	00050793          	mv	a5,a0
    80000f94:	fcf41d23          	sh	a5,-38(s0)
    80000f98:	fe043783          	ld	a5,-32(s0)
    80000f9c:	0607d703          	lhu	a4,96(a5)
    80000fa0:	fda45783          	lhu	a5,-38(s0)
    80000fa4:	00070593          	mv	a1,a4
    80000fa8:	00078513          	mv	a0,a5
    80000fac:	305020ef          	jal	ra,80003ab0 <crcu16>
    80000fb0:	00050793          	mv	a5,a0
    80000fb4:	00078713          	mv	a4,a5
    80000fb8:	fe043783          	ld	a5,-32(s0)
    80000fbc:	06e79023          	sh	a4,96(a5)
    80000fc0:	fec42783          	lw	a5,-20(s0)
    80000fc4:	0007879b          	sext.w	a5,a5
    80000fc8:	00079a63          	bnez	a5,80000fdc <iterate+0xe4>
    80000fcc:	fe043783          	ld	a5,-32(s0)
    80000fd0:	0607d703          	lhu	a4,96(a5)
    80000fd4:	fe043783          	ld	a5,-32(s0)
    80000fd8:	06e79123          	sh	a4,98(a5)
    80000fdc:	fec42783          	lw	a5,-20(s0)
    80000fe0:	0017879b          	addiw	a5,a5,1
    80000fe4:	fef42623          	sw	a5,-20(s0)
    80000fe8:	fec42703          	lw	a4,-20(s0)
    80000fec:	fdc42783          	lw	a5,-36(s0)
    80000ff0:	0007071b          	sext.w	a4,a4
    80000ff4:	0007879b          	sext.w	a5,a5
    80000ff8:	f4f768e3          	bltu	a4,a5,80000f48 <iterate+0x50>
    80000ffc:	00000793          	li	a5,0
    80001000:	00078513          	mv	a0,a5
    80001004:	03813083          	ld	ra,56(sp)
    80001008:	03013403          	ld	s0,48(sp)
    8000100c:	04010113          	addi	sp,sp,64
    80001010:	00008067          	ret

0000000080001014 <getHartId>:
    80001014:	fe010113          	addi	sp,sp,-32
    80001018:	00813c23          	sd	s0,24(sp)
    8000101c:	02010413          	addi	s0,sp,32
    80001020:	fe042623          	sw	zero,-20(s0)
    80001024:	f14027f3          	csrr	a5,mhartid
    80001028:	fef42623          	sw	a5,-20(s0)
    8000102c:	fec42783          	lw	a5,-20(s0)
    80001030:	00078513          	mv	a0,a5
    80001034:	01813403          	ld	s0,24(sp)
    80001038:	02010113          	addi	sp,sp,32
    8000103c:	00008067          	ret

0000000080001040 <riscvPause>:
    80001040:	fe010113          	addi	sp,sp,-32
    80001044:	00813c23          	sd	s0,24(sp)
    80001048:	02010413          	addi	s0,sp,32
    8000104c:	00050793          	mv	a5,a0
    80001050:	fef42623          	sw	a5,-20(s0)
    80001054:	fec42783          	lw	a5,-20(s0)
    80001058:	7c279073          	csrw	0x7c2,a5
    8000105c:	00000013          	nop
    80001060:	01813403          	ld	s0,24(sp)
    80001064:	02010113          	addi	sp,sp,32
    80001068:	00008067          	ret

000000008000106c <main>:
    8000106c:	f3010113          	addi	sp,sp,-208
    80001070:	0c113423          	sd	ra,200(sp)
    80001074:	0c813023          	sd	s0,192(sp)
    80001078:	0a913c23          	sd	s1,184(sp)
    8000107c:	0b213823          	sd	s2,176(sp)
    80001080:	0d010413          	addi	s0,sp,208
    80001084:	fa042623          	sw	zero,-84(s0)
    80001088:	fc041e23          	sh	zero,-36(s0)
    8000108c:	fc041d23          	sh	zero,-38(s0)
    80001090:	fff00793          	li	a5,-1
    80001094:	fcf41c23          	sh	a5,-40(s0)
    80001098:	fc041b23          	sh	zero,-42(s0)
    8000109c:	fa041d23          	sh	zero,-70(s0)
    800010a0:	00006797          	auipc	a5,0x6
    800010a4:	74878793          	addi	a5,a5,1864 # 800077e8 <static_memblk0>
    800010a8:	fcf43423          	sd	a5,-56(s0)
    800010ac:	f69ff0ef          	jal	ra,80001014 <getHartId>
    800010b0:	00050793          	mv	a5,a0
    800010b4:	faf42a23          	sw	a5,-76(s0)
    800010b8:	fb442783          	lw	a5,-76(s0)
    800010bc:	0007871b          	sext.w	a4,a5
    800010c0:	00100793          	li	a5,1
    800010c4:	00f71863          	bne	a4,a5,800010d4 <main+0x68>
    800010c8:	00007797          	auipc	a5,0x7
    800010cc:	ef078793          	addi	a5,a5,-272 # 80007fb8 <static_memblk1>
    800010d0:	fcf43423          	sd	a5,-56(s0)
    800010d4:	fa040693          	addi	a3,s0,-96
    800010d8:	fac40713          	addi	a4,s0,-84
    800010dc:	f3040793          	addi	a5,s0,-208
    800010e0:	06a78793          	addi	a5,a5,106
    800010e4:	00068613          	mv	a2,a3
    800010e8:	00070593          	mv	a1,a4
    800010ec:	00078513          	mv	a0,a5
    800010f0:	451020ef          	jal	ra,80003d40 <portable_init>
    800010f4:	00100513          	li	a0,1
    800010f8:	7dc020ef          	jal	ra,800038d4 <get_seed_32>
    800010fc:	00050793          	mv	a5,a0
    80001100:	0107979b          	slliw	a5,a5,0x10
    80001104:	4107d79b          	sraiw	a5,a5,0x10
    80001108:	f2f41823          	sh	a5,-208(s0)
    8000110c:	00200513          	li	a0,2
    80001110:	7c4020ef          	jal	ra,800038d4 <get_seed_32>
    80001114:	00050793          	mv	a5,a0
    80001118:	0107979b          	slliw	a5,a5,0x10
    8000111c:	4107d79b          	sraiw	a5,a5,0x10
    80001120:	f2f41923          	sh	a5,-206(s0)
    80001124:	00300513          	li	a0,3
    80001128:	7ac020ef          	jal	ra,800038d4 <get_seed_32>
    8000112c:	00050793          	mv	a5,a0
    80001130:	0107979b          	slliw	a5,a5,0x10
    80001134:	4107d79b          	sraiw	a5,a5,0x10
    80001138:	f2f41a23          	sh	a5,-204(s0)
    8000113c:	00400513          	li	a0,4
    80001140:	794020ef          	jal	ra,800038d4 <get_seed_32>
    80001144:	00050793          	mv	a5,a0
    80001148:	0007879b          	sext.w	a5,a5
    8000114c:	f4f42e23          	sw	a5,-164(s0)
    80001150:	00500513          	li	a0,5
    80001154:	780020ef          	jal	ra,800038d4 <get_seed_32>
    80001158:	00050793          	mv	a5,a0
    8000115c:	0007879b          	sext.w	a5,a5
    80001160:	f6f42023          	sw	a5,-160(s0)
    80001164:	f6042783          	lw	a5,-160(s0)
    80001168:	00079663          	bnez	a5,80001174 <main+0x108>
    8000116c:	00700793          	li	a5,7
    80001170:	f6f42023          	sw	a5,-160(s0)
    80001174:	f3041783          	lh	a5,-208(s0)
    80001178:	02079263          	bnez	a5,8000119c <main+0x130>
    8000117c:	f3241783          	lh	a5,-206(s0)
    80001180:	00079e63          	bnez	a5,8000119c <main+0x130>
    80001184:	f3441783          	lh	a5,-204(s0)
    80001188:	00079a63          	bnez	a5,8000119c <main+0x130>
    8000118c:	f2041823          	sh	zero,-208(s0)
    80001190:	f2041923          	sh	zero,-206(s0)
    80001194:	06600793          	li	a5,102
    80001198:	f2f41a23          	sh	a5,-204(s0)
    8000119c:	f3041783          	lh	a5,-208(s0)
    800011a0:	0007871b          	sext.w	a4,a5
    800011a4:	00100793          	li	a5,1
    800011a8:	02f71a63          	bne	a4,a5,800011dc <main+0x170>
    800011ac:	f3241783          	lh	a5,-206(s0)
    800011b0:	02079663          	bnez	a5,800011dc <main+0x170>
    800011b4:	f3441783          	lh	a5,-204(s0)
    800011b8:	02079263          	bnez	a5,800011dc <main+0x170>
    800011bc:	000037b7          	lui	a5,0x3
    800011c0:	41578793          	addi	a5,a5,1045 # 3415 <_start-0x7fffcbeb>
    800011c4:	f2f41823          	sh	a5,-208(s0)
    800011c8:	000037b7          	lui	a5,0x3
    800011cc:	41578793          	addi	a5,a5,1045 # 3415 <_start-0x7fffcbeb>
    800011d0:	f2f41923          	sh	a5,-206(s0)
    800011d4:	06600793          	li	a5,102
    800011d8:	f2f41a23          	sh	a5,-204(s0)
    800011dc:	fc843783          	ld	a5,-56(s0)
    800011e0:	f2f43c23          	sd	a5,-200(s0)
    800011e4:	7d000793          	li	a5,2000
    800011e8:	f4f42c23          	sw	a5,-168(s0)
    800011ec:	f8041c23          	sh	zero,-104(s0)
    800011f0:	fc041f23          	sh	zero,-34(s0)
    800011f4:	0440006f          	j	80001238 <main+0x1cc>
    800011f8:	fde45783          	lhu	a5,-34(s0)
    800011fc:	0007879b          	sext.w	a5,a5
    80001200:	00100713          	li	a4,1
    80001204:	00f717bb          	sllw	a5,a4,a5
    80001208:	0007879b          	sext.w	a5,a5
    8000120c:	0007871b          	sext.w	a4,a5
    80001210:	f6042783          	lw	a5,-160(s0)
    80001214:	00f777b3          	and	a5,a4,a5
    80001218:	0007879b          	sext.w	a5,a5
    8000121c:	00078863          	beqz	a5,8000122c <main+0x1c0>
    80001220:	fda45783          	lhu	a5,-38(s0)
    80001224:	0017879b          	addiw	a5,a5,1
    80001228:	fcf41d23          	sh	a5,-38(s0)
    8000122c:	fde45783          	lhu	a5,-34(s0)
    80001230:	0017879b          	addiw	a5,a5,1
    80001234:	fcf41f23          	sh	a5,-34(s0)
    80001238:	fde45783          	lhu	a5,-34(s0)
    8000123c:	0007871b          	sext.w	a4,a5
    80001240:	00200793          	li	a5,2
    80001244:	fae7fae3          	bgeu	a5,a4,800011f8 <main+0x18c>
    80001248:	fc041f23          	sh	zero,-34(s0)
    8000124c:	0680006f          	j	800012b4 <main+0x248>
    80001250:	fde45783          	lhu	a5,-34(s0)
    80001254:	0007871b          	sext.w	a4,a5
    80001258:	00070793          	mv	a5,a4
    8000125c:	00379793          	slli	a5,a5,0x3
    80001260:	40e787b3          	sub	a5,a5,a4
    80001264:	00479793          	slli	a5,a5,0x4
    80001268:	fe040713          	addi	a4,s0,-32
    8000126c:	00f707b3          	add	a5,a4,a5
    80001270:	f787a683          	lw	a3,-136(a5)
    80001274:	fda45783          	lhu	a5,-38(s0)
    80001278:	0007879b          	sext.w	a5,a5
    8000127c:	fde45703          	lhu	a4,-34(s0)
    80001280:	0007071b          	sext.w	a4,a4
    80001284:	02f6d7bb          	divuw	a5,a3,a5
    80001288:	0007869b          	sext.w	a3,a5
    8000128c:	00070793          	mv	a5,a4
    80001290:	00379793          	slli	a5,a5,0x3
    80001294:	40e787b3          	sub	a5,a5,a4
    80001298:	00479793          	slli	a5,a5,0x4
    8000129c:	fe040713          	addi	a4,s0,-32
    800012a0:	00f707b3          	add	a5,a4,a5
    800012a4:	f6d7ac23          	sw	a3,-136(a5)
    800012a8:	fde45783          	lhu	a5,-34(s0)
    800012ac:	0017879b          	addiw	a5,a5,1
    800012b0:	fcf41f23          	sh	a5,-34(s0)
    800012b4:	fde45783          	lhu	a5,-34(s0)
    800012b8:	0007879b          	sext.w	a5,a5
    800012bc:	f8078ae3          	beqz	a5,80001250 <main+0x1e4>
    800012c0:	fc041f23          	sh	zero,-34(s0)
    800012c4:	0dc0006f          	j	800013a0 <main+0x334>
    800012c8:	fde45783          	lhu	a5,-34(s0)
    800012cc:	0007879b          	sext.w	a5,a5
    800012d0:	00100713          	li	a4,1
    800012d4:	00f717bb          	sllw	a5,a4,a5
    800012d8:	0007879b          	sext.w	a5,a5
    800012dc:	0007871b          	sext.w	a4,a5
    800012e0:	f6042783          	lw	a5,-160(s0)
    800012e4:	00f777b3          	and	a5,a4,a5
    800012e8:	0007879b          	sext.w	a5,a5
    800012ec:	0a078463          	beqz	a5,80001394 <main+0x328>
    800012f0:	fc042223          	sw	zero,-60(s0)
    800012f4:	0880006f          	j	8000137c <main+0x310>
    800012f8:	fc446703          	lwu	a4,-60(s0)
    800012fc:	00070793          	mv	a5,a4
    80001300:	00379793          	slli	a5,a5,0x3
    80001304:	40e787b3          	sub	a5,a5,a4
    80001308:	00479793          	slli	a5,a5,0x4
    8000130c:	fe040713          	addi	a4,s0,-32
    80001310:	00f707b3          	add	a5,a4,a5
    80001314:	f587b703          	ld	a4,-168(a5)
    80001318:	f5842683          	lw	a3,-168(s0)
    8000131c:	fdc45783          	lhu	a5,-36(s0)
    80001320:	0007879b          	sext.w	a5,a5
    80001324:	02f687bb          	mulw	a5,a3,a5
    80001328:	0007879b          	sext.w	a5,a5
    8000132c:	02079793          	slli	a5,a5,0x20
    80001330:	0207d793          	srli	a5,a5,0x20
    80001334:	fde45683          	lhu	a3,-34(s0)
    80001338:	0006869b          	sext.w	a3,a3
    8000133c:	0016869b          	addiw	a3,a3,1
    80001340:	0006861b          	sext.w	a2,a3
    80001344:	00f706b3          	add	a3,a4,a5
    80001348:	fc446703          	lwu	a4,-60(s0)
    8000134c:	00070793          	mv	a5,a4
    80001350:	00379793          	slli	a5,a5,0x3
    80001354:	40e787b3          	sub	a5,a5,a4
    80001358:	00179793          	slli	a5,a5,0x1
    8000135c:	00c787b3          	add	a5,a5,a2
    80001360:	00379793          	slli	a5,a5,0x3
    80001364:	fe040713          	addi	a4,s0,-32
    80001368:	00f707b3          	add	a5,a4,a5
    8000136c:	f4d7bc23          	sd	a3,-168(a5)
    80001370:	fc442783          	lw	a5,-60(s0)
    80001374:	0017879b          	addiw	a5,a5,1
    80001378:	fcf42223          	sw	a5,-60(s0)
    8000137c:	fc442783          	lw	a5,-60(s0)
    80001380:	0007879b          	sext.w	a5,a5
    80001384:	f6078ae3          	beqz	a5,800012f8 <main+0x28c>
    80001388:	fdc45783          	lhu	a5,-36(s0)
    8000138c:	0017879b          	addiw	a5,a5,1
    80001390:	fcf41e23          	sh	a5,-36(s0)
    80001394:	fde45783          	lhu	a5,-34(s0)
    80001398:	0017879b          	addiw	a5,a5,1
    8000139c:	fcf41f23          	sh	a5,-34(s0)
    800013a0:	fde45783          	lhu	a5,-34(s0)
    800013a4:	0007871b          	sext.w	a4,a5
    800013a8:	00200793          	li	a5,2
    800013ac:	f0e7fee3          	bgeu	a5,a4,800012c8 <main+0x25c>
    800013b0:	fc041f23          	sh	zero,-34(s0)
    800013b4:	22c0006f          	j	800015e0 <main+0x574>
    800013b8:	fde45783          	lhu	a5,-34(s0)
    800013bc:	0007871b          	sext.w	a4,a5
    800013c0:	00070793          	mv	a5,a4
    800013c4:	00379793          	slli	a5,a5,0x3
    800013c8:	40e787b3          	sub	a5,a5,a4
    800013cc:	00479793          	slli	a5,a5,0x4
    800013d0:	fe040713          	addi	a4,s0,-32
    800013d4:	00f707b3          	add	a5,a4,a5
    800013d8:	f807a783          	lw	a5,-128(a5)
    800013dc:	0017f793          	andi	a5,a5,1
    800013e0:	0007879b          	sext.w	a5,a5
    800013e4:	08078263          	beqz	a5,80001468 <main+0x3fc>
    800013e8:	f5842683          	lw	a3,-168(s0)
    800013ec:	fde45783          	lhu	a5,-34(s0)
    800013f0:	0007871b          	sext.w	a4,a5
    800013f4:	00070793          	mv	a5,a4
    800013f8:	00379793          	slli	a5,a5,0x3
    800013fc:	40e787b3          	sub	a5,a5,a4
    80001400:	00479793          	slli	a5,a5,0x4
    80001404:	fe040713          	addi	a4,s0,-32
    80001408:	00f707b3          	add	a5,a4,a5
    8000140c:	f607b583          	ld	a1,-160(a5)
    80001410:	fde45783          	lhu	a5,-34(s0)
    80001414:	0007871b          	sext.w	a4,a5
    80001418:	00070793          	mv	a5,a4
    8000141c:	00379793          	slli	a5,a5,0x3
    80001420:	40e787b3          	sub	a5,a5,a4
    80001424:	00479793          	slli	a5,a5,0x4
    80001428:	fe040713          	addi	a4,s0,-32
    8000142c:	00f707b3          	add	a5,a4,a5
    80001430:	f5079783          	lh	a5,-176(a5)
    80001434:	fde45703          	lhu	a4,-34(s0)
    80001438:	0007049b          	sext.w	s1,a4
    8000143c:	00078613          	mv	a2,a5
    80001440:	00068513          	mv	a0,a3
    80001444:	ad0ff0ef          	jal	ra,80000714 <core_list_init>
    80001448:	00050713          	mv	a4,a0
    8000144c:	00048793          	mv	a5,s1
    80001450:	00379793          	slli	a5,a5,0x3
    80001454:	409787b3          	sub	a5,a5,s1
    80001458:	00479793          	slli	a5,a5,0x4
    8000145c:	fe040693          	addi	a3,s0,-32
    80001460:	00f687b3          	add	a5,a3,a5
    80001464:	f8e7b423          	sd	a4,-120(a5)
    80001468:	fde45783          	lhu	a5,-34(s0)
    8000146c:	0007871b          	sext.w	a4,a5
    80001470:	00070793          	mv	a5,a4
    80001474:	00379793          	slli	a5,a5,0x3
    80001478:	40e787b3          	sub	a5,a5,a4
    8000147c:	00479793          	slli	a5,a5,0x4
    80001480:	fe040713          	addi	a4,s0,-32
    80001484:	00f707b3          	add	a5,a4,a5
    80001488:	f807a783          	lw	a5,-128(a5)
    8000148c:	0027f793          	andi	a5,a5,2
    80001490:	0007879b          	sext.w	a5,a5
    80001494:	0a078c63          	beqz	a5,8000154c <main+0x4e0>
    80001498:	f5842503          	lw	a0,-168(s0)
    8000149c:	fde45783          	lhu	a5,-34(s0)
    800014a0:	0007871b          	sext.w	a4,a5
    800014a4:	00070793          	mv	a5,a4
    800014a8:	00379793          	slli	a5,a5,0x3
    800014ac:	40e787b3          	sub	a5,a5,a4
    800014b0:	00479793          	slli	a5,a5,0x4
    800014b4:	fe040713          	addi	a4,s0,-32
    800014b8:	00f707b3          	add	a5,a4,a5
    800014bc:	f687b583          	ld	a1,-152(a5)
    800014c0:	fde45783          	lhu	a5,-34(s0)
    800014c4:	0007871b          	sext.w	a4,a5
    800014c8:	00070793          	mv	a5,a4
    800014cc:	00379793          	slli	a5,a5,0x3
    800014d0:	40e787b3          	sub	a5,a5,a4
    800014d4:	00479793          	slli	a5,a5,0x4
    800014d8:	fe040713          	addi	a4,s0,-32
    800014dc:	00f707b3          	add	a5,a4,a5
    800014e0:	f5079783          	lh	a5,-176(a5)
    800014e4:	0007869b          	sext.w	a3,a5
    800014e8:	fde45783          	lhu	a5,-34(s0)
    800014ec:	0007871b          	sext.w	a4,a5
    800014f0:	00070793          	mv	a5,a4
    800014f4:	00379793          	slli	a5,a5,0x3
    800014f8:	40e787b3          	sub	a5,a5,a4
    800014fc:	00479793          	slli	a5,a5,0x4
    80001500:	fe040713          	addi	a4,s0,-32
    80001504:	00f707b3          	add	a5,a4,a5
    80001508:	f5279783          	lh	a5,-174(a5)
    8000150c:	0007879b          	sext.w	a5,a5
    80001510:	0107979b          	slliw	a5,a5,0x10
    80001514:	0007879b          	sext.w	a5,a5
    80001518:	00f6e7b3          	or	a5,a3,a5
    8000151c:	0007861b          	sext.w	a2,a5
    80001520:	fde45783          	lhu	a5,-34(s0)
    80001524:	0007871b          	sext.w	a4,a5
    80001528:	f3040693          	addi	a3,s0,-208
    8000152c:	00070793          	mv	a5,a4
    80001530:	00379793          	slli	a5,a5,0x3
    80001534:	40e787b3          	sub	a5,a5,a4
    80001538:	00479793          	slli	a5,a5,0x4
    8000153c:	04078793          	addi	a5,a5,64
    80001540:	00f687b3          	add	a5,a3,a5
    80001544:	00078693          	mv	a3,a5
    80001548:	669000ef          	jal	ra,800023b0 <core_init_matrix>
    8000154c:	fde45783          	lhu	a5,-34(s0)
    80001550:	0007871b          	sext.w	a4,a5
    80001554:	00070793          	mv	a5,a4
    80001558:	00379793          	slli	a5,a5,0x3
    8000155c:	40e787b3          	sub	a5,a5,a4
    80001560:	00479793          	slli	a5,a5,0x4
    80001564:	fe040713          	addi	a4,s0,-32
    80001568:	00f707b3          	add	a5,a4,a5
    8000156c:	f807a783          	lw	a5,-128(a5)
    80001570:	0047f793          	andi	a5,a5,4
    80001574:	0007879b          	sext.w	a5,a5
    80001578:	04078e63          	beqz	a5,800015d4 <main+0x568>
    8000157c:	f5842683          	lw	a3,-168(s0)
    80001580:	fde45783          	lhu	a5,-34(s0)
    80001584:	0007871b          	sext.w	a4,a5
    80001588:	00070793          	mv	a5,a4
    8000158c:	00379793          	slli	a5,a5,0x3
    80001590:	40e787b3          	sub	a5,a5,a4
    80001594:	00479793          	slli	a5,a5,0x4
    80001598:	fe040713          	addi	a4,s0,-32
    8000159c:	00f707b3          	add	a5,a4,a5
    800015a0:	f5079583          	lh	a1,-176(a5)
    800015a4:	fde45783          	lhu	a5,-34(s0)
    800015a8:	0007871b          	sext.w	a4,a5
    800015ac:	00070793          	mv	a5,a4
    800015b0:	00379793          	slli	a5,a5,0x3
    800015b4:	40e787b3          	sub	a5,a5,a4
    800015b8:	00479793          	slli	a5,a5,0x4
    800015bc:	fe040713          	addi	a4,s0,-32
    800015c0:	00f707b3          	add	a5,a4,a5
    800015c4:	f707b783          	ld	a5,-144(a5)
    800015c8:	00078613          	mv	a2,a5
    800015cc:	00068513          	mv	a0,a3
    800015d0:	395010ef          	jal	ra,80003164 <core_init_state>
    800015d4:	fde45783          	lhu	a5,-34(s0)
    800015d8:	0017879b          	addiw	a5,a5,1
    800015dc:	fcf41f23          	sh	a5,-34(s0)
    800015e0:	fde45783          	lhu	a5,-34(s0)
    800015e4:	0007879b          	sext.w	a5,a5
    800015e8:	dc0788e3          	beqz	a5,800013b8 <main+0x34c>
    800015ec:	f5c42783          	lw	a5,-164(s0)
    800015f0:	0a079a63          	bnez	a5,800016a4 <main+0x638>
    800015f4:	fc042023          	sw	zero,-64(s0)
    800015f8:	00100793          	li	a5,1
    800015fc:	f4f42e23          	sw	a5,-164(s0)
    80001600:	0540006f          	j	80001654 <main+0x5e8>
    80001604:	f5c42783          	lw	a5,-164(s0)
    80001608:	00078713          	mv	a4,a5
    8000160c:	00070793          	mv	a5,a4
    80001610:	0027979b          	slliw	a5,a5,0x2
    80001614:	00e787bb          	addw	a5,a5,a4
    80001618:	0017979b          	slliw	a5,a5,0x1
    8000161c:	0007879b          	sext.w	a5,a5
    80001620:	f4f42e23          	sw	a5,-164(s0)
    80001624:	634020ef          	jal	ra,80003c58 <start_time>
    80001628:	f3040793          	addi	a5,s0,-208
    8000162c:	00078513          	mv	a0,a5
    80001630:	8c9ff0ef          	jal	ra,80000ef8 <iterate>
    80001634:	658020ef          	jal	ra,80003c8c <stop_time>
    80001638:	688020ef          	jal	ra,80003cc0 <get_time>
    8000163c:	00050793          	mv	a5,a0
    80001640:	0007879b          	sext.w	a5,a5
    80001644:	00078513          	mv	a0,a5
    80001648:	6c0020ef          	jal	ra,80003d08 <time_in_secs>
    8000164c:	00050793          	mv	a5,a0
    80001650:	fcf42023          	sw	a5,-64(s0)
    80001654:	fc042783          	lw	a5,-64(s0)
    80001658:	0007879b          	sext.w	a5,a5
    8000165c:	fa0784e3          	beqz	a5,80001604 <main+0x598>
    80001660:	fc042783          	lw	a5,-64(s0)
    80001664:	faf42e23          	sw	a5,-68(s0)
    80001668:	fbc42783          	lw	a5,-68(s0)
    8000166c:	0007879b          	sext.w	a5,a5
    80001670:	00079663          	bnez	a5,8000167c <main+0x610>
    80001674:	00100793          	li	a5,1
    80001678:	faf42e23          	sw	a5,-68(s0)
    8000167c:	f5c42703          	lw	a4,-164(s0)
    80001680:	00a00693          	li	a3,10
    80001684:	fbc42783          	lw	a5,-68(s0)
    80001688:	02f6d7bb          	divuw	a5,a3,a5
    8000168c:	0007879b          	sext.w	a5,a5
    80001690:	0017879b          	addiw	a5,a5,1
    80001694:	0007879b          	sext.w	a5,a5
    80001698:	02f707bb          	mulw	a5,a4,a5
    8000169c:	0007879b          	sext.w	a5,a5
    800016a0:	f4f42e23          	sw	a5,-164(s0)
    800016a4:	5b4020ef          	jal	ra,80003c58 <start_time>

00000000800016a8 <__perf_start>:
    800016a8:	f3040793          	addi	a5,s0,-208
    800016ac:	00078513          	mv	a0,a5
    800016b0:	849ff0ef          	jal	ra,80000ef8 <iterate>

00000000800016b4 <__perf_end>:
    800016b4:	fb442783          	lw	a5,-76(s0)
    800016b8:	0007871b          	sext.w	a4,a5
    800016bc:	00100793          	li	a5,1
    800016c0:	00f71463          	bne	a4,a5,800016c8 <__perf_end+0x14>
    800016c4:	0000006f          	j	800016c4 <__perf_end+0x10>
    800016c8:	5c4020ef          	jal	ra,80003c8c <stop_time>
    800016cc:	5f4020ef          	jal	ra,80003cc0 <get_time>
    800016d0:	00050793          	mv	a5,a0
    800016d4:	faf42823          	sw	a5,-80(s0)
    800016d8:	f3041783          	lh	a5,-208(s0)
    800016dc:	fba45703          	lhu	a4,-70(s0)
    800016e0:	00070593          	mv	a1,a4
    800016e4:	00078513          	mv	a0,a5
    800016e8:	4dc020ef          	jal	ra,80003bc4 <crc16>
    800016ec:	00050793          	mv	a5,a0
    800016f0:	faf41d23          	sh	a5,-70(s0)
    800016f4:	f3241783          	lh	a5,-206(s0)
    800016f8:	fba45703          	lhu	a4,-70(s0)
    800016fc:	00070593          	mv	a1,a4
    80001700:	00078513          	mv	a0,a5
    80001704:	4c0020ef          	jal	ra,80003bc4 <crc16>
    80001708:	00050793          	mv	a5,a0
    8000170c:	faf41d23          	sh	a5,-70(s0)
    80001710:	f3441783          	lh	a5,-204(s0)
    80001714:	fba45703          	lhu	a4,-70(s0)
    80001718:	00070593          	mv	a1,a4
    8000171c:	00078513          	mv	a0,a5
    80001720:	4a4020ef          	jal	ra,80003bc4 <crc16>
    80001724:	00050793          	mv	a5,a0
    80001728:	faf41d23          	sh	a5,-70(s0)
    8000172c:	f5842783          	lw	a5,-168(s0)
    80001730:	0107979b          	slliw	a5,a5,0x10
    80001734:	4107d79b          	sraiw	a5,a5,0x10
    80001738:	fba45703          	lhu	a4,-70(s0)
    8000173c:	00070593          	mv	a1,a4
    80001740:	00078513          	mv	a0,a5
    80001744:	480020ef          	jal	ra,80003bc4 <crc16>
    80001748:	00050793          	mv	a5,a0
    8000174c:	faf41d23          	sh	a5,-70(s0)
    80001750:	fba45783          	lhu	a5,-70(s0)
    80001754:	0007879b          	sext.w	a5,a5
    80001758:	00078693          	mv	a3,a5
    8000175c:	0000f737          	lui	a4,0xf
    80001760:	9f570713          	addi	a4,a4,-1547 # e9f5 <_start-0x7fff160b>
    80001764:	0ae68e63          	beq	a3,a4,80001820 <__perf_end+0x16c>
    80001768:	00078693          	mv	a3,a5
    8000176c:	0000f737          	lui	a4,0xf
    80001770:	9f570713          	addi	a4,a4,-1547 # e9f5 <_start-0x7fff160b>
    80001774:	0cd74e63          	blt	a4,a3,80001850 <__perf_end+0x19c>
    80001778:	00078693          	mv	a3,a5
    8000177c:	00009737          	lui	a4,0x9
    80001780:	a0270713          	addi	a4,a4,-1534 # 8a02 <_start-0x7fff75fe>
    80001784:	04e68c63          	beq	a3,a4,800017dc <__perf_end+0x128>
    80001788:	00078693          	mv	a3,a5
    8000178c:	00009737          	lui	a4,0x9
    80001790:	a0270713          	addi	a4,a4,-1534 # 8a02 <_start-0x7fff75fe>
    80001794:	0ad74e63          	blt	a4,a3,80001850 <__perf_end+0x19c>
    80001798:	00078693          	mv	a3,a5
    8000179c:	00008737          	lui	a4,0x8
    800017a0:	b0570713          	addi	a4,a4,-1275 # 7b05 <_start-0x7fff84fb>
    800017a4:	04e68663          	beq	a3,a4,800017f0 <__perf_end+0x13c>
    800017a8:	00078693          	mv	a3,a5
    800017ac:	00008737          	lui	a4,0x8
    800017b0:	b0570713          	addi	a4,a4,-1275 # 7b05 <_start-0x7fff84fb>
    800017b4:	08d74e63          	blt	a4,a3,80001850 <__perf_end+0x19c>
    800017b8:	00078693          	mv	a3,a5
    800017bc:	00002737          	lui	a4,0x2
    800017c0:	8f270713          	addi	a4,a4,-1806 # 18f2 <_start-0x7fffe70e>
    800017c4:	06e68a63          	beq	a3,a4,80001838 <__perf_end+0x184>
    800017c8:	00078713          	mv	a4,a5
    800017cc:	000057b7          	lui	a5,0x5
    800017d0:	eaf78793          	addi	a5,a5,-337 # 4eaf <_start-0x7fffb151>
    800017d4:	02f70a63          	beq	a4,a5,80001808 <__perf_end+0x154>
    800017d8:	0780006f          	j	80001850 <__perf_end+0x19c>
    800017dc:	fc041c23          	sh	zero,-40(s0)
    800017e0:	00005517          	auipc	a0,0x5
    800017e4:	61050513          	addi	a0,a0,1552 # 80006df0 <printf_+0x9c>
    800017e8:	56c050ef          	jal	ra,80006d54 <printf_>
    800017ec:	0700006f          	j	8000185c <__perf_end+0x1a8>
    800017f0:	00100793          	li	a5,1
    800017f4:	fcf41c23          	sh	a5,-40(s0)
    800017f8:	00005517          	auipc	a0,0x5
    800017fc:	62850513          	addi	a0,a0,1576 # 80006e20 <printf_+0xcc>
    80001800:	554050ef          	jal	ra,80006d54 <printf_>
    80001804:	0580006f          	j	8000185c <__perf_end+0x1a8>
    80001808:	00200793          	li	a5,2
    8000180c:	fcf41c23          	sh	a5,-40(s0)
    80001810:	00005517          	auipc	a0,0x5
    80001814:	64050513          	addi	a0,a0,1600 # 80006e50 <printf_+0xfc>
    80001818:	53c050ef          	jal	ra,80006d54 <printf_>
    8000181c:	0400006f          	j	8000185c <__perf_end+0x1a8>
    80001820:	00300793          	li	a5,3
    80001824:	fcf41c23          	sh	a5,-40(s0)
    80001828:	00005517          	auipc	a0,0x5
    8000182c:	66050513          	addi	a0,a0,1632 # 80006e88 <printf_+0x134>
    80001830:	524050ef          	jal	ra,80006d54 <printf_>
    80001834:	0280006f          	j	8000185c <__perf_end+0x1a8>
    80001838:	00400793          	li	a5,4
    8000183c:	fcf41c23          	sh	a5,-40(s0)
    80001840:	00005517          	auipc	a0,0x5
    80001844:	67850513          	addi	a0,a0,1656 # 80006eb8 <printf_+0x164>
    80001848:	50c050ef          	jal	ra,80006d54 <printf_>
    8000184c:	0100006f          	j	8000185c <__perf_end+0x1a8>
    80001850:	fff00793          	li	a5,-1
    80001854:	fcf41b23          	sh	a5,-42(s0)
    80001858:	00000013          	nop
    8000185c:	fd841783          	lh	a5,-40(s0)
    80001860:	0007879b          	sext.w	a5,a5
    80001864:	4207ce63          	bltz	a5,80001ca0 <__perf_end+0x5ec>
    80001868:	fc041f23          	sh	zero,-34(s0)
    8000186c:	41c0006f          	j	80001c88 <__perf_end+0x5d4>
    80001870:	fde45783          	lhu	a5,-34(s0)
    80001874:	0007871b          	sext.w	a4,a5
    80001878:	00070793          	mv	a5,a4
    8000187c:	00379793          	slli	a5,a5,0x3
    80001880:	40e787b3          	sub	a5,a5,a4
    80001884:	00479793          	slli	a5,a5,0x4
    80001888:	fe040713          	addi	a4,s0,-32
    8000188c:	00f707b3          	add	a5,a4,a5
    80001890:	fa079c23          	sh	zero,-72(a5)
    80001894:	fde45783          	lhu	a5,-34(s0)
    80001898:	0007871b          	sext.w	a4,a5
    8000189c:	00070793          	mv	a5,a4
    800018a0:	00379793          	slli	a5,a5,0x3
    800018a4:	40e787b3          	sub	a5,a5,a4
    800018a8:	00479793          	slli	a5,a5,0x4
    800018ac:	fe040713          	addi	a4,s0,-32
    800018b0:	00f707b3          	add	a5,a4,a5
    800018b4:	f807a783          	lw	a5,-128(a5)
    800018b8:	0017f793          	andi	a5,a5,1
    800018bc:	0007879b          	sext.w	a5,a5
    800018c0:	10078663          	beqz	a5,800019cc <__perf_end+0x318>
    800018c4:	fde45783          	lhu	a5,-34(s0)
    800018c8:	0007871b          	sext.w	a4,a5
    800018cc:	00070793          	mv	a5,a4
    800018d0:	00379793          	slli	a5,a5,0x3
    800018d4:	40e787b3          	sub	a5,a5,a4
    800018d8:	00479793          	slli	a5,a5,0x4
    800018dc:	fe040713          	addi	a4,s0,-32
    800018e0:	00f707b3          	add	a5,a4,a5
    800018e4:	fb27d683          	lhu	a3,-78(a5)
    800018e8:	fd841783          	lh	a5,-40(s0)
    800018ec:	0007879b          	sext.w	a5,a5
    800018f0:	00006717          	auipc	a4,0x6
    800018f4:	e2070713          	addi	a4,a4,-480 # 80007710 <list_known_crc>
    800018f8:	00179793          	slli	a5,a5,0x1
    800018fc:	00f707b3          	add	a5,a4,a5
    80001900:	0007d783          	lhu	a5,0(a5)
    80001904:	0006871b          	sext.w	a4,a3
    80001908:	0007879b          	sext.w	a5,a5
    8000190c:	0cf70063          	beq	a4,a5,800019cc <__perf_end+0x318>
    80001910:	fde45783          	lhu	a5,-34(s0)
    80001914:	0007859b          	sext.w	a1,a5
    80001918:	fde45783          	lhu	a5,-34(s0)
    8000191c:	0007871b          	sext.w	a4,a5
    80001920:	00070793          	mv	a5,a4
    80001924:	00379793          	slli	a5,a5,0x3
    80001928:	40e787b3          	sub	a5,a5,a4
    8000192c:	00479793          	slli	a5,a5,0x4
    80001930:	fe040713          	addi	a4,s0,-32
    80001934:	00f707b3          	add	a5,a4,a5
    80001938:	fb27d783          	lhu	a5,-78(a5)
    8000193c:	0007861b          	sext.w	a2,a5
    80001940:	fd841783          	lh	a5,-40(s0)
    80001944:	0007879b          	sext.w	a5,a5
    80001948:	00006717          	auipc	a4,0x6
    8000194c:	dc870713          	addi	a4,a4,-568 # 80007710 <list_known_crc>
    80001950:	00179793          	slli	a5,a5,0x1
    80001954:	00f707b3          	add	a5,a4,a5
    80001958:	0007d783          	lhu	a5,0(a5)
    8000195c:	0007879b          	sext.w	a5,a5
    80001960:	00078693          	mv	a3,a5
    80001964:	00005517          	auipc	a0,0x5
    80001968:	58450513          	addi	a0,a0,1412 # 80006ee8 <printf_+0x194>
    8000196c:	3e8050ef          	jal	ra,80006d54 <printf_>
    80001970:	fde45783          	lhu	a5,-34(s0)
    80001974:	0007871b          	sext.w	a4,a5
    80001978:	00070793          	mv	a5,a4
    8000197c:	00379793          	slli	a5,a5,0x3
    80001980:	40e787b3          	sub	a5,a5,a4
    80001984:	00479793          	slli	a5,a5,0x4
    80001988:	fe040693          	addi	a3,s0,-32
    8000198c:	00f687b3          	add	a5,a3,a5
    80001990:	fb879783          	lh	a5,-72(a5)
    80001994:	03079793          	slli	a5,a5,0x30
    80001998:	0307d793          	srli	a5,a5,0x30
    8000199c:	0017879b          	addiw	a5,a5,1
    800019a0:	03079793          	slli	a5,a5,0x30
    800019a4:	0307d793          	srli	a5,a5,0x30
    800019a8:	0107969b          	slliw	a3,a5,0x10
    800019ac:	4106d69b          	sraiw	a3,a3,0x10
    800019b0:	00070793          	mv	a5,a4
    800019b4:	00379793          	slli	a5,a5,0x3
    800019b8:	40e787b3          	sub	a5,a5,a4
    800019bc:	00479793          	slli	a5,a5,0x4
    800019c0:	fe040713          	addi	a4,s0,-32
    800019c4:	00f707b3          	add	a5,a4,a5
    800019c8:	fad79c23          	sh	a3,-72(a5)
    800019cc:	fde45783          	lhu	a5,-34(s0)
    800019d0:	0007871b          	sext.w	a4,a5
    800019d4:	00070793          	mv	a5,a4
    800019d8:	00379793          	slli	a5,a5,0x3
    800019dc:	40e787b3          	sub	a5,a5,a4
    800019e0:	00479793          	slli	a5,a5,0x4
    800019e4:	fe040713          	addi	a4,s0,-32
    800019e8:	00f707b3          	add	a5,a4,a5
    800019ec:	f807a783          	lw	a5,-128(a5)
    800019f0:	0027f793          	andi	a5,a5,2
    800019f4:	0007879b          	sext.w	a5,a5
    800019f8:	10078663          	beqz	a5,80001b04 <__perf_end+0x450>
    800019fc:	fde45783          	lhu	a5,-34(s0)
    80001a00:	0007871b          	sext.w	a4,a5
    80001a04:	00070793          	mv	a5,a4
    80001a08:	00379793          	slli	a5,a5,0x3
    80001a0c:	40e787b3          	sub	a5,a5,a4
    80001a10:	00479793          	slli	a5,a5,0x4
    80001a14:	fe040713          	addi	a4,s0,-32
    80001a18:	00f707b3          	add	a5,a4,a5
    80001a1c:	fb47d683          	lhu	a3,-76(a5)
    80001a20:	fd841783          	lh	a5,-40(s0)
    80001a24:	0007879b          	sext.w	a5,a5
    80001a28:	00006717          	auipc	a4,0x6
    80001a2c:	cf870713          	addi	a4,a4,-776 # 80007720 <matrix_known_crc>
    80001a30:	00179793          	slli	a5,a5,0x1
    80001a34:	00f707b3          	add	a5,a4,a5
    80001a38:	0007d783          	lhu	a5,0(a5)
    80001a3c:	0006871b          	sext.w	a4,a3
    80001a40:	0007879b          	sext.w	a5,a5
    80001a44:	0cf70063          	beq	a4,a5,80001b04 <__perf_end+0x450>
    80001a48:	fde45783          	lhu	a5,-34(s0)
    80001a4c:	0007859b          	sext.w	a1,a5
    80001a50:	fde45783          	lhu	a5,-34(s0)
    80001a54:	0007871b          	sext.w	a4,a5
    80001a58:	00070793          	mv	a5,a4
    80001a5c:	00379793          	slli	a5,a5,0x3
    80001a60:	40e787b3          	sub	a5,a5,a4
    80001a64:	00479793          	slli	a5,a5,0x4
    80001a68:	fe040713          	addi	a4,s0,-32
    80001a6c:	00f707b3          	add	a5,a4,a5
    80001a70:	fb47d783          	lhu	a5,-76(a5)
    80001a74:	0007861b          	sext.w	a2,a5
    80001a78:	fd841783          	lh	a5,-40(s0)
    80001a7c:	0007879b          	sext.w	a5,a5
    80001a80:	00006717          	auipc	a4,0x6
    80001a84:	ca070713          	addi	a4,a4,-864 # 80007720 <matrix_known_crc>
    80001a88:	00179793          	slli	a5,a5,0x1
    80001a8c:	00f707b3          	add	a5,a4,a5
    80001a90:	0007d783          	lhu	a5,0(a5)
    80001a94:	0007879b          	sext.w	a5,a5
    80001a98:	00078693          	mv	a3,a5
    80001a9c:	00005517          	auipc	a0,0x5
    80001aa0:	47c50513          	addi	a0,a0,1148 # 80006f18 <printf_+0x1c4>
    80001aa4:	2b0050ef          	jal	ra,80006d54 <printf_>
    80001aa8:	fde45783          	lhu	a5,-34(s0)
    80001aac:	0007871b          	sext.w	a4,a5
    80001ab0:	00070793          	mv	a5,a4
    80001ab4:	00379793          	slli	a5,a5,0x3
    80001ab8:	40e787b3          	sub	a5,a5,a4
    80001abc:	00479793          	slli	a5,a5,0x4
    80001ac0:	fe040693          	addi	a3,s0,-32
    80001ac4:	00f687b3          	add	a5,a3,a5
    80001ac8:	fb879783          	lh	a5,-72(a5)
    80001acc:	03079793          	slli	a5,a5,0x30
    80001ad0:	0307d793          	srli	a5,a5,0x30
    80001ad4:	0017879b          	addiw	a5,a5,1
    80001ad8:	03079793          	slli	a5,a5,0x30
    80001adc:	0307d793          	srli	a5,a5,0x30
    80001ae0:	0107969b          	slliw	a3,a5,0x10
    80001ae4:	4106d69b          	sraiw	a3,a3,0x10
    80001ae8:	00070793          	mv	a5,a4
    80001aec:	00379793          	slli	a5,a5,0x3
    80001af0:	40e787b3          	sub	a5,a5,a4
    80001af4:	00479793          	slli	a5,a5,0x4
    80001af8:	fe040713          	addi	a4,s0,-32
    80001afc:	00f707b3          	add	a5,a4,a5
    80001b00:	fad79c23          	sh	a3,-72(a5)
    80001b04:	fde45783          	lhu	a5,-34(s0)
    80001b08:	0007871b          	sext.w	a4,a5
    80001b0c:	00070793          	mv	a5,a4
    80001b10:	00379793          	slli	a5,a5,0x3
    80001b14:	40e787b3          	sub	a5,a5,a4
    80001b18:	00479793          	slli	a5,a5,0x4
    80001b1c:	fe040713          	addi	a4,s0,-32
    80001b20:	00f707b3          	add	a5,a4,a5
    80001b24:	f807a783          	lw	a5,-128(a5)
    80001b28:	0047f793          	andi	a5,a5,4
    80001b2c:	0007879b          	sext.w	a5,a5
    80001b30:	10078663          	beqz	a5,80001c3c <__perf_end+0x588>
    80001b34:	fde45783          	lhu	a5,-34(s0)
    80001b38:	0007871b          	sext.w	a4,a5
    80001b3c:	00070793          	mv	a5,a4
    80001b40:	00379793          	slli	a5,a5,0x3
    80001b44:	40e787b3          	sub	a5,a5,a4
    80001b48:	00479793          	slli	a5,a5,0x4
    80001b4c:	fe040713          	addi	a4,s0,-32
    80001b50:	00f707b3          	add	a5,a4,a5
    80001b54:	fb67d683          	lhu	a3,-74(a5)
    80001b58:	fd841783          	lh	a5,-40(s0)
    80001b5c:	0007879b          	sext.w	a5,a5
    80001b60:	00006717          	auipc	a4,0x6
    80001b64:	bd070713          	addi	a4,a4,-1072 # 80007730 <state_known_crc>
    80001b68:	00179793          	slli	a5,a5,0x1
    80001b6c:	00f707b3          	add	a5,a4,a5
    80001b70:	0007d783          	lhu	a5,0(a5)
    80001b74:	0006871b          	sext.w	a4,a3
    80001b78:	0007879b          	sext.w	a5,a5
    80001b7c:	0cf70063          	beq	a4,a5,80001c3c <__perf_end+0x588>
    80001b80:	fde45783          	lhu	a5,-34(s0)
    80001b84:	0007859b          	sext.w	a1,a5
    80001b88:	fde45783          	lhu	a5,-34(s0)
    80001b8c:	0007871b          	sext.w	a4,a5
    80001b90:	00070793          	mv	a5,a4
    80001b94:	00379793          	slli	a5,a5,0x3
    80001b98:	40e787b3          	sub	a5,a5,a4
    80001b9c:	00479793          	slli	a5,a5,0x4
    80001ba0:	fe040713          	addi	a4,s0,-32
    80001ba4:	00f707b3          	add	a5,a4,a5
    80001ba8:	fb67d783          	lhu	a5,-74(a5)
    80001bac:	0007861b          	sext.w	a2,a5
    80001bb0:	fd841783          	lh	a5,-40(s0)
    80001bb4:	0007879b          	sext.w	a5,a5
    80001bb8:	00006717          	auipc	a4,0x6
    80001bbc:	b7870713          	addi	a4,a4,-1160 # 80007730 <state_known_crc>
    80001bc0:	00179793          	slli	a5,a5,0x1
    80001bc4:	00f707b3          	add	a5,a4,a5
    80001bc8:	0007d783          	lhu	a5,0(a5)
    80001bcc:	0007879b          	sext.w	a5,a5
    80001bd0:	00078693          	mv	a3,a5
    80001bd4:	00005517          	auipc	a0,0x5
    80001bd8:	37c50513          	addi	a0,a0,892 # 80006f50 <printf_+0x1fc>
    80001bdc:	178050ef          	jal	ra,80006d54 <printf_>
    80001be0:	fde45783          	lhu	a5,-34(s0)
    80001be4:	0007871b          	sext.w	a4,a5
    80001be8:	00070793          	mv	a5,a4
    80001bec:	00379793          	slli	a5,a5,0x3
    80001bf0:	40e787b3          	sub	a5,a5,a4
    80001bf4:	00479793          	slli	a5,a5,0x4
    80001bf8:	fe040693          	addi	a3,s0,-32
    80001bfc:	00f687b3          	add	a5,a3,a5
    80001c00:	fb879783          	lh	a5,-72(a5)
    80001c04:	03079793          	slli	a5,a5,0x30
    80001c08:	0307d793          	srli	a5,a5,0x30
    80001c0c:	0017879b          	addiw	a5,a5,1
    80001c10:	03079793          	slli	a5,a5,0x30
    80001c14:	0307d793          	srli	a5,a5,0x30
    80001c18:	0107969b          	slliw	a3,a5,0x10
    80001c1c:	4106d69b          	sraiw	a3,a3,0x10
    80001c20:	00070793          	mv	a5,a4
    80001c24:	00379793          	slli	a5,a5,0x3
    80001c28:	40e787b3          	sub	a5,a5,a4
    80001c2c:	00479793          	slli	a5,a5,0x4
    80001c30:	fe040713          	addi	a4,s0,-32
    80001c34:	00f707b3          	add	a5,a4,a5
    80001c38:	fad79c23          	sh	a3,-72(a5)
    80001c3c:	fde45783          	lhu	a5,-34(s0)
    80001c40:	0007871b          	sext.w	a4,a5
    80001c44:	00070793          	mv	a5,a4
    80001c48:	00379793          	slli	a5,a5,0x3
    80001c4c:	40e787b3          	sub	a5,a5,a4
    80001c50:	00479793          	slli	a5,a5,0x4
    80001c54:	fe040713          	addi	a4,s0,-32
    80001c58:	00f707b3          	add	a5,a4,a5
    80001c5c:	fb879783          	lh	a5,-72(a5)
    80001c60:	03079713          	slli	a4,a5,0x30
    80001c64:	03075713          	srli	a4,a4,0x30
    80001c68:	fd645783          	lhu	a5,-42(s0)
    80001c6c:	00f707bb          	addw	a5,a4,a5
    80001c70:	03079793          	slli	a5,a5,0x30
    80001c74:	0307d793          	srli	a5,a5,0x30
    80001c78:	fcf41b23          	sh	a5,-42(s0)
    80001c7c:	fde45783          	lhu	a5,-34(s0)
    80001c80:	0017879b          	addiw	a5,a5,1
    80001c84:	fcf41f23          	sh	a5,-34(s0)
    80001c88:	fde45783          	lhu	a5,-34(s0)
    80001c8c:	0007871b          	sext.w	a4,a5
    80001c90:	00006797          	auipc	a5,0x6
    80001c94:	b5078793          	addi	a5,a5,-1200 # 800077e0 <default_num_contexts>
    80001c98:	0007a783          	lw	a5,0(a5)
    80001c9c:	bcf76ae3          	bltu	a4,a5,80001870 <__perf_end+0x1bc>
    80001ca0:	775010ef          	jal	ra,80003c14 <check_data_types>
    80001ca4:	00050793          	mv	a5,a0
    80001ca8:	03079713          	slli	a4,a5,0x30
    80001cac:	03075713          	srli	a4,a4,0x30
    80001cb0:	fd645783          	lhu	a5,-42(s0)
    80001cb4:	00f707bb          	addw	a5,a4,a5
    80001cb8:	03079793          	slli	a5,a5,0x30
    80001cbc:	0307d793          	srli	a5,a5,0x30
    80001cc0:	fcf41b23          	sh	a5,-42(s0)
    80001cc4:	f5842783          	lw	a5,-168(s0)
    80001cc8:	00078593          	mv	a1,a5
    80001ccc:	00005517          	auipc	a0,0x5
    80001cd0:	2b450513          	addi	a0,a0,692 # 80006f80 <printf_+0x22c>
    80001cd4:	080050ef          	jal	ra,80006d54 <printf_>
    80001cd8:	fb042783          	lw	a5,-80(s0)
    80001cdc:	00078593          	mv	a1,a5
    80001ce0:	00005517          	auipc	a0,0x5
    80001ce4:	2b850513          	addi	a0,a0,696 # 80006f98 <printf_+0x244>
    80001ce8:	06c050ef          	jal	ra,80006d54 <printf_>
    80001cec:	fb042783          	lw	a5,-80(s0)
    80001cf0:	00078513          	mv	a0,a5
    80001cf4:	014020ef          	jal	ra,80003d08 <time_in_secs>
    80001cf8:	00050793          	mv	a5,a0
    80001cfc:	0007879b          	sext.w	a5,a5
    80001d00:	00078593          	mv	a1,a5
    80001d04:	00005517          	auipc	a0,0x5
    80001d08:	2ac50513          	addi	a0,a0,684 # 80006fb0 <printf_+0x25c>
    80001d0c:	048050ef          	jal	ra,80006d54 <printf_>
    80001d10:	00006797          	auipc	a5,0x6
    80001d14:	ad078793          	addi	a5,a5,-1328 # 800077e0 <default_num_contexts>
    80001d18:	00200713          	li	a4,2
    80001d1c:	00e7a023          	sw	a4,0(a5)
    80001d20:	fb042783          	lw	a5,-80(s0)
    80001d24:	00078513          	mv	a0,a5
    80001d28:	7e1010ef          	jal	ra,80003d08 <time_in_secs>
    80001d2c:	00050793          	mv	a5,a0
    80001d30:	0007879b          	sext.w	a5,a5
    80001d34:	0a078663          	beqz	a5,80001de0 <__perf_end+0x72c>
    80001d38:	f5c42703          	lw	a4,-164(s0)
    80001d3c:	00006797          	auipc	a5,0x6
    80001d40:	aa478793          	addi	a5,a5,-1372 # 800077e0 <default_num_contexts>
    80001d44:	0007a783          	lw	a5,0(a5)
    80001d48:	02f707bb          	mulw	a5,a4,a5
    80001d4c:	0007871b          	sext.w	a4,a5
    80001d50:	3e800793          	li	a5,1000
    80001d54:	02f707bb          	mulw	a5,a4,a5
    80001d58:	0007849b          	sext.w	s1,a5
    80001d5c:	fb042783          	lw	a5,-80(s0)
    80001d60:	00078513          	mv	a0,a5
    80001d64:	7a5010ef          	jal	ra,80003d08 <time_in_secs>
    80001d68:	00050793          	mv	a5,a0
    80001d6c:	0007879b          	sext.w	a5,a5
    80001d70:	02f4d7bb          	divuw	a5,s1,a5
    80001d74:	0007891b          	sext.w	s2,a5
    80001d78:	f5c42703          	lw	a4,-164(s0)
    80001d7c:	00006797          	auipc	a5,0x6
    80001d80:	a6478793          	addi	a5,a5,-1436 # 800077e0 <default_num_contexts>
    80001d84:	0007a783          	lw	a5,0(a5)
    80001d88:	02f707bb          	mulw	a5,a4,a5
    80001d8c:	0007871b          	sext.w	a4,a5
    80001d90:	000187b7          	lui	a5,0x18
    80001d94:	6a07879b          	addiw	a5,a5,1696 # 186a0 <_start-0x7ffe7960>
    80001d98:	02f707bb          	mulw	a5,a4,a5
    80001d9c:	0007849b          	sext.w	s1,a5
    80001da0:	fb042783          	lw	a5,-80(s0)
    80001da4:	00078513          	mv	a0,a5
    80001da8:	761010ef          	jal	ra,80003d08 <time_in_secs>
    80001dac:	00050793          	mv	a5,a0
    80001db0:	0007879b          	sext.w	a5,a5
    80001db4:	02f4d7bb          	divuw	a5,s1,a5
    80001db8:	0007879b          	sext.w	a5,a5
    80001dbc:	00078713          	mv	a4,a5
    80001dc0:	06400793          	li	a5,100
    80001dc4:	02f777bb          	remuw	a5,a4,a5
    80001dc8:	0007879b          	sext.w	a5,a5
    80001dcc:	00078613          	mv	a2,a5
    80001dd0:	00090593          	mv	a1,s2
    80001dd4:	00005517          	auipc	a0,0x5
    80001dd8:	1f450513          	addi	a0,a0,500 # 80006fc8 <printf_+0x274>
    80001ddc:	779040ef          	jal	ra,80006d54 <printf_>
    80001de0:	fb042783          	lw	a5,-80(s0)
    80001de4:	00078513          	mv	a0,a5
    80001de8:	721010ef          	jal	ra,80003d08 <time_in_secs>
    80001dec:	00050793          	mv	a5,a0
    80001df0:	0007879b          	sext.w	a5,a5
    80001df4:	00078713          	mv	a4,a5
    80001df8:	00900793          	li	a5,9
    80001dfc:	02e7e663          	bltu	a5,a4,80001e28 <__perf_end+0x774>
    80001e00:	00005517          	auipc	a0,0x5
    80001e04:	1e850513          	addi	a0,a0,488 # 80006fe8 <printf_+0x294>
    80001e08:	74d040ef          	jal	ra,80006d54 <printf_>
    80001e0c:	fd641783          	lh	a5,-42(s0)
    80001e10:	03079793          	slli	a5,a5,0x30
    80001e14:	0307d793          	srli	a5,a5,0x30
    80001e18:	0017879b          	addiw	a5,a5,1
    80001e1c:	03079793          	slli	a5,a5,0x30
    80001e20:	0307d793          	srli	a5,a5,0x30
    80001e24:	fcf41b23          	sh	a5,-42(s0)
    80001e28:	f5c42703          	lw	a4,-164(s0)
    80001e2c:	00006797          	auipc	a5,0x6
    80001e30:	9b478793          	addi	a5,a5,-1612 # 800077e0 <default_num_contexts>
    80001e34:	0007a783          	lw	a5,0(a5)
    80001e38:	02f707bb          	mulw	a5,a4,a5
    80001e3c:	0007879b          	sext.w	a5,a5
    80001e40:	00078593          	mv	a1,a5
    80001e44:	00005517          	auipc	a0,0x5
    80001e48:	1e450513          	addi	a0,a0,484 # 80007028 <printf_+0x2d4>
    80001e4c:	709040ef          	jal	ra,80006d54 <printf_>
    80001e50:	00005597          	auipc	a1,0x5
    80001e54:	1f058593          	addi	a1,a1,496 # 80007040 <printf_+0x2ec>
    80001e58:	00005517          	auipc	a0,0x5
    80001e5c:	1f850513          	addi	a0,a0,504 # 80007050 <printf_+0x2fc>
    80001e60:	6f5040ef          	jal	ra,80006d54 <printf_>
    80001e64:	00005597          	auipc	a1,0x5
    80001e68:	20458593          	addi	a1,a1,516 # 80007068 <printf_+0x314>
    80001e6c:	00005517          	auipc	a0,0x5
    80001e70:	20450513          	addi	a0,a0,516 # 80007070 <printf_+0x31c>
    80001e74:	6e1040ef          	jal	ra,80006d54 <printf_>
    80001e78:	00005597          	auipc	a1,0x5
    80001e7c:	21058593          	addi	a1,a1,528 # 80007088 <printf_+0x334>
    80001e80:	00005517          	auipc	a0,0x5
    80001e84:	21050513          	addi	a0,a0,528 # 80007090 <printf_+0x33c>
    80001e88:	6cd040ef          	jal	ra,80006d54 <printf_>
    80001e8c:	fba45783          	lhu	a5,-70(s0)
    80001e90:	0007879b          	sext.w	a5,a5
    80001e94:	00078593          	mv	a1,a5
    80001e98:	00005517          	auipc	a0,0x5
    80001e9c:	21050513          	addi	a0,a0,528 # 800070a8 <printf_+0x354>
    80001ea0:	6b5040ef          	jal	ra,80006d54 <printf_>
    80001ea4:	00006797          	auipc	a5,0x6
    80001ea8:	93c78793          	addi	a5,a5,-1732 # 800077e0 <default_num_contexts>
    80001eac:	00100713          	li	a4,1
    80001eb0:	00e7a023          	sw	a4,0(a5)
    80001eb4:	f6042783          	lw	a5,-160(s0)
    80001eb8:	0017f793          	andi	a5,a5,1
    80001ebc:	0007879b          	sext.w	a5,a5
    80001ec0:	06078a63          	beqz	a5,80001f34 <__perf_end+0x880>
    80001ec4:	fc041f23          	sh	zero,-34(s0)
    80001ec8:	0540006f          	j	80001f1c <__perf_end+0x868>
    80001ecc:	fde45783          	lhu	a5,-34(s0)
    80001ed0:	0007869b          	sext.w	a3,a5
    80001ed4:	fde45783          	lhu	a5,-34(s0)
    80001ed8:	0007871b          	sext.w	a4,a5
    80001edc:	00070793          	mv	a5,a4
    80001ee0:	00379793          	slli	a5,a5,0x3
    80001ee4:	40e787b3          	sub	a5,a5,a4
    80001ee8:	00479793          	slli	a5,a5,0x4
    80001eec:	fe040713          	addi	a4,s0,-32
    80001ef0:	00f707b3          	add	a5,a4,a5
    80001ef4:	fb27d783          	lhu	a5,-78(a5)
    80001ef8:	0007879b          	sext.w	a5,a5
    80001efc:	00078613          	mv	a2,a5
    80001f00:	00068593          	mv	a1,a3
    80001f04:	00005517          	auipc	a0,0x5
    80001f08:	1c450513          	addi	a0,a0,452 # 800070c8 <printf_+0x374>
    80001f0c:	649040ef          	jal	ra,80006d54 <printf_>
    80001f10:	fde45783          	lhu	a5,-34(s0)
    80001f14:	0017879b          	addiw	a5,a5,1
    80001f18:	fcf41f23          	sh	a5,-34(s0)
    80001f1c:	fde45783          	lhu	a5,-34(s0)
    80001f20:	0007871b          	sext.w	a4,a5
    80001f24:	00006797          	auipc	a5,0x6
    80001f28:	8bc78793          	addi	a5,a5,-1860 # 800077e0 <default_num_contexts>
    80001f2c:	0007a783          	lw	a5,0(a5)
    80001f30:	f8f76ee3          	bltu	a4,a5,80001ecc <__perf_end+0x818>
    80001f34:	f6042783          	lw	a5,-160(s0)
    80001f38:	0027f793          	andi	a5,a5,2
    80001f3c:	0007879b          	sext.w	a5,a5
    80001f40:	06078a63          	beqz	a5,80001fb4 <__perf_end+0x900>
    80001f44:	fc041f23          	sh	zero,-34(s0)
    80001f48:	0540006f          	j	80001f9c <__perf_end+0x8e8>
    80001f4c:	fde45783          	lhu	a5,-34(s0)
    80001f50:	0007869b          	sext.w	a3,a5
    80001f54:	fde45783          	lhu	a5,-34(s0)
    80001f58:	0007871b          	sext.w	a4,a5
    80001f5c:	00070793          	mv	a5,a4
    80001f60:	00379793          	slli	a5,a5,0x3
    80001f64:	40e787b3          	sub	a5,a5,a4
    80001f68:	00479793          	slli	a5,a5,0x4
    80001f6c:	fe040713          	addi	a4,s0,-32
    80001f70:	00f707b3          	add	a5,a4,a5
    80001f74:	fb47d783          	lhu	a5,-76(a5)
    80001f78:	0007879b          	sext.w	a5,a5
    80001f7c:	00078613          	mv	a2,a5
    80001f80:	00068593          	mv	a1,a3
    80001f84:	00005517          	auipc	a0,0x5
    80001f88:	16450513          	addi	a0,a0,356 # 800070e8 <printf_+0x394>
    80001f8c:	5c9040ef          	jal	ra,80006d54 <printf_>
    80001f90:	fde45783          	lhu	a5,-34(s0)
    80001f94:	0017879b          	addiw	a5,a5,1
    80001f98:	fcf41f23          	sh	a5,-34(s0)
    80001f9c:	fde45783          	lhu	a5,-34(s0)
    80001fa0:	0007871b          	sext.w	a4,a5
    80001fa4:	00006797          	auipc	a5,0x6
    80001fa8:	83c78793          	addi	a5,a5,-1988 # 800077e0 <default_num_contexts>
    80001fac:	0007a783          	lw	a5,0(a5)
    80001fb0:	f8f76ee3          	bltu	a4,a5,80001f4c <__perf_end+0x898>
    80001fb4:	f6042783          	lw	a5,-160(s0)
    80001fb8:	0047f793          	andi	a5,a5,4
    80001fbc:	0007879b          	sext.w	a5,a5
    80001fc0:	06078a63          	beqz	a5,80002034 <__perf_end+0x980>
    80001fc4:	fc041f23          	sh	zero,-34(s0)
    80001fc8:	0540006f          	j	8000201c <__perf_end+0x968>
    80001fcc:	fde45783          	lhu	a5,-34(s0)
    80001fd0:	0007869b          	sext.w	a3,a5
    80001fd4:	fde45783          	lhu	a5,-34(s0)
    80001fd8:	0007871b          	sext.w	a4,a5
    80001fdc:	00070793          	mv	a5,a4
    80001fe0:	00379793          	slli	a5,a5,0x3
    80001fe4:	40e787b3          	sub	a5,a5,a4
    80001fe8:	00479793          	slli	a5,a5,0x4
    80001fec:	fe040713          	addi	a4,s0,-32
    80001ff0:	00f707b3          	add	a5,a4,a5
    80001ff4:	fb67d783          	lhu	a5,-74(a5)
    80001ff8:	0007879b          	sext.w	a5,a5
    80001ffc:	00078613          	mv	a2,a5
    80002000:	00068593          	mv	a1,a3
    80002004:	00005517          	auipc	a0,0x5
    80002008:	10450513          	addi	a0,a0,260 # 80007108 <printf_+0x3b4>
    8000200c:	549040ef          	jal	ra,80006d54 <printf_>
    80002010:	fde45783          	lhu	a5,-34(s0)
    80002014:	0017879b          	addiw	a5,a5,1
    80002018:	fcf41f23          	sh	a5,-34(s0)
    8000201c:	fde45783          	lhu	a5,-34(s0)
    80002020:	0007871b          	sext.w	a4,a5
    80002024:	00005797          	auipc	a5,0x5
    80002028:	7bc78793          	addi	a5,a5,1980 # 800077e0 <default_num_contexts>
    8000202c:	0007a783          	lw	a5,0(a5)
    80002030:	f8f76ee3          	bltu	a4,a5,80001fcc <__perf_end+0x918>
    80002034:	fc041f23          	sh	zero,-34(s0)
    80002038:	0540006f          	j	8000208c <__perf_end+0x9d8>
    8000203c:	fde45783          	lhu	a5,-34(s0)
    80002040:	0007869b          	sext.w	a3,a5
    80002044:	fde45783          	lhu	a5,-34(s0)
    80002048:	0007871b          	sext.w	a4,a5
    8000204c:	00070793          	mv	a5,a4
    80002050:	00379793          	slli	a5,a5,0x3
    80002054:	40e787b3          	sub	a5,a5,a4
    80002058:	00479793          	slli	a5,a5,0x4
    8000205c:	fe040713          	addi	a4,s0,-32
    80002060:	00f707b3          	add	a5,a4,a5
    80002064:	fb07d783          	lhu	a5,-80(a5)
    80002068:	0007879b          	sext.w	a5,a5
    8000206c:	00078613          	mv	a2,a5
    80002070:	00068593          	mv	a1,a3
    80002074:	00005517          	auipc	a0,0x5
    80002078:	0b450513          	addi	a0,a0,180 # 80007128 <printf_+0x3d4>
    8000207c:	4d9040ef          	jal	ra,80006d54 <printf_>
    80002080:	fde45783          	lhu	a5,-34(s0)
    80002084:	0017879b          	addiw	a5,a5,1
    80002088:	fcf41f23          	sh	a5,-34(s0)
    8000208c:	fde45783          	lhu	a5,-34(s0)
    80002090:	0007871b          	sext.w	a4,a5
    80002094:	00005797          	auipc	a5,0x5
    80002098:	74c78793          	addi	a5,a5,1868 # 800077e0 <default_num_contexts>
    8000209c:	0007a783          	lw	a5,0(a5)
    800020a0:	f8f76ee3          	bltu	a4,a5,8000203c <__perf_end+0x988>
    800020a4:	fd641783          	lh	a5,-42(s0)
    800020a8:	0007879b          	sext.w	a5,a5
    800020ac:	00079863          	bnez	a5,800020bc <__perf_end+0xa08>
    800020b0:	00005517          	auipc	a0,0x5
    800020b4:	09850513          	addi	a0,a0,152 # 80007148 <printf_+0x3f4>
    800020b8:	49d040ef          	jal	ra,80006d54 <printf_>
    800020bc:	fd641783          	lh	a5,-42(s0)
    800020c0:	0007879b          	sext.w	a5,a5
    800020c4:	00f05863          	blez	a5,800020d4 <__perf_end+0xa20>
    800020c8:	00005517          	auipc	a0,0x5
    800020cc:	0d050513          	addi	a0,a0,208 # 80007198 <printf_+0x444>
    800020d0:	485040ef          	jal	ra,80006d54 <printf_>
    800020d4:	fd641783          	lh	a5,-42(s0)
    800020d8:	0007879b          	sext.w	a5,a5
    800020dc:	0007d863          	bgez	a5,800020ec <__perf_end+0xa38>
    800020e0:	00005517          	auipc	a0,0x5
    800020e4:	0d050513          	addi	a0,a0,208 # 800071b0 <printf_+0x45c>
    800020e8:	46d040ef          	jal	ra,80006d54 <printf_>
    800020ec:	f3040793          	addi	a5,s0,-208
    800020f0:	06a78793          	addi	a5,a5,106
    800020f4:	00078513          	mv	a0,a5
    800020f8:	47d010ef          	jal	ra,80003d74 <portable_fini>
    800020fc:	00000793          	li	a5,0
    80002100:	00078513          	mv	a0,a5
    80002104:	0c813083          	ld	ra,200(sp)
    80002108:	0c013403          	ld	s0,192(sp)
    8000210c:	0b813483          	ld	s1,184(sp)
    80002110:	0b013903          	ld	s2,176(sp)
    80002114:	0d010113          	addi	sp,sp,208
    80002118:	00008067          	ret

000000008000211c <core_bench_matrix>:
    8000211c:	fb010113          	addi	sp,sp,-80
    80002120:	04113423          	sd	ra,72(sp)
    80002124:	04813023          	sd	s0,64(sp)
    80002128:	05010413          	addi	s0,sp,80
    8000212c:	faa43c23          	sd	a0,-72(s0)
    80002130:	00058793          	mv	a5,a1
    80002134:	00060713          	mv	a4,a2
    80002138:	faf41b23          	sh	a5,-74(s0)
    8000213c:	00070793          	mv	a5,a4
    80002140:	faf41a23          	sh	a5,-76(s0)
    80002144:	fb843783          	ld	a5,-72(s0)
    80002148:	0007a783          	lw	a5,0(a5)
    8000214c:	fef42623          	sw	a5,-20(s0)
    80002150:	fb843783          	ld	a5,-72(s0)
    80002154:	0187b783          	ld	a5,24(a5)
    80002158:	fef43023          	sd	a5,-32(s0)
    8000215c:	fb843783          	ld	a5,-72(s0)
    80002160:	0087b783          	ld	a5,8(a5)
    80002164:	fcf43c23          	sd	a5,-40(s0)
    80002168:	fb843783          	ld	a5,-72(s0)
    8000216c:	0107b783          	ld	a5,16(a5)
    80002170:	fcf43823          	sd	a5,-48(s0)
    80002174:	fb645783          	lhu	a5,-74(s0)
    80002178:	fcf41723          	sh	a5,-50(s0)
    8000217c:	fce41703          	lh	a4,-50(s0)
    80002180:	fec42783          	lw	a5,-20(s0)
    80002184:	fd043683          	ld	a3,-48(s0)
    80002188:	fd843603          	ld	a2,-40(s0)
    8000218c:	fe043583          	ld	a1,-32(s0)
    80002190:	00078513          	mv	a0,a5
    80002194:	03c000ef          	jal	ra,800021d0 <matrix_test>
    80002198:	00050793          	mv	a5,a0
    8000219c:	00078713          	mv	a4,a5
    800021a0:	fb445783          	lhu	a5,-76(s0)
    800021a4:	00078593          	mv	a1,a5
    800021a8:	00070513          	mv	a0,a4
    800021ac:	219010ef          	jal	ra,80003bc4 <crc16>
    800021b0:	00050793          	mv	a5,a0
    800021b4:	faf41a23          	sh	a5,-76(s0)
    800021b8:	fb445783          	lhu	a5,-76(s0)
    800021bc:	00078513          	mv	a0,a5
    800021c0:	04813083          	ld	ra,72(sp)
    800021c4:	04013403          	ld	s0,64(sp)
    800021c8:	05010113          	addi	sp,sp,80
    800021cc:	00008067          	ret

00000000800021d0 <matrix_test>:
    800021d0:	fc010113          	addi	sp,sp,-64
    800021d4:	02113c23          	sd	ra,56(sp)
    800021d8:	02813823          	sd	s0,48(sp)
    800021dc:	04010413          	addi	s0,sp,64
    800021e0:	00050793          	mv	a5,a0
    800021e4:	fcb43823          	sd	a1,-48(s0)
    800021e8:	fcc43423          	sd	a2,-56(s0)
    800021ec:	fcd43023          	sd	a3,-64(s0)
    800021f0:	fcf42e23          	sw	a5,-36(s0)
    800021f4:	00070793          	mv	a5,a4
    800021f8:	fcf41d23          	sh	a5,-38(s0)
    800021fc:	fe041723          	sh	zero,-18(s0)
    80002200:	fda45703          	lhu	a4,-38(s0)
    80002204:	fffff7b7          	lui	a5,0xfffff
    80002208:	00f767b3          	or	a5,a4,a5
    8000220c:	fef41623          	sh	a5,-20(s0)
    80002210:	fda41703          	lh	a4,-38(s0)
    80002214:	fdc42783          	lw	a5,-36(s0)
    80002218:	00070613          	mv	a2,a4
    8000221c:	fc843583          	ld	a1,-56(s0)
    80002220:	00078513          	mv	a0,a5
    80002224:	670000ef          	jal	ra,80002894 <matrix_add_const>
    80002228:	fda41703          	lh	a4,-38(s0)
    8000222c:	fdc42783          	lw	a5,-36(s0)
    80002230:	00070693          	mv	a3,a4
    80002234:	fc843603          	ld	a2,-56(s0)
    80002238:	fd043583          	ld	a1,-48(s0)
    8000223c:	00078513          	mv	a0,a5
    80002240:	54c000ef          	jal	ra,8000278c <matrix_mul_const>
    80002244:	fec41703          	lh	a4,-20(s0)
    80002248:	fdc42783          	lw	a5,-36(s0)
    8000224c:	00070613          	mv	a2,a4
    80002250:	fd043583          	ld	a1,-48(s0)
    80002254:	00078513          	mv	a0,a5
    80002258:	3e8000ef          	jal	ra,80002640 <matrix_sum>
    8000225c:	00050793          	mv	a5,a0
    80002260:	00078713          	mv	a4,a5
    80002264:	fee45783          	lhu	a5,-18(s0)
    80002268:	00078593          	mv	a1,a5
    8000226c:	00070513          	mv	a0,a4
    80002270:	155010ef          	jal	ra,80003bc4 <crc16>
    80002274:	00050793          	mv	a5,a0
    80002278:	fef41723          	sh	a5,-18(s0)
    8000227c:	fdc42783          	lw	a5,-36(s0)
    80002280:	fc043683          	ld	a3,-64(s0)
    80002284:	fc843603          	ld	a2,-56(s0)
    80002288:	fd043583          	ld	a1,-48(s0)
    8000228c:	00078513          	mv	a0,a5
    80002290:	714000ef          	jal	ra,800029a4 <matrix_mul_vect>
    80002294:	fec41703          	lh	a4,-20(s0)
    80002298:	fdc42783          	lw	a5,-36(s0)
    8000229c:	00070613          	mv	a2,a4
    800022a0:	fd043583          	ld	a1,-48(s0)
    800022a4:	00078513          	mv	a0,a5
    800022a8:	398000ef          	jal	ra,80002640 <matrix_sum>
    800022ac:	00050793          	mv	a5,a0
    800022b0:	00078713          	mv	a4,a5
    800022b4:	fee45783          	lhu	a5,-18(s0)
    800022b8:	00078593          	mv	a1,a5
    800022bc:	00070513          	mv	a0,a4
    800022c0:	105010ef          	jal	ra,80003bc4 <crc16>
    800022c4:	00050793          	mv	a5,a0
    800022c8:	fef41723          	sh	a5,-18(s0)
    800022cc:	fdc42783          	lw	a5,-36(s0)
    800022d0:	fc043683          	ld	a3,-64(s0)
    800022d4:	fc843603          	ld	a2,-56(s0)
    800022d8:	fd043583          	ld	a1,-48(s0)
    800022dc:	00078513          	mv	a0,a5
    800022e0:	7e4000ef          	jal	ra,80002ac4 <matrix_mul_matrix>
    800022e4:	fec41703          	lh	a4,-20(s0)
    800022e8:	fdc42783          	lw	a5,-36(s0)
    800022ec:	00070613          	mv	a2,a4
    800022f0:	fd043583          	ld	a1,-48(s0)
    800022f4:	00078513          	mv	a0,a5
    800022f8:	348000ef          	jal	ra,80002640 <matrix_sum>
    800022fc:	00050793          	mv	a5,a0
    80002300:	00078713          	mv	a4,a5
    80002304:	fee45783          	lhu	a5,-18(s0)
    80002308:	00078593          	mv	a1,a5
    8000230c:	00070513          	mv	a0,a4
    80002310:	0b5010ef          	jal	ra,80003bc4 <crc16>
    80002314:	00050793          	mv	a5,a0
    80002318:	fef41723          	sh	a5,-18(s0)
    8000231c:	fdc42783          	lw	a5,-36(s0)
    80002320:	fc043683          	ld	a3,-64(s0)
    80002324:	fc843603          	ld	a2,-56(s0)
    80002328:	fd043583          	ld	a1,-48(s0)
    8000232c:	00078513          	mv	a0,a5
    80002330:	15d000ef          	jal	ra,80002c8c <matrix_mul_matrix_bitextract>
    80002334:	fec41703          	lh	a4,-20(s0)
    80002338:	fdc42783          	lw	a5,-36(s0)
    8000233c:	00070613          	mv	a2,a4
    80002340:	fd043583          	ld	a1,-48(s0)
    80002344:	00078513          	mv	a0,a5
    80002348:	2f8000ef          	jal	ra,80002640 <matrix_sum>
    8000234c:	00050793          	mv	a5,a0
    80002350:	00078713          	mv	a4,a5
    80002354:	fee45783          	lhu	a5,-18(s0)
    80002358:	00078593          	mv	a1,a5
    8000235c:	00070513          	mv	a0,a4
    80002360:	065010ef          	jal	ra,80003bc4 <crc16>
    80002364:	00050793          	mv	a5,a0
    80002368:	fef41723          	sh	a5,-18(s0)
    8000236c:	fda45783          	lhu	a5,-38(s0)
    80002370:	40f007bb          	negw	a5,a5
    80002374:	03079793          	slli	a5,a5,0x30
    80002378:	0307d793          	srli	a5,a5,0x30
    8000237c:	0107971b          	slliw	a4,a5,0x10
    80002380:	4107571b          	sraiw	a4,a4,0x10
    80002384:	fdc42783          	lw	a5,-36(s0)
    80002388:	00070613          	mv	a2,a4
    8000238c:	fc843583          	ld	a1,-56(s0)
    80002390:	00078513          	mv	a0,a5
    80002394:	500000ef          	jal	ra,80002894 <matrix_add_const>
    80002398:	fee41783          	lh	a5,-18(s0)
    8000239c:	00078513          	mv	a0,a5
    800023a0:	03813083          	ld	ra,56(sp)
    800023a4:	03013403          	ld	s0,48(sp)
    800023a8:	04010113          	addi	sp,sp,64
    800023ac:	00008067          	ret

00000000800023b0 <core_init_matrix>:
    800023b0:	fa010113          	addi	sp,sp,-96
    800023b4:	04813c23          	sd	s0,88(sp)
    800023b8:	06010413          	addi	s0,sp,96
    800023bc:	00050793          	mv	a5,a0
    800023c0:	fab43823          	sd	a1,-80(s0)
    800023c4:	00060713          	mv	a4,a2
    800023c8:	fad43423          	sd	a3,-88(s0)
    800023cc:	faf42e23          	sw	a5,-68(s0)
    800023d0:	00070793          	mv	a5,a4
    800023d4:	faf42c23          	sw	a5,-72(s0)
    800023d8:	fe042023          	sw	zero,-32(s0)
    800023dc:	00100793          	li	a5,1
    800023e0:	fef42623          	sw	a5,-20(s0)
    800023e4:	fe042423          	sw	zero,-24(s0)
    800023e8:	fe042223          	sw	zero,-28(s0)
    800023ec:	fb842783          	lw	a5,-72(s0)
    800023f0:	0007879b          	sext.w	a5,a5
    800023f4:	02079863          	bnez	a5,80002424 <core_init_matrix+0x74>
    800023f8:	00100793          	li	a5,1
    800023fc:	faf42c23          	sw	a5,-72(s0)
    80002400:	0240006f          	j	80002424 <core_init_matrix+0x74>
    80002404:	fe842783          	lw	a5,-24(s0)
    80002408:	0017879b          	addiw	a5,a5,1 # fffffffffffff001 <_pmem_end+0xffffffff77fff001>
    8000240c:	fef42423          	sw	a5,-24(s0)
    80002410:	fe842783          	lw	a5,-24(s0)
    80002414:	02f787bb          	mulw	a5,a5,a5
    80002418:	0007879b          	sext.w	a5,a5
    8000241c:	0037979b          	slliw	a5,a5,0x3
    80002420:	fef42223          	sw	a5,-28(s0)
    80002424:	fe442703          	lw	a4,-28(s0)
    80002428:	fbc42783          	lw	a5,-68(s0)
    8000242c:	0007071b          	sext.w	a4,a4
    80002430:	0007879b          	sext.w	a5,a5
    80002434:	fcf768e3          	bltu	a4,a5,80002404 <core_init_matrix+0x54>
    80002438:	fe842783          	lw	a5,-24(s0)
    8000243c:	fff7879b          	addiw	a5,a5,-1
    80002440:	fef42023          	sw	a5,-32(s0)
    80002444:	fb043783          	ld	a5,-80(s0)
    80002448:	fff78793          	addi	a5,a5,-1
    8000244c:	ffc7f793          	andi	a5,a5,-4
    80002450:	00478793          	addi	a5,a5,4
    80002454:	fcf43c23          	sd	a5,-40(s0)
    80002458:	fe042783          	lw	a5,-32(s0)
    8000245c:	02f787bb          	mulw	a5,a5,a5
    80002460:	0007879b          	sext.w	a5,a5
    80002464:	02079793          	slli	a5,a5,0x20
    80002468:	0207d793          	srli	a5,a5,0x20
    8000246c:	00179793          	slli	a5,a5,0x1
    80002470:	fd843703          	ld	a4,-40(s0)
    80002474:	00f707b3          	add	a5,a4,a5
    80002478:	fcf43823          	sd	a5,-48(s0)
    8000247c:	fe042423          	sw	zero,-24(s0)
    80002480:	13c0006f          	j	800025bc <core_init_matrix+0x20c>
    80002484:	fe042223          	sw	zero,-28(s0)
    80002488:	1140006f          	j	8000259c <core_init_matrix+0x1ec>
    8000248c:	fec42703          	lw	a4,-20(s0)
    80002490:	fb842783          	lw	a5,-72(s0)
    80002494:	02f707bb          	mulw	a5,a4,a5
    80002498:	0007879b          	sext.w	a5,a5
    8000249c:	00078713          	mv	a4,a5
    800024a0:	41f7579b          	sraiw	a5,a4,0x1f
    800024a4:	0107d79b          	srliw	a5,a5,0x10
    800024a8:	00f706bb          	addw	a3,a4,a5
    800024ac:	00010737          	lui	a4,0x10
    800024b0:	fff70713          	addi	a4,a4,-1 # ffff <_start-0x7fff0001>
    800024b4:	00e6f733          	and	a4,a3,a4
    800024b8:	40f707bb          	subw	a5,a4,a5
    800024bc:	faf42c23          	sw	a5,-72(s0)
    800024c0:	fb842783          	lw	a5,-72(s0)
    800024c4:	03079713          	slli	a4,a5,0x30
    800024c8:	03075713          	srli	a4,a4,0x30
    800024cc:	fec42783          	lw	a5,-20(s0)
    800024d0:	03079793          	slli	a5,a5,0x30
    800024d4:	0307d793          	srli	a5,a5,0x30
    800024d8:	00f707bb          	addw	a5,a4,a5
    800024dc:	03079793          	slli	a5,a5,0x30
    800024e0:	0307d793          	srli	a5,a5,0x30
    800024e4:	fcf41723          	sh	a5,-50(s0)
    800024e8:	fe842703          	lw	a4,-24(s0)
    800024ec:	fe042783          	lw	a5,-32(s0)
    800024f0:	02f707bb          	mulw	a5,a4,a5
    800024f4:	0007879b          	sext.w	a5,a5
    800024f8:	fe442703          	lw	a4,-28(s0)
    800024fc:	00f707bb          	addw	a5,a4,a5
    80002500:	0007879b          	sext.w	a5,a5
    80002504:	02079793          	slli	a5,a5,0x20
    80002508:	0207d793          	srli	a5,a5,0x20
    8000250c:	00179793          	slli	a5,a5,0x1
    80002510:	fd043703          	ld	a4,-48(s0)
    80002514:	00f707b3          	add	a5,a4,a5
    80002518:	fce45703          	lhu	a4,-50(s0)
    8000251c:	00e79023          	sh	a4,0(a5)
    80002520:	fec42783          	lw	a5,-20(s0)
    80002524:	03079713          	slli	a4,a5,0x30
    80002528:	03075713          	srli	a4,a4,0x30
    8000252c:	fce45783          	lhu	a5,-50(s0)
    80002530:	00f707bb          	addw	a5,a4,a5
    80002534:	03079793          	slli	a5,a5,0x30
    80002538:	0307d793          	srli	a5,a5,0x30
    8000253c:	fcf41723          	sh	a5,-50(s0)
    80002540:	fce45783          	lhu	a5,-50(s0)
    80002544:	0ff7f793          	zext.b	a5,a5
    80002548:	fcf41723          	sh	a5,-50(s0)
    8000254c:	fe842703          	lw	a4,-24(s0)
    80002550:	fe042783          	lw	a5,-32(s0)
    80002554:	02f707bb          	mulw	a5,a4,a5
    80002558:	0007879b          	sext.w	a5,a5
    8000255c:	fe442703          	lw	a4,-28(s0)
    80002560:	00f707bb          	addw	a5,a4,a5
    80002564:	0007879b          	sext.w	a5,a5
    80002568:	02079793          	slli	a5,a5,0x20
    8000256c:	0207d793          	srli	a5,a5,0x20
    80002570:	00179793          	slli	a5,a5,0x1
    80002574:	fd843703          	ld	a4,-40(s0)
    80002578:	00f707b3          	add	a5,a4,a5
    8000257c:	fce45703          	lhu	a4,-50(s0)
    80002580:	00e79023          	sh	a4,0(a5)
    80002584:	fec42783          	lw	a5,-20(s0)
    80002588:	0017879b          	addiw	a5,a5,1
    8000258c:	fef42623          	sw	a5,-20(s0)
    80002590:	fe442783          	lw	a5,-28(s0)
    80002594:	0017879b          	addiw	a5,a5,1
    80002598:	fef42223          	sw	a5,-28(s0)
    8000259c:	fe442703          	lw	a4,-28(s0)
    800025a0:	fe042783          	lw	a5,-32(s0)
    800025a4:	0007071b          	sext.w	a4,a4
    800025a8:	0007879b          	sext.w	a5,a5
    800025ac:	eef760e3          	bltu	a4,a5,8000248c <core_init_matrix+0xdc>
    800025b0:	fe842783          	lw	a5,-24(s0)
    800025b4:	0017879b          	addiw	a5,a5,1
    800025b8:	fef42423          	sw	a5,-24(s0)
    800025bc:	fe842703          	lw	a4,-24(s0)
    800025c0:	fe042783          	lw	a5,-32(s0)
    800025c4:	0007071b          	sext.w	a4,a4
    800025c8:	0007879b          	sext.w	a5,a5
    800025cc:	eaf76ce3          	bltu	a4,a5,80002484 <core_init_matrix+0xd4>
    800025d0:	fa843783          	ld	a5,-88(s0)
    800025d4:	fd843703          	ld	a4,-40(s0)
    800025d8:	00e7b423          	sd	a4,8(a5)
    800025dc:	fa843783          	ld	a5,-88(s0)
    800025e0:	fd043703          	ld	a4,-48(s0)
    800025e4:	00e7b823          	sd	a4,16(a5)
    800025e8:	fe042783          	lw	a5,-32(s0)
    800025ec:	02f787bb          	mulw	a5,a5,a5
    800025f0:	0007879b          	sext.w	a5,a5
    800025f4:	02079793          	slli	a5,a5,0x20
    800025f8:	0207d793          	srli	a5,a5,0x20
    800025fc:	00179793          	slli	a5,a5,0x1
    80002600:	fd043703          	ld	a4,-48(s0)
    80002604:	00f707b3          	add	a5,a4,a5
    80002608:	fff78793          	addi	a5,a5,-1
    8000260c:	ffc7f793          	andi	a5,a5,-4
    80002610:	00478793          	addi	a5,a5,4
    80002614:	00078713          	mv	a4,a5
    80002618:	fa843783          	ld	a5,-88(s0)
    8000261c:	00e7bc23          	sd	a4,24(a5)
    80002620:	fe042703          	lw	a4,-32(s0)
    80002624:	fa843783          	ld	a5,-88(s0)
    80002628:	00e7a023          	sw	a4,0(a5)
    8000262c:	fe042783          	lw	a5,-32(s0)
    80002630:	00078513          	mv	a0,a5
    80002634:	05813403          	ld	s0,88(sp)
    80002638:	06010113          	addi	sp,sp,96
    8000263c:	00008067          	ret

0000000080002640 <matrix_sum>:
    80002640:	fc010113          	addi	sp,sp,-64
    80002644:	02813c23          	sd	s0,56(sp)
    80002648:	04010413          	addi	s0,sp,64
    8000264c:	00050793          	mv	a5,a0
    80002650:	fcb43023          	sd	a1,-64(s0)
    80002654:	00060713          	mv	a4,a2
    80002658:	fcf42623          	sw	a5,-52(s0)
    8000265c:	00070793          	mv	a5,a4
    80002660:	fcf41523          	sh	a5,-54(s0)
    80002664:	fe042623          	sw	zero,-20(s0)
    80002668:	fe042423          	sw	zero,-24(s0)
    8000266c:	fc042c23          	sw	zero,-40(s0)
    80002670:	fe041323          	sh	zero,-26(s0)
    80002674:	fe042023          	sw	zero,-32(s0)
    80002678:	0ec0006f          	j	80002764 <matrix_sum+0x124>
    8000267c:	fc042e23          	sw	zero,-36(s0)
    80002680:	0c40006f          	j	80002744 <matrix_sum+0x104>
    80002684:	fe042703          	lw	a4,-32(s0)
    80002688:	fcc42783          	lw	a5,-52(s0)
    8000268c:	02f707bb          	mulw	a5,a4,a5
    80002690:	0007879b          	sext.w	a5,a5
    80002694:	fdc42703          	lw	a4,-36(s0)
    80002698:	00f707bb          	addw	a5,a4,a5
    8000269c:	0007879b          	sext.w	a5,a5
    800026a0:	02079793          	slli	a5,a5,0x20
    800026a4:	0207d793          	srli	a5,a5,0x20
    800026a8:	00279793          	slli	a5,a5,0x2
    800026ac:	fc043703          	ld	a4,-64(s0)
    800026b0:	00f707b3          	add	a5,a4,a5
    800026b4:	0007a783          	lw	a5,0(a5)
    800026b8:	fcf42c23          	sw	a5,-40(s0)
    800026bc:	fec42703          	lw	a4,-20(s0)
    800026c0:	fd842783          	lw	a5,-40(s0)
    800026c4:	00f707bb          	addw	a5,a4,a5
    800026c8:	fef42623          	sw	a5,-20(s0)
    800026cc:	fca41783          	lh	a5,-54(s0)
    800026d0:	0007871b          	sext.w	a4,a5
    800026d4:	fec42783          	lw	a5,-20(s0)
    800026d8:	0007879b          	sext.w	a5,a5
    800026dc:	02f75063          	bge	a4,a5,800026fc <matrix_sum+0xbc>
    800026e0:	fe645783          	lhu	a5,-26(s0)
    800026e4:	00a7879b          	addiw	a5,a5,10
    800026e8:	03079793          	slli	a5,a5,0x30
    800026ec:	0307d793          	srli	a5,a5,0x30
    800026f0:	fef41323          	sh	a5,-26(s0)
    800026f4:	fe042623          	sw	zero,-20(s0)
    800026f8:	0380006f          	j	80002730 <matrix_sum+0xf0>
    800026fc:	fd842703          	lw	a4,-40(s0)
    80002700:	fe842783          	lw	a5,-24(s0)
    80002704:	0007071b          	sext.w	a4,a4
    80002708:	0007879b          	sext.w	a5,a5
    8000270c:	00e7a7b3          	slt	a5,a5,a4
    80002710:	0ff7f793          	zext.b	a5,a5
    80002714:	03079713          	slli	a4,a5,0x30
    80002718:	03075713          	srli	a4,a4,0x30
    8000271c:	fe645783          	lhu	a5,-26(s0)
    80002720:	00f707bb          	addw	a5,a4,a5
    80002724:	03079793          	slli	a5,a5,0x30
    80002728:	0307d793          	srli	a5,a5,0x30
    8000272c:	fef41323          	sh	a5,-26(s0)
    80002730:	fd842783          	lw	a5,-40(s0)
    80002734:	fef42423          	sw	a5,-24(s0)
    80002738:	fdc42783          	lw	a5,-36(s0)
    8000273c:	0017879b          	addiw	a5,a5,1
    80002740:	fcf42e23          	sw	a5,-36(s0)
    80002744:	fdc42703          	lw	a4,-36(s0)
    80002748:	fcc42783          	lw	a5,-52(s0)
    8000274c:	0007071b          	sext.w	a4,a4
    80002750:	0007879b          	sext.w	a5,a5
    80002754:	f2f768e3          	bltu	a4,a5,80002684 <matrix_sum+0x44>
    80002758:	fe042783          	lw	a5,-32(s0)
    8000275c:	0017879b          	addiw	a5,a5,1
    80002760:	fef42023          	sw	a5,-32(s0)
    80002764:	fe042703          	lw	a4,-32(s0)
    80002768:	fcc42783          	lw	a5,-52(s0)
    8000276c:	0007071b          	sext.w	a4,a4
    80002770:	0007879b          	sext.w	a5,a5
    80002774:	f0f764e3          	bltu	a4,a5,8000267c <matrix_sum+0x3c>
    80002778:	fe641783          	lh	a5,-26(s0)
    8000277c:	00078513          	mv	a0,a5
    80002780:	03813403          	ld	s0,56(sp)
    80002784:	04010113          	addi	sp,sp,64
    80002788:	00008067          	ret

000000008000278c <matrix_mul_const>:
    8000278c:	fc010113          	addi	sp,sp,-64
    80002790:	02813c23          	sd	s0,56(sp)
    80002794:	04010413          	addi	s0,sp,64
    80002798:	00050793          	mv	a5,a0
    8000279c:	fcb43823          	sd	a1,-48(s0)
    800027a0:	fcc43423          	sd	a2,-56(s0)
    800027a4:	00068713          	mv	a4,a3
    800027a8:	fcf42e23          	sw	a5,-36(s0)
    800027ac:	00070793          	mv	a5,a4
    800027b0:	fcf41d23          	sh	a5,-38(s0)
    800027b4:	fe042623          	sw	zero,-20(s0)
    800027b8:	0b40006f          	j	8000286c <matrix_mul_const+0xe0>
    800027bc:	fe042423          	sw	zero,-24(s0)
    800027c0:	08c0006f          	j	8000284c <matrix_mul_const+0xc0>
    800027c4:	fec42703          	lw	a4,-20(s0)
    800027c8:	fdc42783          	lw	a5,-36(s0)
    800027cc:	02f707bb          	mulw	a5,a4,a5
    800027d0:	0007879b          	sext.w	a5,a5
    800027d4:	fe842703          	lw	a4,-24(s0)
    800027d8:	00f707bb          	addw	a5,a4,a5
    800027dc:	0007879b          	sext.w	a5,a5
    800027e0:	02079793          	slli	a5,a5,0x20
    800027e4:	0207d793          	srli	a5,a5,0x20
    800027e8:	00179793          	slli	a5,a5,0x1
    800027ec:	fc843703          	ld	a4,-56(s0)
    800027f0:	00f707b3          	add	a5,a4,a5
    800027f4:	00079783          	lh	a5,0(a5)
    800027f8:	0007869b          	sext.w	a3,a5
    800027fc:	fda41783          	lh	a5,-38(s0)
    80002800:	0007871b          	sext.w	a4,a5
    80002804:	fec42603          	lw	a2,-20(s0)
    80002808:	fdc42783          	lw	a5,-36(s0)
    8000280c:	02f607bb          	mulw	a5,a2,a5
    80002810:	0007879b          	sext.w	a5,a5
    80002814:	fe842603          	lw	a2,-24(s0)
    80002818:	00f607bb          	addw	a5,a2,a5
    8000281c:	0007879b          	sext.w	a5,a5
    80002820:	02079793          	slli	a5,a5,0x20
    80002824:	0207d793          	srli	a5,a5,0x20
    80002828:	00279793          	slli	a5,a5,0x2
    8000282c:	fd043603          	ld	a2,-48(s0)
    80002830:	00f607b3          	add	a5,a2,a5
    80002834:	02e6873b          	mulw	a4,a3,a4
    80002838:	0007071b          	sext.w	a4,a4
    8000283c:	00e7a023          	sw	a4,0(a5)
    80002840:	fe842783          	lw	a5,-24(s0)
    80002844:	0017879b          	addiw	a5,a5,1
    80002848:	fef42423          	sw	a5,-24(s0)
    8000284c:	fe842703          	lw	a4,-24(s0)
    80002850:	fdc42783          	lw	a5,-36(s0)
    80002854:	0007071b          	sext.w	a4,a4
    80002858:	0007879b          	sext.w	a5,a5
    8000285c:	f6f764e3          	bltu	a4,a5,800027c4 <matrix_mul_const+0x38>
    80002860:	fec42783          	lw	a5,-20(s0)
    80002864:	0017879b          	addiw	a5,a5,1
    80002868:	fef42623          	sw	a5,-20(s0)
    8000286c:	fec42703          	lw	a4,-20(s0)
    80002870:	fdc42783          	lw	a5,-36(s0)
    80002874:	0007071b          	sext.w	a4,a4
    80002878:	0007879b          	sext.w	a5,a5
    8000287c:	f4f760e3          	bltu	a4,a5,800027bc <matrix_mul_const+0x30>
    80002880:	00000013          	nop
    80002884:	00000013          	nop
    80002888:	03813403          	ld	s0,56(sp)
    8000288c:	04010113          	addi	sp,sp,64
    80002890:	00008067          	ret

0000000080002894 <matrix_add_const>:
    80002894:	fd010113          	addi	sp,sp,-48
    80002898:	02813423          	sd	s0,40(sp)
    8000289c:	03010413          	addi	s0,sp,48
    800028a0:	00050793          	mv	a5,a0
    800028a4:	fcb43823          	sd	a1,-48(s0)
    800028a8:	00060713          	mv	a4,a2
    800028ac:	fcf42e23          	sw	a5,-36(s0)
    800028b0:	00070793          	mv	a5,a4
    800028b4:	fcf41d23          	sh	a5,-38(s0)
    800028b8:	fe042623          	sw	zero,-20(s0)
    800028bc:	0c00006f          	j	8000297c <matrix_add_const+0xe8>
    800028c0:	fe042423          	sw	zero,-24(s0)
    800028c4:	0980006f          	j	8000295c <matrix_add_const+0xc8>
    800028c8:	fec42703          	lw	a4,-20(s0)
    800028cc:	fdc42783          	lw	a5,-36(s0)
    800028d0:	02f707bb          	mulw	a5,a4,a5
    800028d4:	0007879b          	sext.w	a5,a5
    800028d8:	fe842703          	lw	a4,-24(s0)
    800028dc:	00f707bb          	addw	a5,a4,a5
    800028e0:	0007879b          	sext.w	a5,a5
    800028e4:	02079793          	slli	a5,a5,0x20
    800028e8:	0207d793          	srli	a5,a5,0x20
    800028ec:	00179793          	slli	a5,a5,0x1
    800028f0:	fd043703          	ld	a4,-48(s0)
    800028f4:	00f707b3          	add	a5,a4,a5
    800028f8:	00079783          	lh	a5,0(a5)
    800028fc:	03079713          	slli	a4,a5,0x30
    80002900:	03075713          	srli	a4,a4,0x30
    80002904:	fda45783          	lhu	a5,-38(s0)
    80002908:	00f707bb          	addw	a5,a4,a5
    8000290c:	03079693          	slli	a3,a5,0x30
    80002910:	0306d693          	srli	a3,a3,0x30
    80002914:	fec42703          	lw	a4,-20(s0)
    80002918:	fdc42783          	lw	a5,-36(s0)
    8000291c:	02f707bb          	mulw	a5,a4,a5
    80002920:	0007879b          	sext.w	a5,a5
    80002924:	fe842703          	lw	a4,-24(s0)
    80002928:	00f707bb          	addw	a5,a4,a5
    8000292c:	0007879b          	sext.w	a5,a5
    80002930:	02079793          	slli	a5,a5,0x20
    80002934:	0207d793          	srli	a5,a5,0x20
    80002938:	00179793          	slli	a5,a5,0x1
    8000293c:	fd043703          	ld	a4,-48(s0)
    80002940:	00f707b3          	add	a5,a4,a5
    80002944:	0106971b          	slliw	a4,a3,0x10
    80002948:	4107571b          	sraiw	a4,a4,0x10
    8000294c:	00e79023          	sh	a4,0(a5)
    80002950:	fe842783          	lw	a5,-24(s0)
    80002954:	0017879b          	addiw	a5,a5,1
    80002958:	fef42423          	sw	a5,-24(s0)
    8000295c:	fe842703          	lw	a4,-24(s0)
    80002960:	fdc42783          	lw	a5,-36(s0)
    80002964:	0007071b          	sext.w	a4,a4
    80002968:	0007879b          	sext.w	a5,a5
    8000296c:	f4f76ee3          	bltu	a4,a5,800028c8 <matrix_add_const+0x34>
    80002970:	fec42783          	lw	a5,-20(s0)
    80002974:	0017879b          	addiw	a5,a5,1
    80002978:	fef42623          	sw	a5,-20(s0)
    8000297c:	fec42703          	lw	a4,-20(s0)
    80002980:	fdc42783          	lw	a5,-36(s0)
    80002984:	0007071b          	sext.w	a4,a4
    80002988:	0007879b          	sext.w	a5,a5
    8000298c:	f2f76ae3          	bltu	a4,a5,800028c0 <matrix_add_const+0x2c>
    80002990:	00000013          	nop
    80002994:	00000013          	nop
    80002998:	02813403          	ld	s0,40(sp)
    8000299c:	03010113          	addi	sp,sp,48
    800029a0:	00008067          	ret

00000000800029a4 <matrix_mul_vect>:
    800029a4:	fc010113          	addi	sp,sp,-64
    800029a8:	02813c23          	sd	s0,56(sp)
    800029ac:	04010413          	addi	s0,sp,64
    800029b0:	00050793          	mv	a5,a0
    800029b4:	fcb43823          	sd	a1,-48(s0)
    800029b8:	fcc43423          	sd	a2,-56(s0)
    800029bc:	fcd43023          	sd	a3,-64(s0)
    800029c0:	fcf42e23          	sw	a5,-36(s0)
    800029c4:	fe042623          	sw	zero,-20(s0)
    800029c8:	0d40006f          	j	80002a9c <matrix_mul_vect+0xf8>
    800029cc:	fec46783          	lwu	a5,-20(s0)
    800029d0:	00279793          	slli	a5,a5,0x2
    800029d4:	fd043703          	ld	a4,-48(s0)
    800029d8:	00f707b3          	add	a5,a4,a5
    800029dc:	0007a023          	sw	zero,0(a5)
    800029e0:	fe042423          	sw	zero,-24(s0)
    800029e4:	0980006f          	j	80002a7c <matrix_mul_vect+0xd8>
    800029e8:	fec46783          	lwu	a5,-20(s0)
    800029ec:	00279793          	slli	a5,a5,0x2
    800029f0:	fd043703          	ld	a4,-48(s0)
    800029f4:	00f707b3          	add	a5,a4,a5
    800029f8:	0007a683          	lw	a3,0(a5)
    800029fc:	fec42703          	lw	a4,-20(s0)
    80002a00:	fdc42783          	lw	a5,-36(s0)
    80002a04:	02f707bb          	mulw	a5,a4,a5
    80002a08:	0007879b          	sext.w	a5,a5
    80002a0c:	fe842703          	lw	a4,-24(s0)
    80002a10:	00f707bb          	addw	a5,a4,a5
    80002a14:	0007879b          	sext.w	a5,a5
    80002a18:	02079793          	slli	a5,a5,0x20
    80002a1c:	0207d793          	srli	a5,a5,0x20
    80002a20:	00179793          	slli	a5,a5,0x1
    80002a24:	fc843703          	ld	a4,-56(s0)
    80002a28:	00f707b3          	add	a5,a4,a5
    80002a2c:	00079783          	lh	a5,0(a5)
    80002a30:	0007871b          	sext.w	a4,a5
    80002a34:	fe846783          	lwu	a5,-24(s0)
    80002a38:	00179793          	slli	a5,a5,0x1
    80002a3c:	fc043603          	ld	a2,-64(s0)
    80002a40:	00f607b3          	add	a5,a2,a5
    80002a44:	00079783          	lh	a5,0(a5)
    80002a48:	0007879b          	sext.w	a5,a5
    80002a4c:	02f707bb          	mulw	a5,a4,a5
    80002a50:	0007871b          	sext.w	a4,a5
    80002a54:	fec46783          	lwu	a5,-20(s0)
    80002a58:	00279793          	slli	a5,a5,0x2
    80002a5c:	fd043603          	ld	a2,-48(s0)
    80002a60:	00f607b3          	add	a5,a2,a5
    80002a64:	00e6873b          	addw	a4,a3,a4
    80002a68:	0007071b          	sext.w	a4,a4
    80002a6c:	00e7a023          	sw	a4,0(a5)
    80002a70:	fe842783          	lw	a5,-24(s0)
    80002a74:	0017879b          	addiw	a5,a5,1
    80002a78:	fef42423          	sw	a5,-24(s0)
    80002a7c:	fe842703          	lw	a4,-24(s0)
    80002a80:	fdc42783          	lw	a5,-36(s0)
    80002a84:	0007071b          	sext.w	a4,a4
    80002a88:	0007879b          	sext.w	a5,a5
    80002a8c:	f4f76ee3          	bltu	a4,a5,800029e8 <matrix_mul_vect+0x44>
    80002a90:	fec42783          	lw	a5,-20(s0)
    80002a94:	0017879b          	addiw	a5,a5,1
    80002a98:	fef42623          	sw	a5,-20(s0)
    80002a9c:	fec42703          	lw	a4,-20(s0)
    80002aa0:	fdc42783          	lw	a5,-36(s0)
    80002aa4:	0007071b          	sext.w	a4,a4
    80002aa8:	0007879b          	sext.w	a5,a5
    80002aac:	f2f760e3          	bltu	a4,a5,800029cc <matrix_mul_vect+0x28>
    80002ab0:	00000013          	nop
    80002ab4:	00000013          	nop
    80002ab8:	03813403          	ld	s0,56(sp)
    80002abc:	04010113          	addi	sp,sp,64
    80002ac0:	00008067          	ret

0000000080002ac4 <matrix_mul_matrix>:
    80002ac4:	fc010113          	addi	sp,sp,-64
    80002ac8:	02813c23          	sd	s0,56(sp)
    80002acc:	04010413          	addi	s0,sp,64
    80002ad0:	00050793          	mv	a5,a0
    80002ad4:	fcb43823          	sd	a1,-48(s0)
    80002ad8:	fcc43423          	sd	a2,-56(s0)
    80002adc:	fcd43023          	sd	a3,-64(s0)
    80002ae0:	fcf42e23          	sw	a5,-36(s0)
    80002ae4:	fe042623          	sw	zero,-20(s0)
    80002ae8:	17c0006f          	j	80002c64 <matrix_mul_matrix+0x1a0>
    80002aec:	fe042423          	sw	zero,-24(s0)
    80002af0:	1540006f          	j	80002c44 <matrix_mul_matrix+0x180>
    80002af4:	fec42703          	lw	a4,-20(s0)
    80002af8:	fdc42783          	lw	a5,-36(s0)
    80002afc:	02f707bb          	mulw	a5,a4,a5
    80002b00:	0007879b          	sext.w	a5,a5
    80002b04:	fe842703          	lw	a4,-24(s0)
    80002b08:	00f707bb          	addw	a5,a4,a5
    80002b0c:	0007879b          	sext.w	a5,a5
    80002b10:	02079793          	slli	a5,a5,0x20
    80002b14:	0207d793          	srli	a5,a5,0x20
    80002b18:	00279793          	slli	a5,a5,0x2
    80002b1c:	fd043703          	ld	a4,-48(s0)
    80002b20:	00f707b3          	add	a5,a4,a5
    80002b24:	0007a023          	sw	zero,0(a5)
    80002b28:	fe042223          	sw	zero,-28(s0)
    80002b2c:	0f80006f          	j	80002c24 <matrix_mul_matrix+0x160>
    80002b30:	fec42703          	lw	a4,-20(s0)
    80002b34:	fdc42783          	lw	a5,-36(s0)
    80002b38:	02f707bb          	mulw	a5,a4,a5
    80002b3c:	0007879b          	sext.w	a5,a5
    80002b40:	fe842703          	lw	a4,-24(s0)
    80002b44:	00f707bb          	addw	a5,a4,a5
    80002b48:	0007879b          	sext.w	a5,a5
    80002b4c:	02079793          	slli	a5,a5,0x20
    80002b50:	0207d793          	srli	a5,a5,0x20
    80002b54:	00279793          	slli	a5,a5,0x2
    80002b58:	fd043703          	ld	a4,-48(s0)
    80002b5c:	00f707b3          	add	a5,a4,a5
    80002b60:	0007a683          	lw	a3,0(a5)
    80002b64:	fec42703          	lw	a4,-20(s0)
    80002b68:	fdc42783          	lw	a5,-36(s0)
    80002b6c:	02f707bb          	mulw	a5,a4,a5
    80002b70:	0007879b          	sext.w	a5,a5
    80002b74:	fe442703          	lw	a4,-28(s0)
    80002b78:	00f707bb          	addw	a5,a4,a5
    80002b7c:	0007879b          	sext.w	a5,a5
    80002b80:	02079793          	slli	a5,a5,0x20
    80002b84:	0207d793          	srli	a5,a5,0x20
    80002b88:	00179793          	slli	a5,a5,0x1
    80002b8c:	fc843703          	ld	a4,-56(s0)
    80002b90:	00f707b3          	add	a5,a4,a5
    80002b94:	00079783          	lh	a5,0(a5)
    80002b98:	0007871b          	sext.w	a4,a5
    80002b9c:	fe442603          	lw	a2,-28(s0)
    80002ba0:	fdc42783          	lw	a5,-36(s0)
    80002ba4:	02f607bb          	mulw	a5,a2,a5
    80002ba8:	0007879b          	sext.w	a5,a5
    80002bac:	fe842603          	lw	a2,-24(s0)
    80002bb0:	00f607bb          	addw	a5,a2,a5
    80002bb4:	0007879b          	sext.w	a5,a5
    80002bb8:	02079793          	slli	a5,a5,0x20
    80002bbc:	0207d793          	srli	a5,a5,0x20
    80002bc0:	00179793          	slli	a5,a5,0x1
    80002bc4:	fc043603          	ld	a2,-64(s0)
    80002bc8:	00f607b3          	add	a5,a2,a5
    80002bcc:	00079783          	lh	a5,0(a5)
    80002bd0:	0007879b          	sext.w	a5,a5
    80002bd4:	02f707bb          	mulw	a5,a4,a5
    80002bd8:	0007871b          	sext.w	a4,a5
    80002bdc:	fec42603          	lw	a2,-20(s0)
    80002be0:	fdc42783          	lw	a5,-36(s0)
    80002be4:	02f607bb          	mulw	a5,a2,a5
    80002be8:	0007879b          	sext.w	a5,a5
    80002bec:	fe842603          	lw	a2,-24(s0)
    80002bf0:	00f607bb          	addw	a5,a2,a5
    80002bf4:	0007879b          	sext.w	a5,a5
    80002bf8:	02079793          	slli	a5,a5,0x20
    80002bfc:	0207d793          	srli	a5,a5,0x20
    80002c00:	00279793          	slli	a5,a5,0x2
    80002c04:	fd043603          	ld	a2,-48(s0)
    80002c08:	00f607b3          	add	a5,a2,a5
    80002c0c:	00e6873b          	addw	a4,a3,a4
    80002c10:	0007071b          	sext.w	a4,a4
    80002c14:	00e7a023          	sw	a4,0(a5)
    80002c18:	fe442783          	lw	a5,-28(s0)
    80002c1c:	0017879b          	addiw	a5,a5,1
    80002c20:	fef42223          	sw	a5,-28(s0)
    80002c24:	fe442703          	lw	a4,-28(s0)
    80002c28:	fdc42783          	lw	a5,-36(s0)
    80002c2c:	0007071b          	sext.w	a4,a4
    80002c30:	0007879b          	sext.w	a5,a5
    80002c34:	eef76ee3          	bltu	a4,a5,80002b30 <matrix_mul_matrix+0x6c>
    80002c38:	fe842783          	lw	a5,-24(s0)
    80002c3c:	0017879b          	addiw	a5,a5,1
    80002c40:	fef42423          	sw	a5,-24(s0)
    80002c44:	fe842703          	lw	a4,-24(s0)
    80002c48:	fdc42783          	lw	a5,-36(s0)
    80002c4c:	0007071b          	sext.w	a4,a4
    80002c50:	0007879b          	sext.w	a5,a5
    80002c54:	eaf760e3          	bltu	a4,a5,80002af4 <matrix_mul_matrix+0x30>
    80002c58:	fec42783          	lw	a5,-20(s0)
    80002c5c:	0017879b          	addiw	a5,a5,1
    80002c60:	fef42623          	sw	a5,-20(s0)
    80002c64:	fec42703          	lw	a4,-20(s0)
    80002c68:	fdc42783          	lw	a5,-36(s0)
    80002c6c:	0007071b          	sext.w	a4,a4
    80002c70:	0007879b          	sext.w	a5,a5
    80002c74:	e6f76ce3          	bltu	a4,a5,80002aec <matrix_mul_matrix+0x28>
    80002c78:	00000013          	nop
    80002c7c:	00000013          	nop
    80002c80:	03813403          	ld	s0,56(sp)
    80002c84:	04010113          	addi	sp,sp,64
    80002c88:	00008067          	ret

0000000080002c8c <matrix_mul_matrix_bitextract>:
    80002c8c:	fc010113          	addi	sp,sp,-64
    80002c90:	02813c23          	sd	s0,56(sp)
    80002c94:	04010413          	addi	s0,sp,64
    80002c98:	00050793          	mv	a5,a0
    80002c9c:	fcb43823          	sd	a1,-48(s0)
    80002ca0:	fcc43423          	sd	a2,-56(s0)
    80002ca4:	fcd43023          	sd	a3,-64(s0)
    80002ca8:	fcf42e23          	sw	a5,-36(s0)
    80002cac:	fe042623          	sw	zero,-20(s0)
    80002cb0:	1bc0006f          	j	80002e6c <matrix_mul_matrix_bitextract+0x1e0>
    80002cb4:	fe042423          	sw	zero,-24(s0)
    80002cb8:	1940006f          	j	80002e4c <matrix_mul_matrix_bitextract+0x1c0>
    80002cbc:	fec42703          	lw	a4,-20(s0)
    80002cc0:	fdc42783          	lw	a5,-36(s0)
    80002cc4:	02f707bb          	mulw	a5,a4,a5
    80002cc8:	0007879b          	sext.w	a5,a5
    80002ccc:	fe842703          	lw	a4,-24(s0)
    80002cd0:	00f707bb          	addw	a5,a4,a5
    80002cd4:	0007879b          	sext.w	a5,a5
    80002cd8:	02079793          	slli	a5,a5,0x20
    80002cdc:	0207d793          	srli	a5,a5,0x20
    80002ce0:	00279793          	slli	a5,a5,0x2
    80002ce4:	fd043703          	ld	a4,-48(s0)
    80002ce8:	00f707b3          	add	a5,a4,a5
    80002cec:	0007a023          	sw	zero,0(a5)
    80002cf0:	fe042223          	sw	zero,-28(s0)
    80002cf4:	1380006f          	j	80002e2c <matrix_mul_matrix_bitextract+0x1a0>
    80002cf8:	fec42703          	lw	a4,-20(s0)
    80002cfc:	fdc42783          	lw	a5,-36(s0)
    80002d00:	02f707bb          	mulw	a5,a4,a5
    80002d04:	0007879b          	sext.w	a5,a5
    80002d08:	fe442703          	lw	a4,-28(s0)
    80002d0c:	00f707bb          	addw	a5,a4,a5
    80002d10:	0007879b          	sext.w	a5,a5
    80002d14:	02079793          	slli	a5,a5,0x20
    80002d18:	0207d793          	srli	a5,a5,0x20
    80002d1c:	00179793          	slli	a5,a5,0x1
    80002d20:	fc843703          	ld	a4,-56(s0)
    80002d24:	00f707b3          	add	a5,a4,a5
    80002d28:	00079783          	lh	a5,0(a5)
    80002d2c:	0007871b          	sext.w	a4,a5
    80002d30:	fe442683          	lw	a3,-28(s0)
    80002d34:	fdc42783          	lw	a5,-36(s0)
    80002d38:	02f687bb          	mulw	a5,a3,a5
    80002d3c:	0007879b          	sext.w	a5,a5
    80002d40:	fe842683          	lw	a3,-24(s0)
    80002d44:	00f687bb          	addw	a5,a3,a5
    80002d48:	0007879b          	sext.w	a5,a5
    80002d4c:	02079793          	slli	a5,a5,0x20
    80002d50:	0207d793          	srli	a5,a5,0x20
    80002d54:	00179793          	slli	a5,a5,0x1
    80002d58:	fc043683          	ld	a3,-64(s0)
    80002d5c:	00f687b3          	add	a5,a3,a5
    80002d60:	00079783          	lh	a5,0(a5)
    80002d64:	0007879b          	sext.w	a5,a5
    80002d68:	02f707bb          	mulw	a5,a4,a5
    80002d6c:	fef42023          	sw	a5,-32(s0)
    80002d70:	fec42703          	lw	a4,-20(s0)
    80002d74:	fdc42783          	lw	a5,-36(s0)
    80002d78:	02f707bb          	mulw	a5,a4,a5
    80002d7c:	0007879b          	sext.w	a5,a5
    80002d80:	fe842703          	lw	a4,-24(s0)
    80002d84:	00f707bb          	addw	a5,a4,a5
    80002d88:	0007879b          	sext.w	a5,a5
    80002d8c:	02079793          	slli	a5,a5,0x20
    80002d90:	0207d793          	srli	a5,a5,0x20
    80002d94:	00279793          	slli	a5,a5,0x2
    80002d98:	fd043703          	ld	a4,-48(s0)
    80002d9c:	00f707b3          	add	a5,a4,a5
    80002da0:	0007a783          	lw	a5,0(a5)
    80002da4:	0007871b          	sext.w	a4,a5
    80002da8:	fe042783          	lw	a5,-32(s0)
    80002dac:	4027d79b          	sraiw	a5,a5,0x2
    80002db0:	0007879b          	sext.w	a5,a5
    80002db4:	0007879b          	sext.w	a5,a5
    80002db8:	00f7f793          	andi	a5,a5,15
    80002dbc:	0007869b          	sext.w	a3,a5
    80002dc0:	fe042783          	lw	a5,-32(s0)
    80002dc4:	4057d79b          	sraiw	a5,a5,0x5
    80002dc8:	0007879b          	sext.w	a5,a5
    80002dcc:	0007879b          	sext.w	a5,a5
    80002dd0:	07f7f793          	andi	a5,a5,127
    80002dd4:	0007879b          	sext.w	a5,a5
    80002dd8:	02f687bb          	mulw	a5,a3,a5
    80002ddc:	0007879b          	sext.w	a5,a5
    80002de0:	00f707bb          	addw	a5,a4,a5
    80002de4:	0007869b          	sext.w	a3,a5
    80002de8:	fec42703          	lw	a4,-20(s0)
    80002dec:	fdc42783          	lw	a5,-36(s0)
    80002df0:	02f707bb          	mulw	a5,a4,a5
    80002df4:	0007879b          	sext.w	a5,a5
    80002df8:	fe842703          	lw	a4,-24(s0)
    80002dfc:	00f707bb          	addw	a5,a4,a5
    80002e00:	0007879b          	sext.w	a5,a5
    80002e04:	02079793          	slli	a5,a5,0x20
    80002e08:	0207d793          	srli	a5,a5,0x20
    80002e0c:	00279793          	slli	a5,a5,0x2
    80002e10:	fd043703          	ld	a4,-48(s0)
    80002e14:	00f707b3          	add	a5,a4,a5
    80002e18:	0006871b          	sext.w	a4,a3
    80002e1c:	00e7a023          	sw	a4,0(a5)
    80002e20:	fe442783          	lw	a5,-28(s0)
    80002e24:	0017879b          	addiw	a5,a5,1
    80002e28:	fef42223          	sw	a5,-28(s0)
    80002e2c:	fe442703          	lw	a4,-28(s0)
    80002e30:	fdc42783          	lw	a5,-36(s0)
    80002e34:	0007071b          	sext.w	a4,a4
    80002e38:	0007879b          	sext.w	a5,a5
    80002e3c:	eaf76ee3          	bltu	a4,a5,80002cf8 <matrix_mul_matrix_bitextract+0x6c>
    80002e40:	fe842783          	lw	a5,-24(s0)
    80002e44:	0017879b          	addiw	a5,a5,1
    80002e48:	fef42423          	sw	a5,-24(s0)
    80002e4c:	fe842703          	lw	a4,-24(s0)
    80002e50:	fdc42783          	lw	a5,-36(s0)
    80002e54:	0007071b          	sext.w	a4,a4
    80002e58:	0007879b          	sext.w	a5,a5
    80002e5c:	e6f760e3          	bltu	a4,a5,80002cbc <matrix_mul_matrix_bitextract+0x30>
    80002e60:	fec42783          	lw	a5,-20(s0)
    80002e64:	0017879b          	addiw	a5,a5,1
    80002e68:	fef42623          	sw	a5,-20(s0)
    80002e6c:	fec42703          	lw	a4,-20(s0)
    80002e70:	fdc42783          	lw	a5,-36(s0)
    80002e74:	0007071b          	sext.w	a4,a4
    80002e78:	0007879b          	sext.w	a5,a5
    80002e7c:	e2f76ce3          	bltu	a4,a5,80002cb4 <matrix_mul_matrix_bitextract+0x28>
    80002e80:	00000013          	nop
    80002e84:	00000013          	nop
    80002e88:	03813403          	ld	s0,56(sp)
    80002e8c:	04010113          	addi	sp,sp,64
    80002e90:	00008067          	ret

0000000080002e94 <core_bench_state>:
    80002e94:	f7010113          	addi	sp,sp,-144
    80002e98:	08113423          	sd	ra,136(sp)
    80002e9c:	08813023          	sd	s0,128(sp)
    80002ea0:	09010413          	addi	s0,sp,144
    80002ea4:	f8b43023          	sd	a1,-128(s0)
    80002ea8:	00060593          	mv	a1,a2
    80002eac:	00068613          	mv	a2,a3
    80002eb0:	00070693          	mv	a3,a4
    80002eb4:	00078713          	mv	a4,a5
    80002eb8:	00050793          	mv	a5,a0
    80002ebc:	f8f42623          	sw	a5,-116(s0)
    80002ec0:	00058793          	mv	a5,a1
    80002ec4:	f8f41523          	sh	a5,-118(s0)
    80002ec8:	00060793          	mv	a5,a2
    80002ecc:	f8f41423          	sh	a5,-120(s0)
    80002ed0:	00068793          	mv	a5,a3
    80002ed4:	f6f41f23          	sh	a5,-130(s0)
    80002ed8:	00070793          	mv	a5,a4
    80002edc:	f6f41e23          	sh	a5,-132(s0)
    80002ee0:	f8043783          	ld	a5,-128(s0)
    80002ee4:	f8f43c23          	sd	a5,-104(s0)
    80002ee8:	fe042623          	sw	zero,-20(s0)
    80002eec:	04c0006f          	j	80002f38 <core_bench_state+0xa4>
    80002ef0:	fec46783          	lwu	a5,-20(s0)
    80002ef4:	00279793          	slli	a5,a5,0x2
    80002ef8:	ff040713          	addi	a4,s0,-16
    80002efc:	00f707b3          	add	a5,a4,a5
    80002f00:	fa07a823          	sw	zero,-80(a5)
    80002f04:	fec46783          	lwu	a5,-20(s0)
    80002f08:	00279793          	slli	a5,a5,0x2
    80002f0c:	ff040713          	addi	a4,s0,-16
    80002f10:	00f707b3          	add	a5,a4,a5
    80002f14:	fb07a703          	lw	a4,-80(a5)
    80002f18:	fec46783          	lwu	a5,-20(s0)
    80002f1c:	00279793          	slli	a5,a5,0x2
    80002f20:	ff040693          	addi	a3,s0,-16
    80002f24:	00f687b3          	add	a5,a3,a5
    80002f28:	fce7a823          	sw	a4,-48(a5)
    80002f2c:	fec42783          	lw	a5,-20(s0)
    80002f30:	0017879b          	addiw	a5,a5,1
    80002f34:	fef42623          	sw	a5,-20(s0)
    80002f38:	fec42783          	lw	a5,-20(s0)
    80002f3c:	0007871b          	sext.w	a4,a5
    80002f40:	00700793          	li	a5,7
    80002f44:	fae7f6e3          	bgeu	a5,a4,80002ef0 <core_bench_state+0x5c>
    80002f48:	0500006f          	j	80002f98 <core_bench_state+0x104>
    80002f4c:	fa040713          	addi	a4,s0,-96
    80002f50:	f9840793          	addi	a5,s0,-104
    80002f54:	00070593          	mv	a1,a4
    80002f58:	00078513          	mv	a0,a5
    80002f5c:	564000ef          	jal	ra,800034c0 <core_state_transition>
    80002f60:	00050793          	mv	a5,a0
    80002f64:	fef42223          	sw	a5,-28(s0)
    80002f68:	fe446783          	lwu	a5,-28(s0)
    80002f6c:	00279793          	slli	a5,a5,0x2
    80002f70:	ff040713          	addi	a4,s0,-16
    80002f74:	00f707b3          	add	a5,a4,a5
    80002f78:	fd07a783          	lw	a5,-48(a5)
    80002f7c:	0017879b          	addiw	a5,a5,1
    80002f80:	0007871b          	sext.w	a4,a5
    80002f84:	fe446783          	lwu	a5,-28(s0)
    80002f88:	00279793          	slli	a5,a5,0x2
    80002f8c:	ff040693          	addi	a3,s0,-16
    80002f90:	00f687b3          	add	a5,a3,a5
    80002f94:	fce7a823          	sw	a4,-48(a5)
    80002f98:	f9843783          	ld	a5,-104(s0)
    80002f9c:	0007c783          	lbu	a5,0(a5)
    80002fa0:	fa0796e3          	bnez	a5,80002f4c <core_bench_state+0xb8>
    80002fa4:	f8043783          	ld	a5,-128(s0)
    80002fa8:	f8f43c23          	sd	a5,-104(s0)
    80002fac:	0480006f          	j	80002ff4 <core_bench_state+0x160>
    80002fb0:	f9843783          	ld	a5,-104(s0)
    80002fb4:	0007c783          	lbu	a5,0(a5)
    80002fb8:	00078713          	mv	a4,a5
    80002fbc:	02c00793          	li	a5,44
    80002fc0:	02f70263          	beq	a4,a5,80002fe4 <core_bench_state+0x150>
    80002fc4:	f9843783          	ld	a5,-104(s0)
    80002fc8:	0007c683          	lbu	a3,0(a5)
    80002fcc:	f8a45783          	lhu	a5,-118(s0)
    80002fd0:	0ff7f713          	zext.b	a4,a5
    80002fd4:	f9843783          	ld	a5,-104(s0)
    80002fd8:	00e6c733          	xor	a4,a3,a4
    80002fdc:	0ff77713          	zext.b	a4,a4
    80002fe0:	00e78023          	sb	a4,0(a5)
    80002fe4:	f9843703          	ld	a4,-104(s0)
    80002fe8:	f7e41783          	lh	a5,-130(s0)
    80002fec:	00f707b3          	add	a5,a4,a5
    80002ff0:	f8f43c23          	sd	a5,-104(s0)
    80002ff4:	f8c46783          	lwu	a5,-116(s0)
    80002ff8:	f8043703          	ld	a4,-128(s0)
    80002ffc:	00f70733          	add	a4,a4,a5
    80003000:	f9843783          	ld	a5,-104(s0)
    80003004:	fae7e6e3          	bltu	a5,a4,80002fb0 <core_bench_state+0x11c>
    80003008:	f8043783          	ld	a5,-128(s0)
    8000300c:	f8f43c23          	sd	a5,-104(s0)
    80003010:	0500006f          	j	80003060 <core_bench_state+0x1cc>
    80003014:	fa040713          	addi	a4,s0,-96
    80003018:	f9840793          	addi	a5,s0,-104
    8000301c:	00070593          	mv	a1,a4
    80003020:	00078513          	mv	a0,a5
    80003024:	49c000ef          	jal	ra,800034c0 <core_state_transition>
    80003028:	00050793          	mv	a5,a0
    8000302c:	fef42423          	sw	a5,-24(s0)
    80003030:	fe846783          	lwu	a5,-24(s0)
    80003034:	00279793          	slli	a5,a5,0x2
    80003038:	ff040713          	addi	a4,s0,-16
    8000303c:	00f707b3          	add	a5,a4,a5
    80003040:	fd07a783          	lw	a5,-48(a5)
    80003044:	0017879b          	addiw	a5,a5,1
    80003048:	0007871b          	sext.w	a4,a5
    8000304c:	fe846783          	lwu	a5,-24(s0)
    80003050:	00279793          	slli	a5,a5,0x2
    80003054:	ff040693          	addi	a3,s0,-16
    80003058:	00f687b3          	add	a5,a3,a5
    8000305c:	fce7a823          	sw	a4,-48(a5)
    80003060:	f9843783          	ld	a5,-104(s0)
    80003064:	0007c783          	lbu	a5,0(a5)
    80003068:	fa0796e3          	bnez	a5,80003014 <core_bench_state+0x180>
    8000306c:	f8043783          	ld	a5,-128(s0)
    80003070:	f8f43c23          	sd	a5,-104(s0)
    80003074:	0480006f          	j	800030bc <core_bench_state+0x228>
    80003078:	f9843783          	ld	a5,-104(s0)
    8000307c:	0007c783          	lbu	a5,0(a5)
    80003080:	00078713          	mv	a4,a5
    80003084:	02c00793          	li	a5,44
    80003088:	02f70263          	beq	a4,a5,800030ac <core_bench_state+0x218>
    8000308c:	f9843783          	ld	a5,-104(s0)
    80003090:	0007c683          	lbu	a3,0(a5)
    80003094:	f8845783          	lhu	a5,-120(s0)
    80003098:	0ff7f713          	zext.b	a4,a5
    8000309c:	f9843783          	ld	a5,-104(s0)
    800030a0:	00e6c733          	xor	a4,a3,a4
    800030a4:	0ff77713          	zext.b	a4,a4
    800030a8:	00e78023          	sb	a4,0(a5)
    800030ac:	f9843703          	ld	a4,-104(s0)
    800030b0:	f7e41783          	lh	a5,-130(s0)
    800030b4:	00f707b3          	add	a5,a4,a5
    800030b8:	f8f43c23          	sd	a5,-104(s0)
    800030bc:	f8c46783          	lwu	a5,-116(s0)
    800030c0:	f8043703          	ld	a4,-128(s0)
    800030c4:	00f70733          	add	a4,a4,a5
    800030c8:	f9843783          	ld	a5,-104(s0)
    800030cc:	fae7e6e3          	bltu	a5,a4,80003078 <core_bench_state+0x1e4>
    800030d0:	fe042623          	sw	zero,-20(s0)
    800030d4:	0680006f          	j	8000313c <core_bench_state+0x2a8>
    800030d8:	fec46783          	lwu	a5,-20(s0)
    800030dc:	00279793          	slli	a5,a5,0x2
    800030e0:	ff040713          	addi	a4,s0,-16
    800030e4:	00f707b3          	add	a5,a4,a5
    800030e8:	fd07a783          	lw	a5,-48(a5)
    800030ec:	f7c45703          	lhu	a4,-132(s0)
    800030f0:	00070593          	mv	a1,a4
    800030f4:	00078513          	mv	a0,a5
    800030f8:	241000ef          	jal	ra,80003b38 <crcu32>
    800030fc:	00050793          	mv	a5,a0
    80003100:	f6f41e23          	sh	a5,-132(s0)
    80003104:	fec46783          	lwu	a5,-20(s0)
    80003108:	00279793          	slli	a5,a5,0x2
    8000310c:	ff040713          	addi	a4,s0,-16
    80003110:	00f707b3          	add	a5,a4,a5
    80003114:	fb07a783          	lw	a5,-80(a5)
    80003118:	f7c45703          	lhu	a4,-132(s0)
    8000311c:	00070593          	mv	a1,a4
    80003120:	00078513          	mv	a0,a5
    80003124:	215000ef          	jal	ra,80003b38 <crcu32>
    80003128:	00050793          	mv	a5,a0
    8000312c:	f6f41e23          	sh	a5,-132(s0)
    80003130:	fec42783          	lw	a5,-20(s0)
    80003134:	0017879b          	addiw	a5,a5,1
    80003138:	fef42623          	sw	a5,-20(s0)
    8000313c:	fec42783          	lw	a5,-20(s0)
    80003140:	0007871b          	sext.w	a4,a5
    80003144:	00700793          	li	a5,7
    80003148:	f8e7f8e3          	bgeu	a5,a4,800030d8 <core_bench_state+0x244>
    8000314c:	f7c45783          	lhu	a5,-132(s0)
    80003150:	00078513          	mv	a0,a5
    80003154:	08813083          	ld	ra,136(sp)
    80003158:	08013403          	ld	s0,128(sp)
    8000315c:	09010113          	addi	sp,sp,144
    80003160:	00008067          	ret

0000000080003164 <core_init_state>:
    80003164:	fc010113          	addi	sp,sp,-64
    80003168:	02813c23          	sd	s0,56(sp)
    8000316c:	04010413          	addi	s0,sp,64
    80003170:	00050793          	mv	a5,a0
    80003174:	00058713          	mv	a4,a1
    80003178:	fcc43023          	sd	a2,-64(s0)
    8000317c:	fcf42623          	sw	a5,-52(s0)
    80003180:	00070793          	mv	a5,a4
    80003184:	fcf41523          	sh	a5,-54(s0)
    80003188:	fe042623          	sw	zero,-20(s0)
    8000318c:	fe042423          	sw	zero,-24(s0)
    80003190:	fc043c23          	sd	zero,-40(s0)
    80003194:	fcc42783          	lw	a5,-52(s0)
    80003198:	fff7879b          	addiw	a5,a5,-1
    8000319c:	fcf42623          	sw	a5,-52(s0)
    800031a0:	fe042423          	sw	zero,-24(s0)
    800031a4:	2440006f          	j	800033e8 <core_init_state+0x284>
    800031a8:	fe842783          	lw	a5,-24(s0)
    800031ac:	0007879b          	sext.w	a5,a5
    800031b0:	08078463          	beqz	a5,80003238 <core_init_state+0xd4>
    800031b4:	fe042223          	sw	zero,-28(s0)
    800031b8:	0380006f          	j	800031f0 <core_init_state+0x8c>
    800031bc:	fe446783          	lwu	a5,-28(s0)
    800031c0:	fd843703          	ld	a4,-40(s0)
    800031c4:	00f70733          	add	a4,a4,a5
    800031c8:	fec46683          	lwu	a3,-20(s0)
    800031cc:	fe446783          	lwu	a5,-28(s0)
    800031d0:	00f687b3          	add	a5,a3,a5
    800031d4:	fc043683          	ld	a3,-64(s0)
    800031d8:	00f687b3          	add	a5,a3,a5
    800031dc:	00074703          	lbu	a4,0(a4)
    800031e0:	00e78023          	sb	a4,0(a5)
    800031e4:	fe442783          	lw	a5,-28(s0)
    800031e8:	0017879b          	addiw	a5,a5,1
    800031ec:	fef42223          	sw	a5,-28(s0)
    800031f0:	fe442703          	lw	a4,-28(s0)
    800031f4:	fe842783          	lw	a5,-24(s0)
    800031f8:	0007071b          	sext.w	a4,a4
    800031fc:	0007879b          	sext.w	a5,a5
    80003200:	faf76ee3          	bltu	a4,a5,800031bc <core_init_state+0x58>
    80003204:	fec46703          	lwu	a4,-20(s0)
    80003208:	fe446783          	lwu	a5,-28(s0)
    8000320c:	00f707b3          	add	a5,a4,a5
    80003210:	fc043703          	ld	a4,-64(s0)
    80003214:	00f707b3          	add	a5,a4,a5
    80003218:	02c00713          	li	a4,44
    8000321c:	00e78023          	sb	a4,0(a5)
    80003220:	fe842703          	lw	a4,-24(s0)
    80003224:	fec42783          	lw	a5,-20(s0)
    80003228:	00f707bb          	addw	a5,a4,a5
    8000322c:	0007879b          	sext.w	a5,a5
    80003230:	0017879b          	addiw	a5,a5,1
    80003234:	fef42623          	sw	a5,-20(s0)
    80003238:	fca41783          	lh	a5,-54(s0)
    8000323c:	03079793          	slli	a5,a5,0x30
    80003240:	0307d793          	srli	a5,a5,0x30
    80003244:	0017879b          	addiw	a5,a5,1
    80003248:	03079793          	slli	a5,a5,0x30
    8000324c:	0307d793          	srli	a5,a5,0x30
    80003250:	fcf41523          	sh	a5,-54(s0)
    80003254:	fca45783          	lhu	a5,-54(s0)
    80003258:	0007879b          	sext.w	a5,a5
    8000325c:	0077f793          	andi	a5,a5,7
    80003260:	0007879b          	sext.w	a5,a5
    80003264:	00078693          	mv	a3,a5
    80003268:	00700713          	li	a4,7
    8000326c:	12e68863          	beq	a3,a4,8000339c <core_init_state+0x238>
    80003270:	00078693          	mv	a3,a5
    80003274:	00700713          	li	a4,7
    80003278:	16d74663          	blt	a4,a3,800033e4 <core_init_state+0x280>
    8000327c:	00078693          	mv	a3,a5
    80003280:	00600713          	li	a4,6
    80003284:	16d74063          	blt	a4,a3,800033e4 <core_init_state+0x280>
    80003288:	00078693          	mv	a3,a5
    8000328c:	00500713          	li	a4,5
    80003290:	0ce6d263          	bge	a3,a4,80003354 <core_init_state+0x1f0>
    80003294:	00078693          	mv	a3,a5
    80003298:	00200713          	li	a4,2
    8000329c:	00d74663          	blt	a4,a3,800032a8 <core_init_state+0x144>
    800032a0:	0207d263          	bgez	a5,800032c4 <core_init_state+0x160>
    800032a4:	1400006f          	j	800033e4 <core_init_state+0x280>
    800032a8:	0007879b          	sext.w	a5,a5
    800032ac:	ffd7879b          	addiw	a5,a5,-3
    800032b0:	0007879b          	sext.w	a5,a5
    800032b4:	00078713          	mv	a4,a5
    800032b8:	00100793          	li	a5,1
    800032bc:	12e7e463          	bltu	a5,a4,800033e4 <core_init_state+0x280>
    800032c0:	04c0006f          	j	8000330c <core_init_state+0x1a8>
    800032c4:	fca41783          	lh	a5,-54(s0)
    800032c8:	4037d79b          	sraiw	a5,a5,0x3
    800032cc:	0107979b          	slliw	a5,a5,0x10
    800032d0:	4107d79b          	sraiw	a5,a5,0x10
    800032d4:	03079793          	slli	a5,a5,0x30
    800032d8:	0307d793          	srli	a5,a5,0x30
    800032dc:	0007879b          	sext.w	a5,a5
    800032e0:	0037f793          	andi	a5,a5,3
    800032e4:	0007879b          	sext.w	a5,a5
    800032e8:	00004717          	auipc	a4,0x4
    800032ec:	47070713          	addi	a4,a4,1136 # 80007758 <intpat>
    800032f0:	00379793          	slli	a5,a5,0x3
    800032f4:	00f707b3          	add	a5,a4,a5
    800032f8:	0007b783          	ld	a5,0(a5)
    800032fc:	fcf43c23          	sd	a5,-40(s0)
    80003300:	00400793          	li	a5,4
    80003304:	fef42423          	sw	a5,-24(s0)
    80003308:	0e00006f          	j	800033e8 <core_init_state+0x284>
    8000330c:	fca41783          	lh	a5,-54(s0)
    80003310:	4037d79b          	sraiw	a5,a5,0x3
    80003314:	0107979b          	slliw	a5,a5,0x10
    80003318:	4107d79b          	sraiw	a5,a5,0x10
    8000331c:	03079793          	slli	a5,a5,0x30
    80003320:	0307d793          	srli	a5,a5,0x30
    80003324:	0007879b          	sext.w	a5,a5
    80003328:	0037f793          	andi	a5,a5,3
    8000332c:	0007879b          	sext.w	a5,a5
    80003330:	00004717          	auipc	a4,0x4
    80003334:	44870713          	addi	a4,a4,1096 # 80007778 <floatpat>
    80003338:	00379793          	slli	a5,a5,0x3
    8000333c:	00f707b3          	add	a5,a4,a5
    80003340:	0007b783          	ld	a5,0(a5)
    80003344:	fcf43c23          	sd	a5,-40(s0)
    80003348:	00800793          	li	a5,8
    8000334c:	fef42423          	sw	a5,-24(s0)
    80003350:	0980006f          	j	800033e8 <core_init_state+0x284>
    80003354:	fca41783          	lh	a5,-54(s0)
    80003358:	4037d79b          	sraiw	a5,a5,0x3
    8000335c:	0107979b          	slliw	a5,a5,0x10
    80003360:	4107d79b          	sraiw	a5,a5,0x10
    80003364:	03079793          	slli	a5,a5,0x30
    80003368:	0307d793          	srli	a5,a5,0x30
    8000336c:	0007879b          	sext.w	a5,a5
    80003370:	0037f793          	andi	a5,a5,3
    80003374:	0007879b          	sext.w	a5,a5
    80003378:	00004717          	auipc	a4,0x4
    8000337c:	42070713          	addi	a4,a4,1056 # 80007798 <scipat>
    80003380:	00379793          	slli	a5,a5,0x3
    80003384:	00f707b3          	add	a5,a4,a5
    80003388:	0007b783          	ld	a5,0(a5)
    8000338c:	fcf43c23          	sd	a5,-40(s0)
    80003390:	00800793          	li	a5,8
    80003394:	fef42423          	sw	a5,-24(s0)
    80003398:	0500006f          	j	800033e8 <core_init_state+0x284>
    8000339c:	fca41783          	lh	a5,-54(s0)
    800033a0:	4037d79b          	sraiw	a5,a5,0x3
    800033a4:	0107979b          	slliw	a5,a5,0x10
    800033a8:	4107d79b          	sraiw	a5,a5,0x10
    800033ac:	03079793          	slli	a5,a5,0x30
    800033b0:	0307d793          	srli	a5,a5,0x30
    800033b4:	0007879b          	sext.w	a5,a5
    800033b8:	0037f793          	andi	a5,a5,3
    800033bc:	0007879b          	sext.w	a5,a5
    800033c0:	00004717          	auipc	a4,0x4
    800033c4:	3f870713          	addi	a4,a4,1016 # 800077b8 <errpat>
    800033c8:	00379793          	slli	a5,a5,0x3
    800033cc:	00f707b3          	add	a5,a4,a5
    800033d0:	0007b783          	ld	a5,0(a5)
    800033d4:	fcf43c23          	sd	a5,-40(s0)
    800033d8:	00800793          	li	a5,8
    800033dc:	fef42423          	sw	a5,-24(s0)
    800033e0:	0080006f          	j	800033e8 <core_init_state+0x284>
    800033e4:	00000013          	nop
    800033e8:	fec42703          	lw	a4,-20(s0)
    800033ec:	fe842783          	lw	a5,-24(s0)
    800033f0:	00f707bb          	addw	a5,a4,a5
    800033f4:	0007879b          	sext.w	a5,a5
    800033f8:	0017879b          	addiw	a5,a5,1
    800033fc:	0007871b          	sext.w	a4,a5
    80003400:	fcc42783          	lw	a5,-52(s0)
    80003404:	0007879b          	sext.w	a5,a5
    80003408:	daf760e3          	bltu	a4,a5,800031a8 <core_init_state+0x44>
    8000340c:	fcc42783          	lw	a5,-52(s0)
    80003410:	0017879b          	addiw	a5,a5,1
    80003414:	fcf42623          	sw	a5,-52(s0)
    80003418:	0200006f          	j	80003438 <core_init_state+0x2d4>
    8000341c:	fec46783          	lwu	a5,-20(s0)
    80003420:	fc043703          	ld	a4,-64(s0)
    80003424:	00f707b3          	add	a5,a4,a5
    80003428:	00078023          	sb	zero,0(a5)
    8000342c:	fec42783          	lw	a5,-20(s0)
    80003430:	0017879b          	addiw	a5,a5,1
    80003434:	fef42623          	sw	a5,-20(s0)
    80003438:	fec42703          	lw	a4,-20(s0)
    8000343c:	fcc42783          	lw	a5,-52(s0)
    80003440:	0007071b          	sext.w	a4,a4
    80003444:	0007879b          	sext.w	a5,a5
    80003448:	fcf76ae3          	bltu	a4,a5,8000341c <core_init_state+0x2b8>
    8000344c:	00000013          	nop
    80003450:	00000013          	nop
    80003454:	03813403          	ld	s0,56(sp)
    80003458:	04010113          	addi	sp,sp,64
    8000345c:	00008067          	ret

0000000080003460 <ee_isdigit>:
    80003460:	fd010113          	addi	sp,sp,-48
    80003464:	02813423          	sd	s0,40(sp)
    80003468:	03010413          	addi	s0,sp,48
    8000346c:	00050793          	mv	a5,a0
    80003470:	fcf40fa3          	sb	a5,-33(s0)
    80003474:	fdf44783          	lbu	a5,-33(s0)
    80003478:	0007871b          	sext.w	a4,a5
    8000347c:	02f00793          	li	a5,47
    80003480:	00e7b7b3          	sltu	a5,a5,a4
    80003484:	0ff7f713          	zext.b	a4,a5
    80003488:	fdf44783          	lbu	a5,-33(s0)
    8000348c:	0007869b          	sext.w	a3,a5
    80003490:	03900793          	li	a5,57
    80003494:	00d7b7b3          	sltu	a5,a5,a3
    80003498:	0017c793          	xori	a5,a5,1
    8000349c:	0ff7f793          	zext.b	a5,a5
    800034a0:	00f777b3          	and	a5,a4,a5
    800034a4:	0ff7f793          	zext.b	a5,a5
    800034a8:	fef407a3          	sb	a5,-17(s0)
    800034ac:	fef44783          	lbu	a5,-17(s0)
    800034b0:	00078513          	mv	a0,a5
    800034b4:	02813403          	ld	s0,40(sp)
    800034b8:	03010113          	addi	sp,sp,48
    800034bc:	00008067          	ret

00000000800034c0 <core_state_transition>:
    800034c0:	fd010113          	addi	sp,sp,-48
    800034c4:	02113423          	sd	ra,40(sp)
    800034c8:	02813023          	sd	s0,32(sp)
    800034cc:	03010413          	addi	s0,sp,48
    800034d0:	fca43c23          	sd	a0,-40(s0)
    800034d4:	fcb43823          	sd	a1,-48(s0)
    800034d8:	fd843783          	ld	a5,-40(s0)
    800034dc:	0007b783          	ld	a5,0(a5)
    800034e0:	fef43423          	sd	a5,-24(s0)
    800034e4:	fe042223          	sw	zero,-28(s0)
    800034e8:	3ac0006f          	j	80003894 <core_state_transition+0x3d4>
    800034ec:	fe843783          	ld	a5,-24(s0)
    800034f0:	0007c783          	lbu	a5,0(a5)
    800034f4:	fef401a3          	sb	a5,-29(s0)
    800034f8:	fe344783          	lbu	a5,-29(s0)
    800034fc:	0ff7f713          	zext.b	a4,a5
    80003500:	02c00793          	li	a5,44
    80003504:	00f71a63          	bne	a4,a5,80003518 <core_state_transition+0x58>
    80003508:	fe843783          	ld	a5,-24(s0)
    8000350c:	00178793          	addi	a5,a5,1
    80003510:	fef43423          	sd	a5,-24(s0)
    80003514:	39c0006f          	j	800038b0 <core_state_transition+0x3f0>
    80003518:	fe442783          	lw	a5,-28(s0)
    8000351c:	0007871b          	sext.w	a4,a5
    80003520:	00700793          	li	a5,7
    80003524:	34e7e463          	bltu	a5,a4,8000386c <core_state_transition+0x3ac>
    80003528:	fe446783          	lwu	a5,-28(s0)
    8000352c:	00279713          	slli	a4,a5,0x2
    80003530:	00004797          	auipc	a5,0x4
    80003534:	dc478793          	addi	a5,a5,-572 # 800072f4 <printf_+0x5a0>
    80003538:	00f707b3          	add	a5,a4,a5
    8000353c:	0007a783          	lw	a5,0(a5)
    80003540:	0007871b          	sext.w	a4,a5
    80003544:	00004797          	auipc	a5,0x4
    80003548:	db078793          	addi	a5,a5,-592 # 800072f4 <printf_+0x5a0>
    8000354c:	00f707b3          	add	a5,a4,a5
    80003550:	00078067          	jr	a5
    80003554:	fe344783          	lbu	a5,-29(s0)
    80003558:	00078513          	mv	a0,a5
    8000355c:	f05ff0ef          	jal	ra,80003460 <ee_isdigit>
    80003560:	00050793          	mv	a5,a0
    80003564:	00078863          	beqz	a5,80003574 <core_state_transition+0xb4>
    80003568:	00400793          	li	a5,4
    8000356c:	fef42223          	sw	a5,-28(s0)
    80003570:	06c0006f          	j	800035dc <core_state_transition+0x11c>
    80003574:	fe344783          	lbu	a5,-29(s0)
    80003578:	0ff7f713          	zext.b	a4,a5
    8000357c:	02b00793          	li	a5,43
    80003580:	00f70a63          	beq	a4,a5,80003594 <core_state_transition+0xd4>
    80003584:	fe344783          	lbu	a5,-29(s0)
    80003588:	0ff7f713          	zext.b	a4,a5
    8000358c:	02d00793          	li	a5,45
    80003590:	00f71863          	bne	a4,a5,800035a0 <core_state_transition+0xe0>
    80003594:	00200793          	li	a5,2
    80003598:	fef42223          	sw	a5,-28(s0)
    8000359c:	0400006f          	j	800035dc <core_state_transition+0x11c>
    800035a0:	fe344783          	lbu	a5,-29(s0)
    800035a4:	0ff7f713          	zext.b	a4,a5
    800035a8:	02e00793          	li	a5,46
    800035ac:	00f71863          	bne	a4,a5,800035bc <core_state_transition+0xfc>
    800035b0:	00500793          	li	a5,5
    800035b4:	fef42223          	sw	a5,-28(s0)
    800035b8:	0240006f          	j	800035dc <core_state_transition+0x11c>
    800035bc:	00100793          	li	a5,1
    800035c0:	fef42223          	sw	a5,-28(s0)
    800035c4:	fd043783          	ld	a5,-48(s0)
    800035c8:	00478793          	addi	a5,a5,4
    800035cc:	0007a703          	lw	a4,0(a5)
    800035d0:	0017071b          	addiw	a4,a4,1
    800035d4:	0007071b          	sext.w	a4,a4
    800035d8:	00e7a023          	sw	a4,0(a5)
    800035dc:	fd043783          	ld	a5,-48(s0)
    800035e0:	0007a783          	lw	a5,0(a5)
    800035e4:	0017879b          	addiw	a5,a5,1
    800035e8:	0007871b          	sext.w	a4,a5
    800035ec:	fd043783          	ld	a5,-48(s0)
    800035f0:	00e7a023          	sw	a4,0(a5)
    800035f4:	2940006f          	j	80003888 <core_state_transition+0x3c8>
    800035f8:	fe344783          	lbu	a5,-29(s0)
    800035fc:	00078513          	mv	a0,a5
    80003600:	e61ff0ef          	jal	ra,80003460 <ee_isdigit>
    80003604:	00050793          	mv	a5,a0
    80003608:	02078463          	beqz	a5,80003630 <core_state_transition+0x170>
    8000360c:	00400793          	li	a5,4
    80003610:	fef42223          	sw	a5,-28(s0)
    80003614:	fd043783          	ld	a5,-48(s0)
    80003618:	00878793          	addi	a5,a5,8
    8000361c:	0007a703          	lw	a4,0(a5)
    80003620:	0017071b          	addiw	a4,a4,1
    80003624:	0007071b          	sext.w	a4,a4
    80003628:	00e7a023          	sw	a4,0(a5)
    8000362c:	25c0006f          	j	80003888 <core_state_transition+0x3c8>
    80003630:	fe344783          	lbu	a5,-29(s0)
    80003634:	0ff7f713          	zext.b	a4,a5
    80003638:	02e00793          	li	a5,46
    8000363c:	02f71463          	bne	a4,a5,80003664 <core_state_transition+0x1a4>
    80003640:	00500793          	li	a5,5
    80003644:	fef42223          	sw	a5,-28(s0)
    80003648:	fd043783          	ld	a5,-48(s0)
    8000364c:	00878793          	addi	a5,a5,8
    80003650:	0007a703          	lw	a4,0(a5)
    80003654:	0017071b          	addiw	a4,a4,1
    80003658:	0007071b          	sext.w	a4,a4
    8000365c:	00e7a023          	sw	a4,0(a5)
    80003660:	2280006f          	j	80003888 <core_state_transition+0x3c8>
    80003664:	00100793          	li	a5,1
    80003668:	fef42223          	sw	a5,-28(s0)
    8000366c:	fd043783          	ld	a5,-48(s0)
    80003670:	00878793          	addi	a5,a5,8
    80003674:	0007a703          	lw	a4,0(a5)
    80003678:	0017071b          	addiw	a4,a4,1
    8000367c:	0007071b          	sext.w	a4,a4
    80003680:	00e7a023          	sw	a4,0(a5)
    80003684:	2040006f          	j	80003888 <core_state_transition+0x3c8>
    80003688:	fe344783          	lbu	a5,-29(s0)
    8000368c:	0ff7f713          	zext.b	a4,a5
    80003690:	02e00793          	li	a5,46
    80003694:	02f71463          	bne	a4,a5,800036bc <core_state_transition+0x1fc>
    80003698:	00500793          	li	a5,5
    8000369c:	fef42223          	sw	a5,-28(s0)
    800036a0:	fd043783          	ld	a5,-48(s0)
    800036a4:	01078793          	addi	a5,a5,16
    800036a8:	0007a703          	lw	a4,0(a5)
    800036ac:	0017071b          	addiw	a4,a4,1
    800036b0:	0007071b          	sext.w	a4,a4
    800036b4:	00e7a023          	sw	a4,0(a5)
    800036b8:	1bc0006f          	j	80003874 <core_state_transition+0x3b4>
    800036bc:	fe344783          	lbu	a5,-29(s0)
    800036c0:	00078513          	mv	a0,a5
    800036c4:	d9dff0ef          	jal	ra,80003460 <ee_isdigit>
    800036c8:	00050793          	mv	a5,a0
    800036cc:	1a079463          	bnez	a5,80003874 <core_state_transition+0x3b4>
    800036d0:	00100793          	li	a5,1
    800036d4:	fef42223          	sw	a5,-28(s0)
    800036d8:	fd043783          	ld	a5,-48(s0)
    800036dc:	01078793          	addi	a5,a5,16
    800036e0:	0007a703          	lw	a4,0(a5)
    800036e4:	0017071b          	addiw	a4,a4,1
    800036e8:	0007071b          	sext.w	a4,a4
    800036ec:	00e7a023          	sw	a4,0(a5)
    800036f0:	1840006f          	j	80003874 <core_state_transition+0x3b4>
    800036f4:	fe344783          	lbu	a5,-29(s0)
    800036f8:	0ff7f713          	zext.b	a4,a5
    800036fc:	04500793          	li	a5,69
    80003700:	00f70a63          	beq	a4,a5,80003714 <core_state_transition+0x254>
    80003704:	fe344783          	lbu	a5,-29(s0)
    80003708:	0ff7f713          	zext.b	a4,a5
    8000370c:	06500793          	li	a5,101
    80003710:	02f71463          	bne	a4,a5,80003738 <core_state_transition+0x278>
    80003714:	00300793          	li	a5,3
    80003718:	fef42223          	sw	a5,-28(s0)
    8000371c:	fd043783          	ld	a5,-48(s0)
    80003720:	01478793          	addi	a5,a5,20
    80003724:	0007a703          	lw	a4,0(a5)
    80003728:	0017071b          	addiw	a4,a4,1
    8000372c:	0007071b          	sext.w	a4,a4
    80003730:	00e7a023          	sw	a4,0(a5)
    80003734:	1480006f          	j	8000387c <core_state_transition+0x3bc>
    80003738:	fe344783          	lbu	a5,-29(s0)
    8000373c:	00078513          	mv	a0,a5
    80003740:	d21ff0ef          	jal	ra,80003460 <ee_isdigit>
    80003744:	00050793          	mv	a5,a0
    80003748:	12079a63          	bnez	a5,8000387c <core_state_transition+0x3bc>
    8000374c:	00100793          	li	a5,1
    80003750:	fef42223          	sw	a5,-28(s0)
    80003754:	fd043783          	ld	a5,-48(s0)
    80003758:	01478793          	addi	a5,a5,20
    8000375c:	0007a703          	lw	a4,0(a5)
    80003760:	0017071b          	addiw	a4,a4,1
    80003764:	0007071b          	sext.w	a4,a4
    80003768:	00e7a023          	sw	a4,0(a5)
    8000376c:	1100006f          	j	8000387c <core_state_transition+0x3bc>
    80003770:	fe344783          	lbu	a5,-29(s0)
    80003774:	0ff7f713          	zext.b	a4,a5
    80003778:	02b00793          	li	a5,43
    8000377c:	00f70a63          	beq	a4,a5,80003790 <core_state_transition+0x2d0>
    80003780:	fe344783          	lbu	a5,-29(s0)
    80003784:	0ff7f713          	zext.b	a4,a5
    80003788:	02d00793          	li	a5,45
    8000378c:	02f71463          	bne	a4,a5,800037b4 <core_state_transition+0x2f4>
    80003790:	00600793          	li	a5,6
    80003794:	fef42223          	sw	a5,-28(s0)
    80003798:	fd043783          	ld	a5,-48(s0)
    8000379c:	00c78793          	addi	a5,a5,12
    800037a0:	0007a703          	lw	a4,0(a5)
    800037a4:	0017071b          	addiw	a4,a4,1
    800037a8:	0007071b          	sext.w	a4,a4
    800037ac:	00e7a023          	sw	a4,0(a5)
    800037b0:	0d80006f          	j	80003888 <core_state_transition+0x3c8>
    800037b4:	00100793          	li	a5,1
    800037b8:	fef42223          	sw	a5,-28(s0)
    800037bc:	fd043783          	ld	a5,-48(s0)
    800037c0:	00c78793          	addi	a5,a5,12
    800037c4:	0007a703          	lw	a4,0(a5)
    800037c8:	0017071b          	addiw	a4,a4,1
    800037cc:	0007071b          	sext.w	a4,a4
    800037d0:	00e7a023          	sw	a4,0(a5)
    800037d4:	0b40006f          	j	80003888 <core_state_transition+0x3c8>
    800037d8:	fe344783          	lbu	a5,-29(s0)
    800037dc:	00078513          	mv	a0,a5
    800037e0:	c81ff0ef          	jal	ra,80003460 <ee_isdigit>
    800037e4:	00050793          	mv	a5,a0
    800037e8:	02078463          	beqz	a5,80003810 <core_state_transition+0x350>
    800037ec:	00700793          	li	a5,7
    800037f0:	fef42223          	sw	a5,-28(s0)
    800037f4:	fd043783          	ld	a5,-48(s0)
    800037f8:	01878793          	addi	a5,a5,24
    800037fc:	0007a703          	lw	a4,0(a5)
    80003800:	0017071b          	addiw	a4,a4,1
    80003804:	0007071b          	sext.w	a4,a4
    80003808:	00e7a023          	sw	a4,0(a5)
    8000380c:	07c0006f          	j	80003888 <core_state_transition+0x3c8>
    80003810:	00100793          	li	a5,1
    80003814:	fef42223          	sw	a5,-28(s0)
    80003818:	fd043783          	ld	a5,-48(s0)
    8000381c:	01878793          	addi	a5,a5,24
    80003820:	0007a703          	lw	a4,0(a5)
    80003824:	0017071b          	addiw	a4,a4,1
    80003828:	0007071b          	sext.w	a4,a4
    8000382c:	00e7a023          	sw	a4,0(a5)
    80003830:	0580006f          	j	80003888 <core_state_transition+0x3c8>
    80003834:	fe344783          	lbu	a5,-29(s0)
    80003838:	00078513          	mv	a0,a5
    8000383c:	c25ff0ef          	jal	ra,80003460 <ee_isdigit>
    80003840:	00050793          	mv	a5,a0
    80003844:	04079063          	bnez	a5,80003884 <core_state_transition+0x3c4>
    80003848:	00100793          	li	a5,1
    8000384c:	fef42223          	sw	a5,-28(s0)
    80003850:	fd043783          	ld	a5,-48(s0)
    80003854:	00478793          	addi	a5,a5,4
    80003858:	0007a703          	lw	a4,0(a5)
    8000385c:	0017071b          	addiw	a4,a4,1
    80003860:	0007071b          	sext.w	a4,a4
    80003864:	00e7a023          	sw	a4,0(a5)
    80003868:	01c0006f          	j	80003884 <core_state_transition+0x3c4>
    8000386c:	00000013          	nop
    80003870:	0180006f          	j	80003888 <core_state_transition+0x3c8>
    80003874:	00000013          	nop
    80003878:	0100006f          	j	80003888 <core_state_transition+0x3c8>
    8000387c:	00000013          	nop
    80003880:	0080006f          	j	80003888 <core_state_transition+0x3c8>
    80003884:	00000013          	nop
    80003888:	fe843783          	ld	a5,-24(s0)
    8000388c:	00178793          	addi	a5,a5,1
    80003890:	fef43423          	sd	a5,-24(s0)
    80003894:	fe843783          	ld	a5,-24(s0)
    80003898:	0007c783          	lbu	a5,0(a5)
    8000389c:	00078a63          	beqz	a5,800038b0 <core_state_transition+0x3f0>
    800038a0:	fe442783          	lw	a5,-28(s0)
    800038a4:	0007871b          	sext.w	a4,a5
    800038a8:	00100793          	li	a5,1
    800038ac:	c4f710e3          	bne	a4,a5,800034ec <core_state_transition+0x2c>
    800038b0:	fd843783          	ld	a5,-40(s0)
    800038b4:	fe843703          	ld	a4,-24(s0)
    800038b8:	00e7b023          	sd	a4,0(a5)
    800038bc:	fe442783          	lw	a5,-28(s0)
    800038c0:	00078513          	mv	a0,a5
    800038c4:	02813083          	ld	ra,40(sp)
    800038c8:	02013403          	ld	s0,32(sp)
    800038cc:	03010113          	addi	sp,sp,48
    800038d0:	00008067          	ret

00000000800038d4 <get_seed_32>:
    800038d4:	fd010113          	addi	sp,sp,-48
    800038d8:	02813423          	sd	s0,40(sp)
    800038dc:	03010413          	addi	s0,sp,48
    800038e0:	00050793          	mv	a5,a0
    800038e4:	fcf42e23          	sw	a5,-36(s0)
    800038e8:	fdc42783          	lw	a5,-36(s0)
    800038ec:	0007871b          	sext.w	a4,a5
    800038f0:	00500793          	li	a5,5
    800038f4:	08e7ea63          	bltu	a5,a4,80003988 <get_seed_32+0xb4>
    800038f8:	fdc46783          	lwu	a5,-36(s0)
    800038fc:	00279713          	slli	a4,a5,0x2
    80003900:	00004797          	auipc	a5,0x4
    80003904:	a1478793          	addi	a5,a5,-1516 # 80007314 <printf_+0x5c0>
    80003908:	00f707b3          	add	a5,a4,a5
    8000390c:	0007a783          	lw	a5,0(a5)
    80003910:	0007871b          	sext.w	a4,a5
    80003914:	00004797          	auipc	a5,0x4
    80003918:	a0078793          	addi	a5,a5,-1536 # 80007314 <printf_+0x5c0>
    8000391c:	00f707b3          	add	a5,a4,a5
    80003920:	00078067          	jr	a5
    80003924:	00005797          	auipc	a5,0x5
    80003928:	eb878793          	addi	a5,a5,-328 # 800087dc <seed1_volatile>
    8000392c:	0007a783          	lw	a5,0(a5)
    80003930:	fef42623          	sw	a5,-20(s0)
    80003934:	05c0006f          	j	80003990 <get_seed_32+0xbc>
    80003938:	00005797          	auipc	a5,0x5
    8000393c:	ea878793          	addi	a5,a5,-344 # 800087e0 <seed2_volatile>
    80003940:	0007a783          	lw	a5,0(a5)
    80003944:	fef42623          	sw	a5,-20(s0)
    80003948:	0480006f          	j	80003990 <get_seed_32+0xbc>
    8000394c:	00004797          	auipc	a5,0x4
    80003950:	e8c78793          	addi	a5,a5,-372 # 800077d8 <seed3_volatile>
    80003954:	0007a783          	lw	a5,0(a5)
    80003958:	fef42623          	sw	a5,-20(s0)
    8000395c:	0340006f          	j	80003990 <get_seed_32+0xbc>
    80003960:	00004797          	auipc	a5,0x4
    80003964:	e7c78793          	addi	a5,a5,-388 # 800077dc <seed4_volatile>
    80003968:	0007a783          	lw	a5,0(a5)
    8000396c:	fef42623          	sw	a5,-20(s0)
    80003970:	0200006f          	j	80003990 <get_seed_32+0xbc>
    80003974:	00005797          	auipc	a5,0x5
    80003978:	e7078793          	addi	a5,a5,-400 # 800087e4 <seed5_volatile>
    8000397c:	0007a783          	lw	a5,0(a5)
    80003980:	fef42623          	sw	a5,-20(s0)
    80003984:	00c0006f          	j	80003990 <get_seed_32+0xbc>
    80003988:	fe042623          	sw	zero,-20(s0)
    8000398c:	00000013          	nop
    80003990:	fec42783          	lw	a5,-20(s0)
    80003994:	00078513          	mv	a0,a5
    80003998:	02813403          	ld	s0,40(sp)
    8000399c:	03010113          	addi	sp,sp,48
    800039a0:	00008067          	ret

00000000800039a4 <crcu8>:
    800039a4:	fd010113          	addi	sp,sp,-48
    800039a8:	02813423          	sd	s0,40(sp)
    800039ac:	03010413          	addi	s0,sp,48
    800039b0:	00050793          	mv	a5,a0
    800039b4:	00058713          	mv	a4,a1
    800039b8:	fcf40fa3          	sb	a5,-33(s0)
    800039bc:	00070793          	mv	a5,a4
    800039c0:	fcf41e23          	sh	a5,-36(s0)
    800039c4:	fe0407a3          	sb	zero,-17(s0)
    800039c8:	fe0406a3          	sb	zero,-19(s0)
    800039cc:	fe040723          	sb	zero,-18(s0)
    800039d0:	fe0407a3          	sb	zero,-17(s0)
    800039d4:	0b80006f          	j	80003a8c <crcu8+0xe8>
    800039d8:	fdc45783          	lhu	a5,-36(s0)
    800039dc:	0187971b          	slliw	a4,a5,0x18
    800039e0:	4187571b          	sraiw	a4,a4,0x18
    800039e4:	fdf40783          	lb	a5,-33(s0)
    800039e8:	00f747b3          	xor	a5,a4,a5
    800039ec:	0187979b          	slliw	a5,a5,0x18
    800039f0:	4187d79b          	sraiw	a5,a5,0x18
    800039f4:	0ff7f793          	zext.b	a5,a5
    800039f8:	0017f793          	andi	a5,a5,1
    800039fc:	fef406a3          	sb	a5,-19(s0)
    80003a00:	fdf44783          	lbu	a5,-33(s0)
    80003a04:	0017d79b          	srliw	a5,a5,0x1
    80003a08:	fcf40fa3          	sb	a5,-33(s0)
    80003a0c:	fed44783          	lbu	a5,-19(s0)
    80003a10:	0ff7f713          	zext.b	a4,a5
    80003a14:	00100793          	li	a5,1
    80003a18:	02f71263          	bne	a4,a5,80003a3c <crcu8+0x98>
    80003a1c:	fdc45703          	lhu	a4,-36(s0)
    80003a20:	000047b7          	lui	a5,0x4
    80003a24:	00278793          	addi	a5,a5,2 # 4002 <_start-0x7fffbffe>
    80003a28:	00f747b3          	xor	a5,a4,a5
    80003a2c:	fcf41e23          	sh	a5,-36(s0)
    80003a30:	00100793          	li	a5,1
    80003a34:	fef40723          	sb	a5,-18(s0)
    80003a38:	0080006f          	j	80003a40 <crcu8+0x9c>
    80003a3c:	fe040723          	sb	zero,-18(s0)
    80003a40:	fdc45783          	lhu	a5,-36(s0)
    80003a44:	0017d79b          	srliw	a5,a5,0x1
    80003a48:	fcf41e23          	sh	a5,-36(s0)
    80003a4c:	fee44783          	lbu	a5,-18(s0)
    80003a50:	0ff7f793          	zext.b	a5,a5
    80003a54:	00078c63          	beqz	a5,80003a6c <crcu8+0xc8>
    80003a58:	fdc45703          	lhu	a4,-36(s0)
    80003a5c:	ffff87b7          	lui	a5,0xffff8
    80003a60:	00f767b3          	or	a5,a4,a5
    80003a64:	fcf41e23          	sh	a5,-36(s0)
    80003a68:	0180006f          	j	80003a80 <crcu8+0xdc>
    80003a6c:	fdc45703          	lhu	a4,-36(s0)
    80003a70:	000087b7          	lui	a5,0x8
    80003a74:	fff78793          	addi	a5,a5,-1 # 7fff <_start-0x7fff8001>
    80003a78:	00f777b3          	and	a5,a4,a5
    80003a7c:	fcf41e23          	sh	a5,-36(s0)
    80003a80:	fef44783          	lbu	a5,-17(s0)
    80003a84:	0017879b          	addiw	a5,a5,1
    80003a88:	fef407a3          	sb	a5,-17(s0)
    80003a8c:	fef44783          	lbu	a5,-17(s0)
    80003a90:	0ff7f713          	zext.b	a4,a5
    80003a94:	00700793          	li	a5,7
    80003a98:	f4e7f0e3          	bgeu	a5,a4,800039d8 <crcu8+0x34>
    80003a9c:	fdc45783          	lhu	a5,-36(s0)
    80003aa0:	00078513          	mv	a0,a5
    80003aa4:	02813403          	ld	s0,40(sp)
    80003aa8:	03010113          	addi	sp,sp,48
    80003aac:	00008067          	ret

0000000080003ab0 <crcu16>:
    80003ab0:	fe010113          	addi	sp,sp,-32
    80003ab4:	00113c23          	sd	ra,24(sp)
    80003ab8:	00813823          	sd	s0,16(sp)
    80003abc:	02010413          	addi	s0,sp,32
    80003ac0:	00050793          	mv	a5,a0
    80003ac4:	00058713          	mv	a4,a1
    80003ac8:	fef41723          	sh	a5,-18(s0)
    80003acc:	00070793          	mv	a5,a4
    80003ad0:	fef41623          	sh	a5,-20(s0)
    80003ad4:	fee45783          	lhu	a5,-18(s0)
    80003ad8:	0ff7f793          	zext.b	a5,a5
    80003adc:	fec45703          	lhu	a4,-20(s0)
    80003ae0:	00070593          	mv	a1,a4
    80003ae4:	00078513          	mv	a0,a5
    80003ae8:	ebdff0ef          	jal	ra,800039a4 <crcu8>
    80003aec:	00050793          	mv	a5,a0
    80003af0:	fef41623          	sh	a5,-20(s0)
    80003af4:	fee45783          	lhu	a5,-18(s0)
    80003af8:	0087d79b          	srliw	a5,a5,0x8
    80003afc:	03079793          	slli	a5,a5,0x30
    80003b00:	0307d793          	srli	a5,a5,0x30
    80003b04:	0ff7f793          	zext.b	a5,a5
    80003b08:	fec45703          	lhu	a4,-20(s0)
    80003b0c:	00070593          	mv	a1,a4
    80003b10:	00078513          	mv	a0,a5
    80003b14:	e91ff0ef          	jal	ra,800039a4 <crcu8>
    80003b18:	00050793          	mv	a5,a0
    80003b1c:	fef41623          	sh	a5,-20(s0)
    80003b20:	fec45783          	lhu	a5,-20(s0)
    80003b24:	00078513          	mv	a0,a5
    80003b28:	01813083          	ld	ra,24(sp)
    80003b2c:	01013403          	ld	s0,16(sp)
    80003b30:	02010113          	addi	sp,sp,32
    80003b34:	00008067          	ret

0000000080003b38 <crcu32>:
    80003b38:	fe010113          	addi	sp,sp,-32
    80003b3c:	00113c23          	sd	ra,24(sp)
    80003b40:	00813823          	sd	s0,16(sp)
    80003b44:	02010413          	addi	s0,sp,32
    80003b48:	00050793          	mv	a5,a0
    80003b4c:	00058713          	mv	a4,a1
    80003b50:	fef42623          	sw	a5,-20(s0)
    80003b54:	00070793          	mv	a5,a4
    80003b58:	fef41523          	sh	a5,-22(s0)
    80003b5c:	fec42783          	lw	a5,-20(s0)
    80003b60:	0107979b          	slliw	a5,a5,0x10
    80003b64:	4107d79b          	sraiw	a5,a5,0x10
    80003b68:	fea45703          	lhu	a4,-22(s0)
    80003b6c:	00070593          	mv	a1,a4
    80003b70:	00078513          	mv	a0,a5
    80003b74:	050000ef          	jal	ra,80003bc4 <crc16>
    80003b78:	00050793          	mv	a5,a0
    80003b7c:	fef41523          	sh	a5,-22(s0)
    80003b80:	fec42783          	lw	a5,-20(s0)
    80003b84:	0107d79b          	srliw	a5,a5,0x10
    80003b88:	0007879b          	sext.w	a5,a5
    80003b8c:	0107979b          	slliw	a5,a5,0x10
    80003b90:	4107d79b          	sraiw	a5,a5,0x10
    80003b94:	fea45703          	lhu	a4,-22(s0)
    80003b98:	00070593          	mv	a1,a4
    80003b9c:	00078513          	mv	a0,a5
    80003ba0:	024000ef          	jal	ra,80003bc4 <crc16>
    80003ba4:	00050793          	mv	a5,a0
    80003ba8:	fef41523          	sh	a5,-22(s0)
    80003bac:	fea45783          	lhu	a5,-22(s0)
    80003bb0:	00078513          	mv	a0,a5
    80003bb4:	01813083          	ld	ra,24(sp)
    80003bb8:	01013403          	ld	s0,16(sp)
    80003bbc:	02010113          	addi	sp,sp,32
    80003bc0:	00008067          	ret

0000000080003bc4 <crc16>:
    80003bc4:	fe010113          	addi	sp,sp,-32
    80003bc8:	00113c23          	sd	ra,24(sp)
    80003bcc:	00813823          	sd	s0,16(sp)
    80003bd0:	02010413          	addi	s0,sp,32
    80003bd4:	00050793          	mv	a5,a0
    80003bd8:	00058713          	mv	a4,a1
    80003bdc:	fef41723          	sh	a5,-18(s0)
    80003be0:	00070793          	mv	a5,a4
    80003be4:	fef41623          	sh	a5,-20(s0)
    80003be8:	fee45783          	lhu	a5,-18(s0)
    80003bec:	fec45703          	lhu	a4,-20(s0)
    80003bf0:	00070593          	mv	a1,a4
    80003bf4:	00078513          	mv	a0,a5
    80003bf8:	eb9ff0ef          	jal	ra,80003ab0 <crcu16>
    80003bfc:	00050793          	mv	a5,a0
    80003c00:	00078513          	mv	a0,a5
    80003c04:	01813083          	ld	ra,24(sp)
    80003c08:	01013403          	ld	s0,16(sp)
    80003c0c:	02010113          	addi	sp,sp,32
    80003c10:	00008067          	ret

0000000080003c14 <check_data_types>:
    80003c14:	fe010113          	addi	sp,sp,-32
    80003c18:	00113c23          	sd	ra,24(sp)
    80003c1c:	00813823          	sd	s0,16(sp)
    80003c20:	02010413          	addi	s0,sp,32
    80003c24:	fe0407a3          	sb	zero,-17(s0)
    80003c28:	fef44783          	lbu	a5,-17(s0)
    80003c2c:	0ff7f793          	zext.b	a5,a5
    80003c30:	00078863          	beqz	a5,80003c40 <check_data_types+0x2c>
    80003c34:	00003517          	auipc	a0,0x3
    80003c38:	6fc50513          	addi	a0,a0,1788 # 80007330 <printf_+0x5dc>
    80003c3c:	118030ef          	jal	ra,80006d54 <printf_>
    80003c40:	fef44783          	lbu	a5,-17(s0)
    80003c44:	00078513          	mv	a0,a5
    80003c48:	01813083          	ld	ra,24(sp)
    80003c4c:	01013403          	ld	s0,16(sp)
    80003c50:	02010113          	addi	sp,sp,32
    80003c54:	00008067          	ret

0000000080003c58 <start_time>:
    80003c58:	fe010113          	addi	sp,sp,-32
    80003c5c:	00813c23          	sd	s0,24(sp)
    80003c60:	02010413          	addi	s0,sp,32
    80003c64:	b00027f3          	csrr	a5,mcycle
    80003c68:	fef42623          	sw	a5,-20(s0)
    80003c6c:	fec42703          	lw	a4,-20(s0)
    80003c70:	00005797          	auipc	a5,0x5
    80003c74:	b1878793          	addi	a5,a5,-1256 # 80008788 <start_time_val>
    80003c78:	00e7b023          	sd	a4,0(a5)
    80003c7c:	00000013          	nop
    80003c80:	01813403          	ld	s0,24(sp)
    80003c84:	02010113          	addi	sp,sp,32
    80003c88:	00008067          	ret

0000000080003c8c <stop_time>:
    80003c8c:	fe010113          	addi	sp,sp,-32
    80003c90:	00813c23          	sd	s0,24(sp)
    80003c94:	02010413          	addi	s0,sp,32
    80003c98:	b00027f3          	csrr	a5,mcycle
    80003c9c:	fef42623          	sw	a5,-20(s0)
    80003ca0:	fec42703          	lw	a4,-20(s0)
    80003ca4:	00005797          	auipc	a5,0x5
    80003ca8:	aec78793          	addi	a5,a5,-1300 # 80008790 <stop_time_val>
    80003cac:	00e7b023          	sd	a4,0(a5)
    80003cb0:	00000013          	nop
    80003cb4:	01813403          	ld	s0,24(sp)
    80003cb8:	02010113          	addi	sp,sp,32
    80003cbc:	00008067          	ret

0000000080003cc0 <get_time>:
    80003cc0:	fe010113          	addi	sp,sp,-32
    80003cc4:	00813c23          	sd	s0,24(sp)
    80003cc8:	02010413          	addi	s0,sp,32
    80003ccc:	00005797          	auipc	a5,0x5
    80003cd0:	ac478793          	addi	a5,a5,-1340 # 80008790 <stop_time_val>
    80003cd4:	0007b783          	ld	a5,0(a5)
    80003cd8:	0007871b          	sext.w	a4,a5
    80003cdc:	00005797          	auipc	a5,0x5
    80003ce0:	aac78793          	addi	a5,a5,-1364 # 80008788 <start_time_val>
    80003ce4:	0007b783          	ld	a5,0(a5)
    80003ce8:	0007879b          	sext.w	a5,a5
    80003cec:	40f707bb          	subw	a5,a4,a5
    80003cf0:	fef42623          	sw	a5,-20(s0)
    80003cf4:	fec42783          	lw	a5,-20(s0)
    80003cf8:	00078513          	mv	a0,a5
    80003cfc:	01813403          	ld	s0,24(sp)
    80003d00:	02010113          	addi	sp,sp,32
    80003d04:	00008067          	ret

0000000080003d08 <time_in_secs>:
    80003d08:	fd010113          	addi	sp,sp,-48
    80003d0c:	02813423          	sd	s0,40(sp)
    80003d10:	03010413          	addi	s0,sp,48
    80003d14:	00050793          	mv	a5,a0
    80003d18:	fcf42e23          	sw	a5,-36(s0)
    80003d1c:	fdc42703          	lw	a4,-36(s0)
    80003d20:	3e800793          	li	a5,1000
    80003d24:	02f757bb          	divuw	a5,a4,a5
    80003d28:	fef42623          	sw	a5,-20(s0)
    80003d2c:	fec42783          	lw	a5,-20(s0)
    80003d30:	00078513          	mv	a0,a5
    80003d34:	02813403          	ld	s0,40(sp)
    80003d38:	03010113          	addi	sp,sp,48
    80003d3c:	00008067          	ret

0000000080003d40 <portable_init>:
    80003d40:	fd010113          	addi	sp,sp,-48
    80003d44:	02813423          	sd	s0,40(sp)
    80003d48:	03010413          	addi	s0,sp,48
    80003d4c:	fea43423          	sd	a0,-24(s0)
    80003d50:	feb43023          	sd	a1,-32(s0)
    80003d54:	fcc43c23          	sd	a2,-40(s0)
    80003d58:	fe843783          	ld	a5,-24(s0)
    80003d5c:	00100713          	li	a4,1
    80003d60:	00e78023          	sb	a4,0(a5)
    80003d64:	00000013          	nop
    80003d68:	02813403          	ld	s0,40(sp)
    80003d6c:	03010113          	addi	sp,sp,48
    80003d70:	00008067          	ret

0000000080003d74 <portable_fini>:
    80003d74:	fe010113          	addi	sp,sp,-32
    80003d78:	00813c23          	sd	s0,24(sp)
    80003d7c:	02010413          	addi	s0,sp,32
    80003d80:	fea43423          	sd	a0,-24(s0)
    80003d84:	fe843783          	ld	a5,-24(s0)
    80003d88:	00078023          	sb	zero,0(a5)
    80003d8c:	00000013          	nop
    80003d90:	01813403          	ld	s0,24(sp)
    80003d94:	02010113          	addi	sp,sp,32
    80003d98:	00008067          	ret

0000000080003d9c <whisperPutc>:
    80003d9c:	fe010113          	addi	sp,sp,-32
    80003da0:	00813c23          	sd	s0,24(sp)
    80003da4:	02010413          	addi	s0,sp,32
    80003da8:	00050793          	mv	a5,a0
    80003dac:	fef407a3          	sb	a5,-17(s0)
    80003db0:	01a0b7b7          	lui	a5,0x1a0b
    80003db4:	00779793          	slli	a5,a5,0x7
    80003db8:	fef44703          	lbu	a4,-17(s0)
    80003dbc:	00e78023          	sb	a4,0(a5) # 1a0b000 <_start-0x7e5f5000>
    80003dc0:	fef44783          	lbu	a5,-17(s0)
    80003dc4:	0007879b          	sext.w	a5,a5
    80003dc8:	00078513          	mv	a0,a5
    80003dcc:	01813403          	ld	s0,24(sp)
    80003dd0:	02010113          	addi	sp,sp,32
    80003dd4:	00008067          	ret

0000000080003dd8 <whisperPuts>:
    80003dd8:	fe010113          	addi	sp,sp,-32
    80003ddc:	00113c23          	sd	ra,24(sp)
    80003de0:	00813823          	sd	s0,16(sp)
    80003de4:	02010413          	addi	s0,sp,32
    80003de8:	fea43423          	sd	a0,-24(s0)
    80003dec:	01c0006f          	j	80003e08 <whisperPuts+0x30>
    80003df0:	fe843783          	ld	a5,-24(s0)
    80003df4:	00178713          	addi	a4,a5,1
    80003df8:	fee43423          	sd	a4,-24(s0)
    80003dfc:	0007c783          	lbu	a5,0(a5)
    80003e00:	00078513          	mv	a0,a5
    80003e04:	f99ff0ef          	jal	ra,80003d9c <whisperPutc>
    80003e08:	fe843783          	ld	a5,-24(s0)
    80003e0c:	0007c783          	lbu	a5,0(a5)
    80003e10:	fe0790e3          	bnez	a5,80003df0 <whisperPuts+0x18>
    80003e14:	00100793          	li	a5,1
    80003e18:	00078513          	mv	a0,a5
    80003e1c:	01813083          	ld	ra,24(sp)
    80003e20:	01013403          	ld	s0,16(sp)
    80003e24:	02010113          	addi	sp,sp,32
    80003e28:	00008067          	ret

0000000080003e2c <whisperPrintUnsigned>:
    80003e2c:	fb010113          	addi	sp,sp,-80
    80003e30:	04113423          	sd	ra,72(sp)
    80003e34:	04813023          	sd	s0,64(sp)
    80003e38:	05010413          	addi	s0,sp,80
    80003e3c:	00050793          	mv	a5,a0
    80003e40:	00058693          	mv	a3,a1
    80003e44:	00060713          	mv	a4,a2
    80003e48:	faf42e23          	sw	a5,-68(s0)
    80003e4c:	00068793          	mv	a5,a3
    80003e50:	faf42c23          	sw	a5,-72(s0)
    80003e54:	00070793          	mv	a5,a4
    80003e58:	faf40ba3          	sb	a5,-73(s0)
    80003e5c:	fe042623          	sw	zero,-20(s0)
    80003e60:	fbc42703          	lw	a4,-68(s0)
    80003e64:	00a00793          	li	a5,10
    80003e68:	02f777bb          	remuw	a5,a4,a5
    80003e6c:	0007879b          	sext.w	a5,a5
    80003e70:	0ff7f793          	zext.b	a5,a5
    80003e74:	0307879b          	addiw	a5,a5,48
    80003e78:	fcf40da3          	sb	a5,-37(s0)
    80003e7c:	fbc42703          	lw	a4,-68(s0)
    80003e80:	00a00793          	li	a5,10
    80003e84:	02f757bb          	divuw	a5,a4,a5
    80003e88:	faf42e23          	sw	a5,-68(s0)
    80003e8c:	fec42783          	lw	a5,-20(s0)
    80003e90:	0017871b          	addiw	a4,a5,1
    80003e94:	fee42623          	sw	a4,-20(s0)
    80003e98:	ff040713          	addi	a4,s0,-16
    80003e9c:	00f707b3          	add	a5,a4,a5
    80003ea0:	fdb44703          	lbu	a4,-37(s0)
    80003ea4:	fce78823          	sb	a4,-48(a5)
    80003ea8:	fbc42783          	lw	a5,-68(s0)
    80003eac:	0007879b          	sext.w	a5,a5
    80003eb0:	fa0798e3          	bnez	a5,80003e60 <whisperPrintUnsigned+0x34>
    80003eb4:	fec42783          	lw	a5,-20(s0)
    80003eb8:	fef42423          	sw	a5,-24(s0)
    80003ebc:	01c0006f          	j	80003ed8 <whisperPrintUnsigned+0xac>
    80003ec0:	fb744783          	lbu	a5,-73(s0)
    80003ec4:	00078513          	mv	a0,a5
    80003ec8:	ed5ff0ef          	jal	ra,80003d9c <whisperPutc>
    80003ecc:	fe842783          	lw	a5,-24(s0)
    80003ed0:	0017879b          	addiw	a5,a5,1
    80003ed4:	fef42423          	sw	a5,-24(s0)
    80003ed8:	fe842703          	lw	a4,-24(s0)
    80003edc:	fb842783          	lw	a5,-72(s0)
    80003ee0:	0007071b          	sext.w	a4,a4
    80003ee4:	0007879b          	sext.w	a5,a5
    80003ee8:	fcf74ce3          	blt	a4,a5,80003ec0 <whisperPrintUnsigned+0x94>
    80003eec:	fec42783          	lw	a5,-20(s0)
    80003ef0:	fff78793          	addi	a5,a5,-1
    80003ef4:	fc040713          	addi	a4,s0,-64
    80003ef8:	00f707b3          	add	a5,a4,a5
    80003efc:	fef43023          	sd	a5,-32(s0)
    80003f00:	fc042e23          	sw	zero,-36(s0)
    80003f04:	0280006f          	j	80003f2c <whisperPrintUnsigned+0x100>
    80003f08:	fe043783          	ld	a5,-32(s0)
    80003f0c:	fff78713          	addi	a4,a5,-1
    80003f10:	fee43023          	sd	a4,-32(s0)
    80003f14:	0007c783          	lbu	a5,0(a5)
    80003f18:	00078513          	mv	a0,a5
    80003f1c:	e81ff0ef          	jal	ra,80003d9c <whisperPutc>
    80003f20:	fdc42783          	lw	a5,-36(s0)
    80003f24:	0017879b          	addiw	a5,a5,1
    80003f28:	fcf42e23          	sw	a5,-36(s0)
    80003f2c:	fdc42703          	lw	a4,-36(s0)
    80003f30:	fec42783          	lw	a5,-20(s0)
    80003f34:	0007071b          	sext.w	a4,a4
    80003f38:	0007879b          	sext.w	a5,a5
    80003f3c:	fcf746e3          	blt	a4,a5,80003f08 <whisperPrintUnsigned+0xdc>
    80003f40:	fec42783          	lw	a5,-20(s0)
    80003f44:	00078513          	mv	a0,a5
    80003f48:	04813083          	ld	ra,72(sp)
    80003f4c:	04013403          	ld	s0,64(sp)
    80003f50:	05010113          	addi	sp,sp,80
    80003f54:	00008067          	ret

0000000080003f58 <whisperPrintDecimal>:
    80003f58:	fb010113          	addi	sp,sp,-80
    80003f5c:	04113423          	sd	ra,72(sp)
    80003f60:	04813023          	sd	s0,64(sp)
    80003f64:	05010413          	addi	s0,sp,80
    80003f68:	00050793          	mv	a5,a0
    80003f6c:	00058693          	mv	a3,a1
    80003f70:	00060713          	mv	a4,a2
    80003f74:	faf42e23          	sw	a5,-68(s0)
    80003f78:	00068793          	mv	a5,a3
    80003f7c:	faf42c23          	sw	a5,-72(s0)
    80003f80:	00070793          	mv	a5,a4
    80003f84:	faf40ba3          	sb	a5,-73(s0)
    80003f88:	fe042623          	sw	zero,-20(s0)
    80003f8c:	fbc42783          	lw	a5,-68(s0)
    80003f90:	01f7d79b          	srliw	a5,a5,0x1f
    80003f94:	0ff7f793          	zext.b	a5,a5
    80003f98:	fcf42c23          	sw	a5,-40(s0)
    80003f9c:	fd842783          	lw	a5,-40(s0)
    80003fa0:	0007879b          	sext.w	a5,a5
    80003fa4:	02078263          	beqz	a5,80003fc8 <whisperPrintDecimal+0x70>
    80003fa8:	fbc42783          	lw	a5,-68(s0)
    80003fac:	40f007bb          	negw	a5,a5
    80003fb0:	faf42e23          	sw	a5,-68(s0)
    80003fb4:	02d00513          	li	a0,45
    80003fb8:	de5ff0ef          	jal	ra,80003d9c <whisperPutc>
    80003fbc:	fb842783          	lw	a5,-72(s0)
    80003fc0:	fff7879b          	addiw	a5,a5,-1
    80003fc4:	faf42c23          	sw	a5,-72(s0)
    80003fc8:	fbc42703          	lw	a4,-68(s0)
    80003fcc:	00a00793          	li	a5,10
    80003fd0:	02f767bb          	remw	a5,a4,a5
    80003fd4:	0007879b          	sext.w	a5,a5
    80003fd8:	0ff7f793          	zext.b	a5,a5
    80003fdc:	0307879b          	addiw	a5,a5,48
    80003fe0:	fcf40ba3          	sb	a5,-41(s0)
    80003fe4:	fbc42703          	lw	a4,-68(s0)
    80003fe8:	00a00793          	li	a5,10
    80003fec:	02f747bb          	divw	a5,a4,a5
    80003ff0:	faf42e23          	sw	a5,-68(s0)
    80003ff4:	fec42783          	lw	a5,-20(s0)
    80003ff8:	0017871b          	addiw	a4,a5,1
    80003ffc:	fee42623          	sw	a4,-20(s0)
    80004000:	ff040713          	addi	a4,s0,-16
    80004004:	00f707b3          	add	a5,a4,a5
    80004008:	fd744703          	lbu	a4,-41(s0)
    8000400c:	fce78823          	sb	a4,-48(a5)
    80004010:	fbc42783          	lw	a5,-68(s0)
    80004014:	0007879b          	sext.w	a5,a5
    80004018:	fa0798e3          	bnez	a5,80003fc8 <whisperPrintDecimal+0x70>
    8000401c:	fec42783          	lw	a5,-20(s0)
    80004020:	fef42423          	sw	a5,-24(s0)
    80004024:	01c0006f          	j	80004040 <whisperPrintDecimal+0xe8>
    80004028:	fb744783          	lbu	a5,-73(s0)
    8000402c:	00078513          	mv	a0,a5
    80004030:	d6dff0ef          	jal	ra,80003d9c <whisperPutc>
    80004034:	fe842783          	lw	a5,-24(s0)
    80004038:	0017879b          	addiw	a5,a5,1
    8000403c:	fef42423          	sw	a5,-24(s0)
    80004040:	fe842703          	lw	a4,-24(s0)
    80004044:	fb842783          	lw	a5,-72(s0)
    80004048:	0007071b          	sext.w	a4,a4
    8000404c:	0007879b          	sext.w	a5,a5
    80004050:	fcf74ce3          	blt	a4,a5,80004028 <whisperPrintDecimal+0xd0>
    80004054:	fec42783          	lw	a5,-20(s0)
    80004058:	fff78793          	addi	a5,a5,-1
    8000405c:	fc040713          	addi	a4,s0,-64
    80004060:	00f707b3          	add	a5,a4,a5
    80004064:	fef43023          	sd	a5,-32(s0)
    80004068:	fc042e23          	sw	zero,-36(s0)
    8000406c:	0280006f          	j	80004094 <whisperPrintDecimal+0x13c>
    80004070:	fe043783          	ld	a5,-32(s0)
    80004074:	fff78713          	addi	a4,a5,-1
    80004078:	fee43023          	sd	a4,-32(s0)
    8000407c:	0007c783          	lbu	a5,0(a5)
    80004080:	00078513          	mv	a0,a5
    80004084:	d19ff0ef          	jal	ra,80003d9c <whisperPutc>
    80004088:	fdc42783          	lw	a5,-36(s0)
    8000408c:	0017879b          	addiw	a5,a5,1
    80004090:	fcf42e23          	sw	a5,-36(s0)
    80004094:	fdc42703          	lw	a4,-36(s0)
    80004098:	fec42783          	lw	a5,-20(s0)
    8000409c:	0007071b          	sext.w	a4,a4
    800040a0:	0007879b          	sext.w	a5,a5
    800040a4:	fcf746e3          	blt	a4,a5,80004070 <whisperPrintDecimal+0x118>
    800040a8:	fd842783          	lw	a5,-40(s0)
    800040ac:	0007879b          	sext.w	a5,a5
    800040b0:	00078863          	beqz	a5,800040c0 <whisperPrintDecimal+0x168>
    800040b4:	fec42783          	lw	a5,-20(s0)
    800040b8:	0017879b          	addiw	a5,a5,1
    800040bc:	fef42623          	sw	a5,-20(s0)
    800040c0:	fec42783          	lw	a5,-20(s0)
    800040c4:	00078513          	mv	a0,a5
    800040c8:	04813083          	ld	ra,72(sp)
    800040cc:	04013403          	ld	s0,64(sp)
    800040d0:	05010113          	addi	sp,sp,80
    800040d4:	00008067          	ret

00000000800040d8 <whisperPrintInt>:
    800040d8:	fb010113          	addi	sp,sp,-80
    800040dc:	04113423          	sd	ra,72(sp)
    800040e0:	04813023          	sd	s0,64(sp)
    800040e4:	05010413          	addi	s0,sp,80
    800040e8:	00050793          	mv	a5,a0
    800040ec:	00068713          	mv	a4,a3
    800040f0:	faf42e23          	sw	a5,-68(s0)
    800040f4:	00058793          	mv	a5,a1
    800040f8:	faf42c23          	sw	a5,-72(s0)
    800040fc:	00060793          	mv	a5,a2
    80004100:	faf42a23          	sw	a5,-76(s0)
    80004104:	00070793          	mv	a5,a4
    80004108:	faf42823          	sw	a5,-80(s0)
    8000410c:	fb042783          	lw	a5,-80(s0)
    80004110:	0007871b          	sext.w	a4,a5
    80004114:	00a00793          	li	a5,10
    80004118:	02f71663          	bne	a4,a5,80004144 <whisperPrintInt+0x6c>
    8000411c:	fb442783          	lw	a5,-76(s0)
    80004120:	0ff7f693          	zext.b	a3,a5
    80004124:	fb842703          	lw	a4,-72(s0)
    80004128:	fbc42783          	lw	a5,-68(s0)
    8000412c:	00068613          	mv	a2,a3
    80004130:	00070593          	mv	a1,a4
    80004134:	00078513          	mv	a0,a5
    80004138:	e21ff0ef          	jal	ra,80003f58 <whisperPrintDecimal>
    8000413c:	00050793          	mv	a5,a0
    80004140:	1580006f          	j	80004298 <whisperPrintInt+0x1c0>
    80004144:	fe042623          	sw	zero,-20(s0)
    80004148:	fbc42783          	lw	a5,-68(s0)
    8000414c:	fef42423          	sw	a5,-24(s0)
    80004150:	fb042783          	lw	a5,-80(s0)
    80004154:	0007871b          	sext.w	a4,a5
    80004158:	00800793          	li	a5,8
    8000415c:	04f71a63          	bne	a4,a5,800041b0 <whisperPrintInt+0xd8>
    80004160:	fe842783          	lw	a5,-24(s0)
    80004164:	0ff7f793          	zext.b	a5,a5
    80004168:	0077f793          	andi	a5,a5,7
    8000416c:	0ff7f793          	zext.b	a5,a5
    80004170:	0307879b          	addiw	a5,a5,48
    80004174:	fcf40b23          	sb	a5,-42(s0)
    80004178:	fec42783          	lw	a5,-20(s0)
    8000417c:	0017871b          	addiw	a4,a5,1
    80004180:	fee42623          	sw	a4,-20(s0)
    80004184:	ff040713          	addi	a4,s0,-16
    80004188:	00f707b3          	add	a5,a4,a5
    8000418c:	fd644703          	lbu	a4,-42(s0)
    80004190:	fce78823          	sb	a4,-48(a5)
    80004194:	fe842783          	lw	a5,-24(s0)
    80004198:	0037d79b          	srliw	a5,a5,0x3
    8000419c:	fef42423          	sw	a5,-24(s0)
    800041a0:	fe842783          	lw	a5,-24(s0)
    800041a4:	0007879b          	sext.w	a5,a5
    800041a8:	fa079ce3          	bnez	a5,80004160 <whisperPrintInt+0x88>
    800041ac:	0980006f          	j	80004244 <whisperPrintInt+0x16c>
    800041b0:	fb042783          	lw	a5,-80(s0)
    800041b4:	0007871b          	sext.w	a4,a5
    800041b8:	01000793          	li	a5,16
    800041bc:	08f71063          	bne	a4,a5,8000423c <whisperPrintInt+0x164>
    800041c0:	fe842783          	lw	a5,-24(s0)
    800041c4:	00f7f793          	andi	a5,a5,15
    800041c8:	fcf42c23          	sw	a5,-40(s0)
    800041cc:	fd842783          	lw	a5,-40(s0)
    800041d0:	0007871b          	sext.w	a4,a5
    800041d4:	00900793          	li	a5,9
    800041d8:	00e7cc63          	blt	a5,a4,800041f0 <whisperPrintInt+0x118>
    800041dc:	fd842783          	lw	a5,-40(s0)
    800041e0:	0ff7f793          	zext.b	a5,a5
    800041e4:	0307879b          	addiw	a5,a5,48
    800041e8:	0ff7f793          	zext.b	a5,a5
    800041ec:	0140006f          	j	80004200 <whisperPrintInt+0x128>
    800041f0:	fd842783          	lw	a5,-40(s0)
    800041f4:	0ff7f793          	zext.b	a5,a5
    800041f8:	0577879b          	addiw	a5,a5,87
    800041fc:	0ff7f793          	zext.b	a5,a5
    80004200:	fcf40ba3          	sb	a5,-41(s0)
    80004204:	fec42783          	lw	a5,-20(s0)
    80004208:	0017871b          	addiw	a4,a5,1
    8000420c:	fee42623          	sw	a4,-20(s0)
    80004210:	ff040713          	addi	a4,s0,-16
    80004214:	00f707b3          	add	a5,a4,a5
    80004218:	fd744703          	lbu	a4,-41(s0)
    8000421c:	fce78823          	sb	a4,-48(a5)
    80004220:	fe842783          	lw	a5,-24(s0)
    80004224:	0047d79b          	srliw	a5,a5,0x4
    80004228:	fef42423          	sw	a5,-24(s0)
    8000422c:	fe842783          	lw	a5,-24(s0)
    80004230:	0007879b          	sext.w	a5,a5
    80004234:	f80796e3          	bnez	a5,800041c0 <whisperPrintInt+0xe8>
    80004238:	00c0006f          	j	80004244 <whisperPrintInt+0x16c>
    8000423c:	fff00793          	li	a5,-1
    80004240:	0580006f          	j	80004298 <whisperPrintInt+0x1c0>
    80004244:	fec42783          	lw	a5,-20(s0)
    80004248:	fff78793          	addi	a5,a5,-1
    8000424c:	fc040713          	addi	a4,s0,-64
    80004250:	00f707b3          	add	a5,a4,a5
    80004254:	fef43023          	sd	a5,-32(s0)
    80004258:	fc042e23          	sw	zero,-36(s0)
    8000425c:	0280006f          	j	80004284 <whisperPrintInt+0x1ac>
    80004260:	fe043783          	ld	a5,-32(s0)
    80004264:	fff78713          	addi	a4,a5,-1
    80004268:	fee43023          	sd	a4,-32(s0)
    8000426c:	0007c783          	lbu	a5,0(a5)
    80004270:	00078513          	mv	a0,a5
    80004274:	b29ff0ef          	jal	ra,80003d9c <whisperPutc>
    80004278:	fdc42783          	lw	a5,-36(s0)
    8000427c:	0017879b          	addiw	a5,a5,1
    80004280:	fcf42e23          	sw	a5,-36(s0)
    80004284:	fec42703          	lw	a4,-20(s0)
    80004288:	fdc42783          	lw	a5,-36(s0)
    8000428c:	0007879b          	sext.w	a5,a5
    80004290:	fce7e8e3          	bltu	a5,a4,80004260 <whisperPrintInt+0x188>
    80004294:	fec42783          	lw	a5,-20(s0)
    80004298:	00078513          	mv	a0,a5
    8000429c:	04813083          	ld	ra,72(sp)
    800042a0:	04013403          	ld	s0,64(sp)
    800042a4:	05010113          	addi	sp,sp,80
    800042a8:	00008067          	ret

00000000800042ac <whisperPrintDoubleG>:
    800042ac:	fe010113          	addi	sp,sp,-32
    800042b0:	00813c23          	sd	s0,24(sp)
    800042b4:	02010413          	addi	s0,sp,32
    800042b8:	fea43427          	fsd	fa0,-24(s0)
    800042bc:	00000793          	li	a5,0
    800042c0:	00078513          	mv	a0,a5
    800042c4:	01813403          	ld	s0,24(sp)
    800042c8:	02010113          	addi	sp,sp,32
    800042cc:	00008067          	ret

00000000800042d0 <whisperPrintDoubleF>:
    800042d0:	fe010113          	addi	sp,sp,-32
    800042d4:	00813c23          	sd	s0,24(sp)
    800042d8:	02010413          	addi	s0,sp,32
    800042dc:	fea43427          	fsd	fa0,-24(s0)
    800042e0:	00000793          	li	a5,0
    800042e4:	00078513          	mv	a0,a5
    800042e8:	01813403          	ld	s0,24(sp)
    800042ec:	02010113          	addi	sp,sp,32
    800042f0:	00008067          	ret

00000000800042f4 <whisperPrintfImpl>:
    800042f4:	fc010113          	addi	sp,sp,-64
    800042f8:	02113c23          	sd	ra,56(sp)
    800042fc:	02813823          	sd	s0,48(sp)
    80004300:	04010413          	addi	s0,sp,64
    80004304:	fca43423          	sd	a0,-56(s0)
    80004308:	fcb43023          	sd	a1,-64(s0)
    8000430c:	fe042623          	sw	zero,-20(s0)
    80004310:	fc843783          	ld	a5,-56(s0)
    80004314:	fef43023          	sd	a5,-32(s0)
    80004318:	3900006f          	j	800046a8 <whisperPrintfImpl+0x3b4>
    8000431c:	02000793          	li	a5,32
    80004320:	fcf40fa3          	sb	a5,-33(s0)
    80004324:	fc042c23          	sw	zero,-40(s0)
    80004328:	fe043783          	ld	a5,-32(s0)
    8000432c:	0007c783          	lbu	a5,0(a5)
    80004330:	00078713          	mv	a4,a5
    80004334:	02500793          	li	a5,37
    80004338:	02f70263          	beq	a4,a5,8000435c <whisperPrintfImpl+0x68>
    8000433c:	fe043783          	ld	a5,-32(s0)
    80004340:	0007c783          	lbu	a5,0(a5)
    80004344:	00078513          	mv	a0,a5
    80004348:	a55ff0ef          	jal	ra,80003d9c <whisperPutc>
    8000434c:	fec42783          	lw	a5,-20(s0)
    80004350:	0017879b          	addiw	a5,a5,1
    80004354:	fef42623          	sw	a5,-20(s0)
    80004358:	3440006f          	j	8000469c <whisperPrintfImpl+0x3a8>
    8000435c:	fe043783          	ld	a5,-32(s0)
    80004360:	00178793          	addi	a5,a5,1
    80004364:	fef43023          	sd	a5,-32(s0)
    80004368:	fe043783          	ld	a5,-32(s0)
    8000436c:	0007c783          	lbu	a5,0(a5)
    80004370:	34078463          	beqz	a5,800046b8 <whisperPrintfImpl+0x3c4>
    80004374:	fe043783          	ld	a5,-32(s0)
    80004378:	0007c783          	lbu	a5,0(a5)
    8000437c:	00078713          	mv	a4,a5
    80004380:	02500793          	li	a5,37
    80004384:	02f71263          	bne	a4,a5,800043a8 <whisperPrintfImpl+0xb4>
    80004388:	02500513          	li	a0,37
    8000438c:	a11ff0ef          	jal	ra,80003d9c <whisperPutc>
    80004390:	30c0006f          	j	8000469c <whisperPrintfImpl+0x3a8>
    80004394:	03000793          	li	a5,48
    80004398:	fcf40fa3          	sb	a5,-33(s0)
    8000439c:	fe043783          	ld	a5,-32(s0)
    800043a0:	00178793          	addi	a5,a5,1
    800043a4:	fef43023          	sd	a5,-32(s0)
    800043a8:	fe043783          	ld	a5,-32(s0)
    800043ac:	0007c783          	lbu	a5,0(a5)
    800043b0:	00078713          	mv	a4,a5
    800043b4:	03000793          	li	a5,48
    800043b8:	fcf70ee3          	beq	a4,a5,80004394 <whisperPrintfImpl+0xa0>
    800043bc:	fe043783          	ld	a5,-32(s0)
    800043c0:	0007c783          	lbu	a5,0(a5)
    800043c4:	00078713          	mv	a4,a5
    800043c8:	02d00793          	li	a5,45
    800043cc:	00f71863          	bne	a4,a5,800043dc <whisperPrintfImpl+0xe8>
    800043d0:	fe043783          	ld	a5,-32(s0)
    800043d4:	00178793          	addi	a5,a5,1
    800043d8:	fef43023          	sd	a5,-32(s0)
    800043dc:	fe043783          	ld	a5,-32(s0)
    800043e0:	0007c783          	lbu	a5,0(a5)
    800043e4:	00078713          	mv	a4,a5
    800043e8:	02a00793          	li	a5,42
    800043ec:	00f71a63          	bne	a4,a5,80004400 <whisperPrintfImpl+0x10c>
    800043f0:	fe043783          	ld	a5,-32(s0)
    800043f4:	00178793          	addi	a5,a5,1
    800043f8:	fef43023          	sd	a5,-32(s0)
    800043fc:	0940006f          	j	80004490 <whisperPrintfImpl+0x19c>
    80004400:	fe043783          	ld	a5,-32(s0)
    80004404:	0007c783          	lbu	a5,0(a5)
    80004408:	00078713          	mv	a4,a5
    8000440c:	02f00793          	li	a5,47
    80004410:	08e7f063          	bgeu	a5,a4,80004490 <whisperPrintfImpl+0x19c>
    80004414:	fe043783          	ld	a5,-32(s0)
    80004418:	0007c783          	lbu	a5,0(a5)
    8000441c:	00078713          	mv	a4,a5
    80004420:	03900793          	li	a5,57
    80004424:	06e7e663          	bltu	a5,a4,80004490 <whisperPrintfImpl+0x19c>
    80004428:	0400006f          	j	80004468 <whisperPrintfImpl+0x174>
    8000442c:	fd842703          	lw	a4,-40(s0)
    80004430:	00070793          	mv	a5,a4
    80004434:	0027979b          	slliw	a5,a5,0x2
    80004438:	00e787bb          	addw	a5,a5,a4
    8000443c:	0017979b          	slliw	a5,a5,0x1
    80004440:	0007871b          	sext.w	a4,a5
    80004444:	fe043783          	ld	a5,-32(s0)
    80004448:	00178693          	addi	a3,a5,1
    8000444c:	fed43023          	sd	a3,-32(s0)
    80004450:	0007c783          	lbu	a5,0(a5)
    80004454:	0007879b          	sext.w	a5,a5
    80004458:	fd07879b          	addiw	a5,a5,-48
    8000445c:	0007879b          	sext.w	a5,a5
    80004460:	00f707bb          	addw	a5,a4,a5
    80004464:	fcf42c23          	sw	a5,-40(s0)
    80004468:	fe043783          	ld	a5,-32(s0)
    8000446c:	0007c783          	lbu	a5,0(a5)
    80004470:	00078713          	mv	a4,a5
    80004474:	02f00793          	li	a5,47
    80004478:	00e7fc63          	bgeu	a5,a4,80004490 <whisperPrintfImpl+0x19c>
    8000447c:	fe043783          	ld	a5,-32(s0)
    80004480:	0007c783          	lbu	a5,0(a5)
    80004484:	00078713          	mv	a4,a5
    80004488:	03900793          	li	a5,57
    8000448c:	fae7f0e3          	bgeu	a5,a4,8000442c <whisperPrintfImpl+0x138>
    80004490:	fe043783          	ld	a5,-32(s0)
    80004494:	0007c783          	lbu	a5,0(a5)
    80004498:	0007879b          	sext.w	a5,a5
    8000449c:	fa87869b          	addiw	a3,a5,-88
    800044a0:	0006871b          	sext.w	a4,a3
    800044a4:	02000793          	li	a5,32
    800044a8:	1ee7ea63          	bltu	a5,a4,8000469c <whisperPrintfImpl+0x3a8>
    800044ac:	02069793          	slli	a5,a3,0x20
    800044b0:	0207d793          	srli	a5,a5,0x20
    800044b4:	00279713          	slli	a4,a5,0x2
    800044b8:	00003797          	auipc	a5,0x3
    800044bc:	eb078793          	addi	a5,a5,-336 # 80007368 <printf_+0x614>
    800044c0:	00f707b3          	add	a5,a4,a5
    800044c4:	0007a783          	lw	a5,0(a5)
    800044c8:	0007871b          	sext.w	a4,a5
    800044cc:	00003797          	auipc	a5,0x3
    800044d0:	e9c78793          	addi	a5,a5,-356 # 80007368 <printf_+0x614>
    800044d4:	00f707b3          	add	a5,a4,a5
    800044d8:	00078067          	jr	a5
    800044dc:	fc043783          	ld	a5,-64(s0)
    800044e0:	00878713          	addi	a4,a5,8
    800044e4:	fce43023          	sd	a4,-64(s0)
    800044e8:	0007a783          	lw	a5,0(a5)
    800044ec:	fdf44683          	lbu	a3,-33(s0)
    800044f0:	fd842703          	lw	a4,-40(s0)
    800044f4:	00068613          	mv	a2,a3
    800044f8:	00070593          	mv	a1,a4
    800044fc:	00078513          	mv	a0,a5
    80004500:	a59ff0ef          	jal	ra,80003f58 <whisperPrintDecimal>
    80004504:	00050793          	mv	a5,a0
    80004508:	00078713          	mv	a4,a5
    8000450c:	fec42783          	lw	a5,-20(s0)
    80004510:	00e787bb          	addw	a5,a5,a4
    80004514:	fef42623          	sw	a5,-20(s0)
    80004518:	1840006f          	j	8000469c <whisperPrintfImpl+0x3a8>
    8000451c:	fc043783          	ld	a5,-64(s0)
    80004520:	00878713          	addi	a4,a5,8
    80004524:	fce43023          	sd	a4,-64(s0)
    80004528:	0007a783          	lw	a5,0(a5)
    8000452c:	fdf44683          	lbu	a3,-33(s0)
    80004530:	fd842703          	lw	a4,-40(s0)
    80004534:	00068613          	mv	a2,a3
    80004538:	00070593          	mv	a1,a4
    8000453c:	00078513          	mv	a0,a5
    80004540:	8edff0ef          	jal	ra,80003e2c <whisperPrintUnsigned>
    80004544:	00050793          	mv	a5,a0
    80004548:	00078713          	mv	a4,a5
    8000454c:	fec42783          	lw	a5,-20(s0)
    80004550:	00e787bb          	addw	a5,a5,a4
    80004554:	fef42623          	sw	a5,-20(s0)
    80004558:	1440006f          	j	8000469c <whisperPrintfImpl+0x3a8>
    8000455c:	fc043783          	ld	a5,-64(s0)
    80004560:	00878713          	addi	a4,a5,8
    80004564:	fce43023          	sd	a4,-64(s0)
    80004568:	0007a783          	lw	a5,0(a5)
    8000456c:	fdf44703          	lbu	a4,-33(s0)
    80004570:	0007061b          	sext.w	a2,a4
    80004574:	fd842703          	lw	a4,-40(s0)
    80004578:	01000693          	li	a3,16
    8000457c:	00070593          	mv	a1,a4
    80004580:	00078513          	mv	a0,a5
    80004584:	b55ff0ef          	jal	ra,800040d8 <whisperPrintInt>
    80004588:	00050793          	mv	a5,a0
    8000458c:	00078713          	mv	a4,a5
    80004590:	fec42783          	lw	a5,-20(s0)
    80004594:	00e787bb          	addw	a5,a5,a4
    80004598:	fef42623          	sw	a5,-20(s0)
    8000459c:	1000006f          	j	8000469c <whisperPrintfImpl+0x3a8>
    800045a0:	fc043783          	ld	a5,-64(s0)
    800045a4:	00878713          	addi	a4,a5,8
    800045a8:	fce43023          	sd	a4,-64(s0)
    800045ac:	0007a783          	lw	a5,0(a5)
    800045b0:	fdf44703          	lbu	a4,-33(s0)
    800045b4:	0007061b          	sext.w	a2,a4
    800045b8:	fd842703          	lw	a4,-40(s0)
    800045bc:	00800693          	li	a3,8
    800045c0:	00070593          	mv	a1,a4
    800045c4:	00078513          	mv	a0,a5
    800045c8:	b11ff0ef          	jal	ra,800040d8 <whisperPrintInt>
    800045cc:	00050793          	mv	a5,a0
    800045d0:	00078713          	mv	a4,a5
    800045d4:	fec42783          	lw	a5,-20(s0)
    800045d8:	00e787bb          	addw	a5,a5,a4
    800045dc:	fef42623          	sw	a5,-20(s0)
    800045e0:	0bc0006f          	j	8000469c <whisperPrintfImpl+0x3a8>
    800045e4:	fc043783          	ld	a5,-64(s0)
    800045e8:	00878713          	addi	a4,a5,8
    800045ec:	fce43023          	sd	a4,-64(s0)
    800045f0:	0007a783          	lw	a5,0(a5)
    800045f4:	0ff7f793          	zext.b	a5,a5
    800045f8:	00078513          	mv	a0,a5
    800045fc:	fa0ff0ef          	jal	ra,80003d9c <whisperPutc>
    80004600:	fec42783          	lw	a5,-20(s0)
    80004604:	0017879b          	addiw	a5,a5,1
    80004608:	fef42623          	sw	a5,-20(s0)
    8000460c:	0900006f          	j	8000469c <whisperPrintfImpl+0x3a8>
    80004610:	fc043783          	ld	a5,-64(s0)
    80004614:	00878713          	addi	a4,a5,8
    80004618:	fce43023          	sd	a4,-64(s0)
    8000461c:	0007b783          	ld	a5,0(a5)
    80004620:	00078513          	mv	a0,a5
    80004624:	fb4ff0ef          	jal	ra,80003dd8 <whisperPuts>
    80004628:	00050793          	mv	a5,a0
    8000462c:	00078713          	mv	a4,a5
    80004630:	fec42783          	lw	a5,-20(s0)
    80004634:	00e787bb          	addw	a5,a5,a4
    80004638:	fef42623          	sw	a5,-20(s0)
    8000463c:	0600006f          	j	8000469c <whisperPrintfImpl+0x3a8>
    80004640:	fc043783          	ld	a5,-64(s0)
    80004644:	00878713          	addi	a4,a5,8
    80004648:	fce43023          	sd	a4,-64(s0)
    8000464c:	0007b787          	fld	fa5,0(a5)
    80004650:	22f78553          	fmv.d	fa0,fa5
    80004654:	c59ff0ef          	jal	ra,800042ac <whisperPrintDoubleG>
    80004658:	00050793          	mv	a5,a0
    8000465c:	00078713          	mv	a4,a5
    80004660:	fec42783          	lw	a5,-20(s0)
    80004664:	00e787bb          	addw	a5,a5,a4
    80004668:	fef42623          	sw	a5,-20(s0)
    8000466c:	0300006f          	j	8000469c <whisperPrintfImpl+0x3a8>
    80004670:	fc043783          	ld	a5,-64(s0)
    80004674:	00878713          	addi	a4,a5,8
    80004678:	fce43023          	sd	a4,-64(s0)
    8000467c:	0007b787          	fld	fa5,0(a5)
    80004680:	22f78553          	fmv.d	fa0,fa5
    80004684:	c4dff0ef          	jal	ra,800042d0 <whisperPrintDoubleF>
    80004688:	00050793          	mv	a5,a0
    8000468c:	00078713          	mv	a4,a5
    80004690:	fec42783          	lw	a5,-20(s0)
    80004694:	00e787bb          	addw	a5,a5,a4
    80004698:	fef42623          	sw	a5,-20(s0)
    8000469c:	fe043783          	ld	a5,-32(s0)
    800046a0:	00178793          	addi	a5,a5,1
    800046a4:	fef43023          	sd	a5,-32(s0)
    800046a8:	fe043783          	ld	a5,-32(s0)
    800046ac:	0007c783          	lbu	a5,0(a5)
    800046b0:	c60796e3          	bnez	a5,8000431c <whisperPrintfImpl+0x28>
    800046b4:	0080006f          	j	800046bc <whisperPrintfImpl+0x3c8>
    800046b8:	00000013          	nop
    800046bc:	fec42783          	lw	a5,-20(s0)
    800046c0:	00078513          	mv	a0,a5
    800046c4:	03813083          	ld	ra,56(sp)
    800046c8:	03013403          	ld	s0,48(sp)
    800046cc:	04010113          	addi	sp,sp,64
    800046d0:	00008067          	ret

00000000800046d4 <whisperPrintf>:
    800046d4:	f9010113          	addi	sp,sp,-112
    800046d8:	02113423          	sd	ra,40(sp)
    800046dc:	02813023          	sd	s0,32(sp)
    800046e0:	03010413          	addi	s0,sp,48
    800046e4:	fca43c23          	sd	a0,-40(s0)
    800046e8:	00b43423          	sd	a1,8(s0)
    800046ec:	00c43823          	sd	a2,16(s0)
    800046f0:	00d43c23          	sd	a3,24(s0)
    800046f4:	02e43023          	sd	a4,32(s0)
    800046f8:	02f43423          	sd	a5,40(s0)
    800046fc:	03043823          	sd	a6,48(s0)
    80004700:	03143c23          	sd	a7,56(s0)
    80004704:	04040793          	addi	a5,s0,64
    80004708:	fcf43823          	sd	a5,-48(s0)
    8000470c:	fd043783          	ld	a5,-48(s0)
    80004710:	fc878793          	addi	a5,a5,-56
    80004714:	fef43023          	sd	a5,-32(s0)
    80004718:	fe043783          	ld	a5,-32(s0)
    8000471c:	00078593          	mv	a1,a5
    80004720:	fd843503          	ld	a0,-40(s0)
    80004724:	bd1ff0ef          	jal	ra,800042f4 <whisperPrintfImpl>
    80004728:	00050793          	mv	a5,a0
    8000472c:	fef42623          	sw	a5,-20(s0)
    80004730:	fec42783          	lw	a5,-20(s0)
    80004734:	00078513          	mv	a0,a5
    80004738:	02813083          	ld	ra,40(sp)
    8000473c:	02013403          	ld	s0,32(sp)
    80004740:	07010113          	addi	sp,sp,112
    80004744:	00008067          	ret

Disassembly of section .text._putc:

0000000080004748 <_putc>:
    80004748:	fe010113          	addi	sp,sp,-32
    8000474c:	00113c23          	sd	ra,24(sp)
    80004750:	00813823          	sd	s0,16(sp)
    80004754:	02010413          	addi	s0,sp,32
    80004758:	00050793          	mv	a5,a0
    8000475c:	fef407a3          	sb	a5,-17(s0)
    80004760:	fef44783          	lbu	a5,-17(s0)
    80004764:	00078513          	mv	a0,a5
    80004768:	1b8000ef          	jal	ra,80004920 <__am_uartlite_putchar>
    8000476c:	00000013          	nop
    80004770:	01813083          	ld	ra,24(sp)
    80004774:	01013403          	ld	s0,16(sp)
    80004778:	02010113          	addi	sp,sp,32
    8000477c:	00008067          	ret

Disassembly of section .text._halt:

0000000080004780 <_halt>:
    80004780:	fe010113          	addi	sp,sp,-32
    80004784:	00113c23          	sd	ra,24(sp)
    80004788:	00813823          	sd	s0,16(sp)
    8000478c:	02010413          	addi	s0,sp,32
    80004790:	00050793          	mv	a5,a0
    80004794:	fef42623          	sw	a5,-20(s0)
    80004798:	fec42783          	lw	a5,-20(s0)
    8000479c:	00078513          	mv	a0,a5
    800047a0:	0005006b          	.word	0x0005006b
    800047a4:	fec42783          	lw	a5,-20(s0)
    800047a8:	00078593          	mv	a1,a5
    800047ac:	00003517          	auipc	a0,0x3
    800047b0:	c4450513          	addi	a0,a0,-956 # 800073f0 <printf_+0x69c>
    800047b4:	5a0020ef          	jal	ra,80006d54 <printf_>
    800047b8:	0000006f          	j	800047b8 <_halt+0x38>

Disassembly of section .text._trm_init:

00000000800047bc <_trm_init>:
    800047bc:	fe010113          	addi	sp,sp,-32
    800047c0:	00113c23          	sd	ra,24(sp)
    800047c4:	00813823          	sd	s0,16(sp)
    800047c8:	02010413          	addi	s0,sp,32
    800047cc:	fe042623          	sw	zero,-20(s0)
    800047d0:	f14027f3          	csrr	a5,mhartid
    800047d4:	fef42623          	sw	a5,-20(s0)
    800047d8:	fec42783          	lw	a5,-20(s0)
    800047dc:	0007879b          	sext.w	a5,a5
    800047e0:	00079463          	bnez	a5,800047e8 <_trm_init+0x2c>
    800047e4:	108000ef          	jal	ra,800048ec <__am_init_uartlite>
    800047e8:	fec42783          	lw	a5,-20(s0)
    800047ec:	0007879b          	sext.w	a5,a5
    800047f0:	00078c63          	beqz	a5,80004808 <_trm_init+0x4c>
    800047f4:	fec42783          	lw	a5,-20(s0)
    800047f8:	0007871b          	sext.w	a4,a5
    800047fc:	00100793          	li	a5,1
    80004800:	02f70863          	beq	a4,a5,80004830 <_trm_init+0x74>
    80004804:	0500006f          	j	80004854 <_trm_init+0x98>
    80004808:	390017b7          	lui	a5,0x39001
    8000480c:	00878793          	addi	a5,a5,8 # 39001008 <_start-0x46ffeff8>
    80004810:	0007b023          	sd	zero,0(a5)
    80004814:	00000013          	nop
    80004818:	00004797          	auipc	a5,0x4
    8000481c:	f8078793          	addi	a5,a5,-128 # 80008798 <core_init_flag>
    80004820:	0047a783          	lw	a5,4(a5)
    80004824:	0007879b          	sext.w	a5,a5
    80004828:	fe0788e3          	beqz	a5,80004818 <_trm_init+0x5c>
    8000482c:	0400006f          	j	8000486c <_trm_init+0xb0>
    80004830:	00004717          	auipc	a4,0x4
    80004834:	f6870713          	addi	a4,a4,-152 # 80008798 <core_init_flag>
    80004838:	fec46783          	lwu	a5,-20(s0)
    8000483c:	00279793          	slli	a5,a5,0x2
    80004840:	00f707b3          	add	a5,a4,a5
    80004844:	00100713          	li	a4,1
    80004848:	00e7a023          	sw	a4,0(a5)
    8000484c:	0ff0000f          	fence
    80004850:	01c0006f          	j	8000486c <_trm_init+0xb0>
    80004854:	fec42783          	lw	a5,-20(s0)
    80004858:	00078593          	mv	a1,a5
    8000485c:	00003517          	auipc	a0,0x3
    80004860:	bac50513          	addi	a0,a0,-1108 # 80007408 <printf_+0x6b4>
    80004864:	4f0020ef          	jal	ra,80006d54 <printf_>
    80004868:	0000006f          	j	80004868 <_trm_init+0xac>
    8000486c:	00003517          	auipc	a0,0x3
    80004870:	bb950513          	addi	a0,a0,-1095 # 80007425 <__am_mainargs>
    80004874:	ff8fc0ef          	jal	ra,8000106c <main>
    80004878:	00050793          	mv	a5,a0
    8000487c:	fef42423          	sw	a5,-24(s0)
    80004880:	fe842783          	lw	a5,-24(s0)
    80004884:	00078513          	mv	a0,a5
    80004888:	ef9ff0ef          	jal	ra,80004780 <_halt>

Disassembly of section .text.inb:

000000008000488c <inb>:
    8000488c:	fe010113          	addi	sp,sp,-32
    80004890:	00813c23          	sd	s0,24(sp)
    80004894:	02010413          	addi	s0,sp,32
    80004898:	fea43423          	sd	a0,-24(s0)
    8000489c:	fe843783          	ld	a5,-24(s0)
    800048a0:	0007c783          	lbu	a5,0(a5)
    800048a4:	0ff7f793          	zext.b	a5,a5
    800048a8:	00078513          	mv	a0,a5
    800048ac:	01813403          	ld	s0,24(sp)
    800048b0:	02010113          	addi	sp,sp,32
    800048b4:	00008067          	ret

Disassembly of section .text.outb:

00000000800048b8 <outb>:
    800048b8:	fe010113          	addi	sp,sp,-32
    800048bc:	00813c23          	sd	s0,24(sp)
    800048c0:	02010413          	addi	s0,sp,32
    800048c4:	fea43423          	sd	a0,-24(s0)
    800048c8:	00058793          	mv	a5,a1
    800048cc:	fef403a3          	sb	a5,-25(s0)
    800048d0:	fe843783          	ld	a5,-24(s0)
    800048d4:	fe744703          	lbu	a4,-25(s0)
    800048d8:	00e78023          	sb	a4,0(a5)
    800048dc:	00000013          	nop
    800048e0:	01813403          	ld	s0,24(sp)
    800048e4:	02010113          	addi	sp,sp,32
    800048e8:	00008067          	ret

Disassembly of section .text.__am_init_uartlite:

00000000800048ec <__am_init_uartlite>:
    800048ec:	ff010113          	addi	sp,sp,-16
    800048f0:	00113423          	sd	ra,8(sp)
    800048f4:	00813023          	sd	s0,0(sp)
    800048f8:	01010413          	addi	s0,sp,16
    800048fc:	00300593          	li	a1,3
    80004900:	406007b7          	lui	a5,0x40600
    80004904:	00c78513          	addi	a0,a5,12 # 4060000c <_start-0x3f9ffff4>
    80004908:	fb1ff0ef          	jal	ra,800048b8 <outb>
    8000490c:	00000013          	nop
    80004910:	00813083          	ld	ra,8(sp)
    80004914:	00013403          	ld	s0,0(sp)
    80004918:	01010113          	addi	sp,sp,16
    8000491c:	00008067          	ret

Disassembly of section .text.__am_uartlite_putchar:

0000000080004920 <__am_uartlite_putchar>:
    80004920:	fe010113          	addi	sp,sp,-32
    80004924:	00113c23          	sd	ra,24(sp)
    80004928:	00813823          	sd	s0,16(sp)
    8000492c:	02010413          	addi	s0,sp,32
    80004930:	00050793          	mv	a5,a0
    80004934:	fef407a3          	sb	a5,-17(s0)
    80004938:	fef44783          	lbu	a5,-17(s0)
    8000493c:	0ff7f713          	zext.b	a4,a5
    80004940:	00a00793          	li	a5,10
    80004944:	00f71663          	bne	a4,a5,80004950 <__am_uartlite_putchar+0x30>
    80004948:	00d00513          	li	a0,13
    8000494c:	fd5ff0ef          	jal	ra,80004920 <__am_uartlite_putchar>
    80004950:	00000013          	nop
    80004954:	406007b7          	lui	a5,0x40600
    80004958:	00878513          	addi	a0,a5,8 # 40600008 <_start-0x3f9ffff8>
    8000495c:	f31ff0ef          	jal	ra,8000488c <inb>
    80004960:	00050793          	mv	a5,a0
    80004964:	0007879b          	sext.w	a5,a5
    80004968:	0087f793          	andi	a5,a5,8
    8000496c:	0007879b          	sext.w	a5,a5
    80004970:	fe0792e3          	bnez	a5,80004954 <__am_uartlite_putchar+0x34>
    80004974:	fef44783          	lbu	a5,-17(s0)
    80004978:	00078593          	mv	a1,a5
    8000497c:	406007b7          	lui	a5,0x40600
    80004980:	00478513          	addi	a0,a5,4 # 40600004 <_start-0x3f9ffffc>
    80004984:	f35ff0ef          	jal	ra,800048b8 <outb>
    80004988:	00000013          	nop
    8000498c:	01813083          	ld	ra,24(sp)
    80004990:	01013403          	ld	s0,16(sp)
    80004994:	02010113          	addi	sp,sp,32
    80004998:	00008067          	ret

Disassembly of section .text._out_null:

000000008000499c <_out_null>:
    8000499c:	fd010113          	addi	sp,sp,-48
    800049a0:	02813423          	sd	s0,40(sp)
    800049a4:	03010413          	addi	s0,sp,48
    800049a8:	00050793          	mv	a5,a0
    800049ac:	feb43023          	sd	a1,-32(s0)
    800049b0:	fcc43c23          	sd	a2,-40(s0)
    800049b4:	fcd43823          	sd	a3,-48(s0)
    800049b8:	fef407a3          	sb	a5,-17(s0)
    800049bc:	00000013          	nop
    800049c0:	02813403          	ld	s0,40(sp)
    800049c4:	03010113          	addi	sp,sp,48
    800049c8:	00008067          	ret

Disassembly of section .text._out_char:

00000000800049cc <_out_char>:
    800049cc:	fd010113          	addi	sp,sp,-48
    800049d0:	02113423          	sd	ra,40(sp)
    800049d4:	02813023          	sd	s0,32(sp)
    800049d8:	03010413          	addi	s0,sp,48
    800049dc:	00050793          	mv	a5,a0
    800049e0:	feb43023          	sd	a1,-32(s0)
    800049e4:	fcc43c23          	sd	a2,-40(s0)
    800049e8:	fcd43823          	sd	a3,-48(s0)
    800049ec:	fef407a3          	sb	a5,-17(s0)
    800049f0:	fef44783          	lbu	a5,-17(s0)
    800049f4:	0ff7f793          	zext.b	a5,a5
    800049f8:	00078863          	beqz	a5,80004a08 <_out_char+0x3c>
    800049fc:	fef44783          	lbu	a5,-17(s0)
    80004a00:	00078513          	mv	a0,a5
    80004a04:	d45ff0ef          	jal	ra,80004748 <_putc>
    80004a08:	00000013          	nop
    80004a0c:	02813083          	ld	ra,40(sp)
    80004a10:	02013403          	ld	s0,32(sp)
    80004a14:	03010113          	addi	sp,sp,48
    80004a18:	00008067          	ret

Disassembly of section .text._strnlen_s:

0000000080004a1c <_strnlen_s>:
    80004a1c:	fd010113          	addi	sp,sp,-48
    80004a20:	02813423          	sd	s0,40(sp)
    80004a24:	03010413          	addi	s0,sp,48
    80004a28:	fca43c23          	sd	a0,-40(s0)
    80004a2c:	fcb43823          	sd	a1,-48(s0)
    80004a30:	fd843783          	ld	a5,-40(s0)
    80004a34:	fef43423          	sd	a5,-24(s0)
    80004a38:	0100006f          	j	80004a48 <_strnlen_s+0x2c>
    80004a3c:	fe843783          	ld	a5,-24(s0)
    80004a40:	00178793          	addi	a5,a5,1
    80004a44:	fef43423          	sd	a5,-24(s0)
    80004a48:	fe843783          	ld	a5,-24(s0)
    80004a4c:	0007c783          	lbu	a5,0(a5)
    80004a50:	00078a63          	beqz	a5,80004a64 <_strnlen_s+0x48>
    80004a54:	fd043783          	ld	a5,-48(s0)
    80004a58:	fff78713          	addi	a4,a5,-1
    80004a5c:	fce43823          	sd	a4,-48(s0)
    80004a60:	fc079ee3          	bnez	a5,80004a3c <_strnlen_s+0x20>
    80004a64:	fe843703          	ld	a4,-24(s0)
    80004a68:	fd843783          	ld	a5,-40(s0)
    80004a6c:	40f707b3          	sub	a5,a4,a5
    80004a70:	0007879b          	sext.w	a5,a5
    80004a74:	00078513          	mv	a0,a5
    80004a78:	02813403          	ld	s0,40(sp)
    80004a7c:	03010113          	addi	sp,sp,48
    80004a80:	00008067          	ret

Disassembly of section .text._is_digit:

0000000080004a84 <_is_digit>:
    80004a84:	fe010113          	addi	sp,sp,-32
    80004a88:	00813c23          	sd	s0,24(sp)
    80004a8c:	02010413          	addi	s0,sp,32
    80004a90:	00050793          	mv	a5,a0
    80004a94:	fef407a3          	sb	a5,-17(s0)
    80004a98:	fef44783          	lbu	a5,-17(s0)
    80004a9c:	0ff7f713          	zext.b	a4,a5
    80004aa0:	02f00793          	li	a5,47
    80004aa4:	00e7fe63          	bgeu	a5,a4,80004ac0 <_is_digit+0x3c>
    80004aa8:	fef44783          	lbu	a5,-17(s0)
    80004aac:	0ff7f713          	zext.b	a4,a5
    80004ab0:	03900793          	li	a5,57
    80004ab4:	00e7e663          	bltu	a5,a4,80004ac0 <_is_digit+0x3c>
    80004ab8:	00100793          	li	a5,1
    80004abc:	0080006f          	j	80004ac4 <_is_digit+0x40>
    80004ac0:	00000793          	li	a5,0
    80004ac4:	0017f793          	andi	a5,a5,1
    80004ac8:	0ff7f793          	zext.b	a5,a5
    80004acc:	00078513          	mv	a0,a5
    80004ad0:	01813403          	ld	s0,24(sp)
    80004ad4:	02010113          	addi	sp,sp,32
    80004ad8:	00008067          	ret

Disassembly of section .text._atoi:

0000000080004adc <_atoi>:
    80004adc:	fd010113          	addi	sp,sp,-48
    80004ae0:	02113423          	sd	ra,40(sp)
    80004ae4:	02813023          	sd	s0,32(sp)
    80004ae8:	03010413          	addi	s0,sp,48
    80004aec:	fca43c23          	sd	a0,-40(s0)
    80004af0:	fe042623          	sw	zero,-20(s0)
    80004af4:	0480006f          	j	80004b3c <_atoi+0x60>
    80004af8:	fec42703          	lw	a4,-20(s0)
    80004afc:	00070793          	mv	a5,a4
    80004b00:	0027979b          	slliw	a5,a5,0x2
    80004b04:	00e787bb          	addw	a5,a5,a4
    80004b08:	0017979b          	slliw	a5,a5,0x1
    80004b0c:	0007871b          	sext.w	a4,a5
    80004b10:	fd843783          	ld	a5,-40(s0)
    80004b14:	0007b783          	ld	a5,0(a5)
    80004b18:	00178613          	addi	a2,a5,1
    80004b1c:	fd843683          	ld	a3,-40(s0)
    80004b20:	00c6b023          	sd	a2,0(a3)
    80004b24:	0007c783          	lbu	a5,0(a5)
    80004b28:	0007879b          	sext.w	a5,a5
    80004b2c:	00f707bb          	addw	a5,a4,a5
    80004b30:	0007879b          	sext.w	a5,a5
    80004b34:	fd07879b          	addiw	a5,a5,-48
    80004b38:	fef42623          	sw	a5,-20(s0)
    80004b3c:	fd843783          	ld	a5,-40(s0)
    80004b40:	0007b783          	ld	a5,0(a5)
    80004b44:	0007c783          	lbu	a5,0(a5)
    80004b48:	00078513          	mv	a0,a5
    80004b4c:	f39ff0ef          	jal	ra,80004a84 <_is_digit>
    80004b50:	00050793          	mv	a5,a0
    80004b54:	fa0792e3          	bnez	a5,80004af8 <_atoi+0x1c>
    80004b58:	fec42783          	lw	a5,-20(s0)
    80004b5c:	00078513          	mv	a0,a5
    80004b60:	02813083          	ld	ra,40(sp)
    80004b64:	02013403          	ld	s0,32(sp)
    80004b68:	03010113          	addi	sp,sp,48
    80004b6c:	00008067          	ret

Disassembly of section .text._out_rev:

0000000080004b70 <_out_rev>:
    80004b70:	fa010113          	addi	sp,sp,-96
    80004b74:	04113c23          	sd	ra,88(sp)
    80004b78:	04813823          	sd	s0,80(sp)
    80004b7c:	06010413          	addi	s0,sp,96
    80004b80:	fca43c23          	sd	a0,-40(s0)
    80004b84:	fcb43823          	sd	a1,-48(s0)
    80004b88:	fcc43423          	sd	a2,-56(s0)
    80004b8c:	fcd43023          	sd	a3,-64(s0)
    80004b90:	fae43c23          	sd	a4,-72(s0)
    80004b94:	faf43823          	sd	a5,-80(s0)
    80004b98:	00080793          	mv	a5,a6
    80004b9c:	00088713          	mv	a4,a7
    80004ba0:	faf42623          	sw	a5,-84(s0)
    80004ba4:	00070793          	mv	a5,a4
    80004ba8:	faf42423          	sw	a5,-88(s0)
    80004bac:	fc843783          	ld	a5,-56(s0)
    80004bb0:	fef43023          	sd	a5,-32(s0)
    80004bb4:	fa842783          	lw	a5,-88(s0)
    80004bb8:	0027f793          	andi	a5,a5,2
    80004bbc:	0007879b          	sext.w	a5,a5
    80004bc0:	08079e63          	bnez	a5,80004c5c <_out_rev+0xec>
    80004bc4:	fa842783          	lw	a5,-88(s0)
    80004bc8:	0017f793          	andi	a5,a5,1
    80004bcc:	0007879b          	sext.w	a5,a5
    80004bd0:	08079663          	bnez	a5,80004c5c <_out_rev+0xec>
    80004bd4:	fb043783          	ld	a5,-80(s0)
    80004bd8:	fef43423          	sd	a5,-24(s0)
    80004bdc:	0340006f          	j	80004c10 <_out_rev+0xa0>
    80004be0:	fc843783          	ld	a5,-56(s0)
    80004be4:	00178713          	addi	a4,a5,1
    80004be8:	fce43423          	sd	a4,-56(s0)
    80004bec:	fd843703          	ld	a4,-40(s0)
    80004bf0:	fc043683          	ld	a3,-64(s0)
    80004bf4:	00078613          	mv	a2,a5
    80004bf8:	fd043583          	ld	a1,-48(s0)
    80004bfc:	02000513          	li	a0,32
    80004c00:	000700e7          	jalr	a4
    80004c04:	fe843783          	ld	a5,-24(s0)
    80004c08:	00178793          	addi	a5,a5,1
    80004c0c:	fef43423          	sd	a5,-24(s0)
    80004c10:	fac46783          	lwu	a5,-84(s0)
    80004c14:	fe843703          	ld	a4,-24(s0)
    80004c18:	fcf764e3          	bltu	a4,a5,80004be0 <_out_rev+0x70>
    80004c1c:	0400006f          	j	80004c5c <_out_rev+0xec>
    80004c20:	fb043783          	ld	a5,-80(s0)
    80004c24:	fff78793          	addi	a5,a5,-1
    80004c28:	faf43823          	sd	a5,-80(s0)
    80004c2c:	fb843703          	ld	a4,-72(s0)
    80004c30:	fb043783          	ld	a5,-80(s0)
    80004c34:	00f707b3          	add	a5,a4,a5
    80004c38:	0007c503          	lbu	a0,0(a5)
    80004c3c:	fc843783          	ld	a5,-56(s0)
    80004c40:	00178713          	addi	a4,a5,1
    80004c44:	fce43423          	sd	a4,-56(s0)
    80004c48:	fd843703          	ld	a4,-40(s0)
    80004c4c:	fc043683          	ld	a3,-64(s0)
    80004c50:	00078613          	mv	a2,a5
    80004c54:	fd043583          	ld	a1,-48(s0)
    80004c58:	000700e7          	jalr	a4
    80004c5c:	fb043783          	ld	a5,-80(s0)
    80004c60:	fc0790e3          	bnez	a5,80004c20 <_out_rev+0xb0>
    80004c64:	fa842783          	lw	a5,-88(s0)
    80004c68:	0027f793          	andi	a5,a5,2
    80004c6c:	0007879b          	sext.w	a5,a5
    80004c70:	04078063          	beqz	a5,80004cb0 <_out_rev+0x140>
    80004c74:	0280006f          	j	80004c9c <_out_rev+0x12c>
    80004c78:	fc843783          	ld	a5,-56(s0)
    80004c7c:	00178713          	addi	a4,a5,1
    80004c80:	fce43423          	sd	a4,-56(s0)
    80004c84:	fd843703          	ld	a4,-40(s0)
    80004c88:	fc043683          	ld	a3,-64(s0)
    80004c8c:	00078613          	mv	a2,a5
    80004c90:	fd043583          	ld	a1,-48(s0)
    80004c94:	02000513          	li	a0,32
    80004c98:	000700e7          	jalr	a4
    80004c9c:	fc843703          	ld	a4,-56(s0)
    80004ca0:	fe043783          	ld	a5,-32(s0)
    80004ca4:	40f70733          	sub	a4,a4,a5
    80004ca8:	fac46783          	lwu	a5,-84(s0)
    80004cac:	fcf766e3          	bltu	a4,a5,80004c78 <_out_rev+0x108>
    80004cb0:	fc843783          	ld	a5,-56(s0)
    80004cb4:	00078513          	mv	a0,a5
    80004cb8:	05813083          	ld	ra,88(sp)
    80004cbc:	05013403          	ld	s0,80(sp)
    80004cc0:	06010113          	addi	sp,sp,96
    80004cc4:	00008067          	ret

Disassembly of section .text._ntoa_format:

0000000080004cc8 <_ntoa_format>:
    80004cc8:	fb010113          	addi	sp,sp,-80
    80004ccc:	04113423          	sd	ra,72(sp)
    80004cd0:	04813023          	sd	s0,64(sp)
    80004cd4:	05010413          	addi	s0,sp,80
    80004cd8:	fea43423          	sd	a0,-24(s0)
    80004cdc:	feb43023          	sd	a1,-32(s0)
    80004ce0:	fcc43c23          	sd	a2,-40(s0)
    80004ce4:	fcd43823          	sd	a3,-48(s0)
    80004ce8:	fce43423          	sd	a4,-56(s0)
    80004cec:	fcf43023          	sd	a5,-64(s0)
    80004cf0:	00080793          	mv	a5,a6
    80004cf4:	00088713          	mv	a4,a7
    80004cf8:	faf40fa3          	sb	a5,-65(s0)
    80004cfc:	00070793          	mv	a5,a4
    80004d00:	faf42c23          	sw	a5,-72(s0)
    80004d04:	01042783          	lw	a5,16(s0)
    80004d08:	0027f793          	andi	a5,a5,2
    80004d0c:	0007879b          	sext.w	a5,a5
    80004d10:	0c079463          	bnez	a5,80004dd8 <_ntoa_format+0x110>
    80004d14:	00842783          	lw	a5,8(s0)
    80004d18:	0007879b          	sext.w	a5,a5
    80004d1c:	04078e63          	beqz	a5,80004d78 <_ntoa_format+0xb0>
    80004d20:	01042783          	lw	a5,16(s0)
    80004d24:	0017f793          	andi	a5,a5,1
    80004d28:	0007879b          	sext.w	a5,a5
    80004d2c:	04078663          	beqz	a5,80004d78 <_ntoa_format+0xb0>
    80004d30:	fbf44783          	lbu	a5,-65(s0)
    80004d34:	0ff7f793          	zext.b	a5,a5
    80004d38:	00079a63          	bnez	a5,80004d4c <_ntoa_format+0x84>
    80004d3c:	01042783          	lw	a5,16(s0)
    80004d40:	00c7f793          	andi	a5,a5,12
    80004d44:	0007879b          	sext.w	a5,a5
    80004d48:	02078863          	beqz	a5,80004d78 <_ntoa_format+0xb0>
    80004d4c:	00842783          	lw	a5,8(s0)
    80004d50:	fff7879b          	addiw	a5,a5,-1
    80004d54:	00f42423          	sw	a5,8(s0)
    80004d58:	0200006f          	j	80004d78 <_ntoa_format+0xb0>
    80004d5c:	fc043783          	ld	a5,-64(s0)
    80004d60:	00178713          	addi	a4,a5,1
    80004d64:	fce43023          	sd	a4,-64(s0)
    80004d68:	fc843703          	ld	a4,-56(s0)
    80004d6c:	00f707b3          	add	a5,a4,a5
    80004d70:	03000713          	li	a4,48
    80004d74:	00e78023          	sb	a4,0(a5)
    80004d78:	00046783          	lwu	a5,0(s0)
    80004d7c:	fc043703          	ld	a4,-64(s0)
    80004d80:	02f77863          	bgeu	a4,a5,80004db0 <_ntoa_format+0xe8>
    80004d84:	fc043703          	ld	a4,-64(s0)
    80004d88:	01f00793          	li	a5,31
    80004d8c:	fce7f8e3          	bgeu	a5,a4,80004d5c <_ntoa_format+0x94>
    80004d90:	0200006f          	j	80004db0 <_ntoa_format+0xe8>
    80004d94:	fc043783          	ld	a5,-64(s0)
    80004d98:	00178713          	addi	a4,a5,1
    80004d9c:	fce43023          	sd	a4,-64(s0)
    80004da0:	fc843703          	ld	a4,-56(s0)
    80004da4:	00f707b3          	add	a5,a4,a5
    80004da8:	03000713          	li	a4,48
    80004dac:	00e78023          	sb	a4,0(a5)
    80004db0:	01042783          	lw	a5,16(s0)
    80004db4:	0017f793          	andi	a5,a5,1
    80004db8:	0007879b          	sext.w	a5,a5
    80004dbc:	00078e63          	beqz	a5,80004dd8 <_ntoa_format+0x110>
    80004dc0:	00846783          	lwu	a5,8(s0)
    80004dc4:	fc043703          	ld	a4,-64(s0)
    80004dc8:	00f77863          	bgeu	a4,a5,80004dd8 <_ntoa_format+0x110>
    80004dcc:	fc043703          	ld	a4,-64(s0)
    80004dd0:	01f00793          	li	a5,31
    80004dd4:	fce7f0e3          	bgeu	a5,a4,80004d94 <_ntoa_format+0xcc>
    80004dd8:	01042783          	lw	a5,16(s0)
    80004ddc:	0107f793          	andi	a5,a5,16
    80004de0:	0007879b          	sext.w	a5,a5
    80004de4:	14078e63          	beqz	a5,80004f40 <_ntoa_format+0x278>
    80004de8:	01042783          	lw	a5,16(s0)
    80004dec:	4007f793          	andi	a5,a5,1024
    80004df0:	0007879b          	sext.w	a5,a5
    80004df4:	04079a63          	bnez	a5,80004e48 <_ntoa_format+0x180>
    80004df8:	fc043783          	ld	a5,-64(s0)
    80004dfc:	04078663          	beqz	a5,80004e48 <_ntoa_format+0x180>
    80004e00:	00046783          	lwu	a5,0(s0)
    80004e04:	fc043703          	ld	a4,-64(s0)
    80004e08:	00f70863          	beq	a4,a5,80004e18 <_ntoa_format+0x150>
    80004e0c:	00846783          	lwu	a5,8(s0)
    80004e10:	fc043703          	ld	a4,-64(s0)
    80004e14:	02f71a63          	bne	a4,a5,80004e48 <_ntoa_format+0x180>
    80004e18:	fc043783          	ld	a5,-64(s0)
    80004e1c:	fff78793          	addi	a5,a5,-1
    80004e20:	fcf43023          	sd	a5,-64(s0)
    80004e24:	fc043783          	ld	a5,-64(s0)
    80004e28:	02078063          	beqz	a5,80004e48 <_ntoa_format+0x180>
    80004e2c:	fb842783          	lw	a5,-72(s0)
    80004e30:	0007871b          	sext.w	a4,a5
    80004e34:	01000793          	li	a5,16
    80004e38:	00f71863          	bne	a4,a5,80004e48 <_ntoa_format+0x180>
    80004e3c:	fc043783          	ld	a5,-64(s0)
    80004e40:	fff78793          	addi	a5,a5,-1
    80004e44:	fcf43023          	sd	a5,-64(s0)
    80004e48:	fb842783          	lw	a5,-72(s0)
    80004e4c:	0007871b          	sext.w	a4,a5
    80004e50:	01000793          	li	a5,16
    80004e54:	04f71063          	bne	a4,a5,80004e94 <_ntoa_format+0x1cc>
    80004e58:	01042783          	lw	a5,16(s0)
    80004e5c:	0207f793          	andi	a5,a5,32
    80004e60:	0007879b          	sext.w	a5,a5
    80004e64:	02079863          	bnez	a5,80004e94 <_ntoa_format+0x1cc>
    80004e68:	fc043703          	ld	a4,-64(s0)
    80004e6c:	01f00793          	li	a5,31
    80004e70:	02e7e263          	bltu	a5,a4,80004e94 <_ntoa_format+0x1cc>
    80004e74:	fc043783          	ld	a5,-64(s0)
    80004e78:	00178713          	addi	a4,a5,1
    80004e7c:	fce43023          	sd	a4,-64(s0)
    80004e80:	fc843703          	ld	a4,-56(s0)
    80004e84:	00f707b3          	add	a5,a4,a5
    80004e88:	07800713          	li	a4,120
    80004e8c:	00e78023          	sb	a4,0(a5)
    80004e90:	0880006f          	j	80004f18 <_ntoa_format+0x250>
    80004e94:	fb842783          	lw	a5,-72(s0)
    80004e98:	0007871b          	sext.w	a4,a5
    80004e9c:	01000793          	li	a5,16
    80004ea0:	04f71063          	bne	a4,a5,80004ee0 <_ntoa_format+0x218>
    80004ea4:	01042783          	lw	a5,16(s0)
    80004ea8:	0207f793          	andi	a5,a5,32
    80004eac:	0007879b          	sext.w	a5,a5
    80004eb0:	02078863          	beqz	a5,80004ee0 <_ntoa_format+0x218>
    80004eb4:	fc043703          	ld	a4,-64(s0)
    80004eb8:	01f00793          	li	a5,31
    80004ebc:	02e7e263          	bltu	a5,a4,80004ee0 <_ntoa_format+0x218>
    80004ec0:	fc043783          	ld	a5,-64(s0)
    80004ec4:	00178713          	addi	a4,a5,1
    80004ec8:	fce43023          	sd	a4,-64(s0)
    80004ecc:	fc843703          	ld	a4,-56(s0)
    80004ed0:	00f707b3          	add	a5,a4,a5
    80004ed4:	05800713          	li	a4,88
    80004ed8:	00e78023          	sb	a4,0(a5)
    80004edc:	03c0006f          	j	80004f18 <_ntoa_format+0x250>
    80004ee0:	fb842783          	lw	a5,-72(s0)
    80004ee4:	0007871b          	sext.w	a4,a5
    80004ee8:	00200793          	li	a5,2
    80004eec:	02f71663          	bne	a4,a5,80004f18 <_ntoa_format+0x250>
    80004ef0:	fc043703          	ld	a4,-64(s0)
    80004ef4:	01f00793          	li	a5,31
    80004ef8:	02e7e063          	bltu	a5,a4,80004f18 <_ntoa_format+0x250>
    80004efc:	fc043783          	ld	a5,-64(s0)
    80004f00:	00178713          	addi	a4,a5,1
    80004f04:	fce43023          	sd	a4,-64(s0)
    80004f08:	fc843703          	ld	a4,-56(s0)
    80004f0c:	00f707b3          	add	a5,a4,a5
    80004f10:	06200713          	li	a4,98
    80004f14:	00e78023          	sb	a4,0(a5)
    80004f18:	fc043703          	ld	a4,-64(s0)
    80004f1c:	01f00793          	li	a5,31
    80004f20:	02e7e063          	bltu	a5,a4,80004f40 <_ntoa_format+0x278>
    80004f24:	fc043783          	ld	a5,-64(s0)
    80004f28:	00178713          	addi	a4,a5,1
    80004f2c:	fce43023          	sd	a4,-64(s0)
    80004f30:	fc843703          	ld	a4,-56(s0)
    80004f34:	00f707b3          	add	a5,a4,a5
    80004f38:	03000713          	li	a4,48
    80004f3c:	00e78023          	sb	a4,0(a5)
    80004f40:	fc043703          	ld	a4,-64(s0)
    80004f44:	01f00793          	li	a5,31
    80004f48:	08e7e663          	bltu	a5,a4,80004fd4 <_ntoa_format+0x30c>
    80004f4c:	fbf44783          	lbu	a5,-65(s0)
    80004f50:	0ff7f793          	zext.b	a5,a5
    80004f54:	02078263          	beqz	a5,80004f78 <_ntoa_format+0x2b0>
    80004f58:	fc043783          	ld	a5,-64(s0)
    80004f5c:	00178713          	addi	a4,a5,1
    80004f60:	fce43023          	sd	a4,-64(s0)
    80004f64:	fc843703          	ld	a4,-56(s0)
    80004f68:	00f707b3          	add	a5,a4,a5
    80004f6c:	02d00713          	li	a4,45
    80004f70:	00e78023          	sb	a4,0(a5)
    80004f74:	0600006f          	j	80004fd4 <_ntoa_format+0x30c>
    80004f78:	01042783          	lw	a5,16(s0)
    80004f7c:	0047f793          	andi	a5,a5,4
    80004f80:	0007879b          	sext.w	a5,a5
    80004f84:	02078263          	beqz	a5,80004fa8 <_ntoa_format+0x2e0>
    80004f88:	fc043783          	ld	a5,-64(s0)
    80004f8c:	00178713          	addi	a4,a5,1
    80004f90:	fce43023          	sd	a4,-64(s0)
    80004f94:	fc843703          	ld	a4,-56(s0)
    80004f98:	00f707b3          	add	a5,a4,a5
    80004f9c:	02b00713          	li	a4,43
    80004fa0:	00e78023          	sb	a4,0(a5)
    80004fa4:	0300006f          	j	80004fd4 <_ntoa_format+0x30c>
    80004fa8:	01042783          	lw	a5,16(s0)
    80004fac:	0087f793          	andi	a5,a5,8
    80004fb0:	0007879b          	sext.w	a5,a5
    80004fb4:	02078063          	beqz	a5,80004fd4 <_ntoa_format+0x30c>
    80004fb8:	fc043783          	ld	a5,-64(s0)
    80004fbc:	00178713          	addi	a4,a5,1
    80004fc0:	fce43023          	sd	a4,-64(s0)
    80004fc4:	fc843703          	ld	a4,-56(s0)
    80004fc8:	00f707b3          	add	a5,a4,a5
    80004fcc:	02000713          	li	a4,32
    80004fd0:	00e78023          	sb	a4,0(a5)
    80004fd4:	01042703          	lw	a4,16(s0)
    80004fd8:	00842783          	lw	a5,8(s0)
    80004fdc:	00070893          	mv	a7,a4
    80004fe0:	00078813          	mv	a6,a5
    80004fe4:	fc043783          	ld	a5,-64(s0)
    80004fe8:	fc843703          	ld	a4,-56(s0)
    80004fec:	fd043683          	ld	a3,-48(s0)
    80004ff0:	fd843603          	ld	a2,-40(s0)
    80004ff4:	fe043583          	ld	a1,-32(s0)
    80004ff8:	fe843503          	ld	a0,-24(s0)
    80004ffc:	b75ff0ef          	jal	ra,80004b70 <_out_rev>
    80005000:	00050793          	mv	a5,a0
    80005004:	00078513          	mv	a0,a5
    80005008:	04813083          	ld	ra,72(sp)
    8000500c:	04013403          	ld	s0,64(sp)
    80005010:	05010113          	addi	sp,sp,80
    80005014:	00008067          	ret

Disassembly of section .text._ntoa_long:

0000000080005018 <_ntoa_long>:
    80005018:	f6010113          	addi	sp,sp,-160
    8000501c:	08113c23          	sd	ra,152(sp)
    80005020:	08813823          	sd	s0,144(sp)
    80005024:	0a010413          	addi	s0,sp,160
    80005028:	faa43c23          	sd	a0,-72(s0)
    8000502c:	fab43823          	sd	a1,-80(s0)
    80005030:	fac43423          	sd	a2,-88(s0)
    80005034:	fad43023          	sd	a3,-96(s0)
    80005038:	f8e43c23          	sd	a4,-104(s0)
    8000503c:	f9043423          	sd	a6,-120(s0)
    80005040:	00088713          	mv	a4,a7
    80005044:	f8f40ba3          	sb	a5,-105(s0)
    80005048:	00070793          	mv	a5,a4
    8000504c:	f8f42823          	sw	a5,-112(s0)
    80005050:	fe043423          	sd	zero,-24(s0)
    80005054:	f9843783          	ld	a5,-104(s0)
    80005058:	00079863          	bnez	a5,80005068 <_ntoa_long+0x50>
    8000505c:	00842783          	lw	a5,8(s0)
    80005060:	fef7f793          	andi	a5,a5,-17
    80005064:	00f42423          	sw	a5,8(s0)
    80005068:	00842783          	lw	a5,8(s0)
    8000506c:	4007f793          	andi	a5,a5,1024
    80005070:	0007879b          	sext.w	a5,a5
    80005074:	00078663          	beqz	a5,80005080 <_ntoa_long+0x68>
    80005078:	f9843783          	ld	a5,-104(s0)
    8000507c:	0a078063          	beqz	a5,8000511c <_ntoa_long+0x104>
    80005080:	f9843703          	ld	a4,-104(s0)
    80005084:	f8843783          	ld	a5,-120(s0)
    80005088:	02f777b3          	remu	a5,a4,a5
    8000508c:	fef403a3          	sb	a5,-25(s0)
    80005090:	fe744783          	lbu	a5,-25(s0)
    80005094:	0ff7f713          	zext.b	a4,a5
    80005098:	00900793          	li	a5,9
    8000509c:	00e7ea63          	bltu	a5,a4,800050b0 <_ntoa_long+0x98>
    800050a0:	fe744783          	lbu	a5,-25(s0)
    800050a4:	0307879b          	addiw	a5,a5,48
    800050a8:	0ff7f793          	zext.b	a5,a5
    800050ac:	0340006f          	j	800050e0 <_ntoa_long+0xc8>
    800050b0:	00842783          	lw	a5,8(s0)
    800050b4:	0207f793          	andi	a5,a5,32
    800050b8:	0007879b          	sext.w	a5,a5
    800050bc:	00078663          	beqz	a5,800050c8 <_ntoa_long+0xb0>
    800050c0:	04100793          	li	a5,65
    800050c4:	0080006f          	j	800050cc <_ntoa_long+0xb4>
    800050c8:	06100793          	li	a5,97
    800050cc:	fe744703          	lbu	a4,-25(s0)
    800050d0:	00e787bb          	addw	a5,a5,a4
    800050d4:	0ff7f793          	zext.b	a5,a5
    800050d8:	ff67879b          	addiw	a5,a5,-10
    800050dc:	0ff7f793          	zext.b	a5,a5
    800050e0:	fe843703          	ld	a4,-24(s0)
    800050e4:	00170693          	addi	a3,a4,1
    800050e8:	fed43423          	sd	a3,-24(s0)
    800050ec:	ff040693          	addi	a3,s0,-16
    800050f0:	00e68733          	add	a4,a3,a4
    800050f4:	fcf70823          	sb	a5,-48(a4)
    800050f8:	f9843703          	ld	a4,-104(s0)
    800050fc:	f8843783          	ld	a5,-120(s0)
    80005100:	02f757b3          	divu	a5,a4,a5
    80005104:	f8f43c23          	sd	a5,-104(s0)
    80005108:	f9843783          	ld	a5,-104(s0)
    8000510c:	00078863          	beqz	a5,8000511c <_ntoa_long+0x104>
    80005110:	fe843703          	ld	a4,-24(s0)
    80005114:	01f00793          	li	a5,31
    80005118:	f6e7f4e3          	bgeu	a5,a4,80005080 <_ntoa_long+0x68>
    8000511c:	f8843783          	ld	a5,-120(s0)
    80005120:	0007861b          	sext.w	a2,a5
    80005124:	f9744683          	lbu	a3,-105(s0)
    80005128:	fc040713          	addi	a4,s0,-64
    8000512c:	00842783          	lw	a5,8(s0)
    80005130:	00f13823          	sd	a5,16(sp)
    80005134:	00042783          	lw	a5,0(s0)
    80005138:	00f13423          	sd	a5,8(sp)
    8000513c:	f9042783          	lw	a5,-112(s0)
    80005140:	00f13023          	sd	a5,0(sp)
    80005144:	00060893          	mv	a7,a2
    80005148:	00068813          	mv	a6,a3
    8000514c:	fe843783          	ld	a5,-24(s0)
    80005150:	fa043683          	ld	a3,-96(s0)
    80005154:	fa843603          	ld	a2,-88(s0)
    80005158:	fb043583          	ld	a1,-80(s0)
    8000515c:	fb843503          	ld	a0,-72(s0)
    80005160:	b69ff0ef          	jal	ra,80004cc8 <_ntoa_format>
    80005164:	00050793          	mv	a5,a0
    80005168:	00078513          	mv	a0,a5
    8000516c:	09813083          	ld	ra,152(sp)
    80005170:	09013403          	ld	s0,144(sp)
    80005174:	0a010113          	addi	sp,sp,160
    80005178:	00008067          	ret

Disassembly of section .text._ntoa_long_long:

000000008000517c <_ntoa_long_long>:
    8000517c:	f6010113          	addi	sp,sp,-160
    80005180:	08113c23          	sd	ra,152(sp)
    80005184:	08813823          	sd	s0,144(sp)
    80005188:	0a010413          	addi	s0,sp,160
    8000518c:	faa43c23          	sd	a0,-72(s0)
    80005190:	fab43823          	sd	a1,-80(s0)
    80005194:	fac43423          	sd	a2,-88(s0)
    80005198:	fad43023          	sd	a3,-96(s0)
    8000519c:	f8e43c23          	sd	a4,-104(s0)
    800051a0:	f9043423          	sd	a6,-120(s0)
    800051a4:	00088713          	mv	a4,a7
    800051a8:	f8f40ba3          	sb	a5,-105(s0)
    800051ac:	00070793          	mv	a5,a4
    800051b0:	f8f42823          	sw	a5,-112(s0)
    800051b4:	fe043423          	sd	zero,-24(s0)
    800051b8:	f9843783          	ld	a5,-104(s0)
    800051bc:	00079863          	bnez	a5,800051cc <_ntoa_long_long+0x50>
    800051c0:	00842783          	lw	a5,8(s0)
    800051c4:	fef7f793          	andi	a5,a5,-17
    800051c8:	00f42423          	sw	a5,8(s0)
    800051cc:	00842783          	lw	a5,8(s0)
    800051d0:	4007f793          	andi	a5,a5,1024
    800051d4:	0007879b          	sext.w	a5,a5
    800051d8:	00078663          	beqz	a5,800051e4 <_ntoa_long_long+0x68>
    800051dc:	f9843783          	ld	a5,-104(s0)
    800051e0:	0a078063          	beqz	a5,80005280 <_ntoa_long_long+0x104>
    800051e4:	f9843703          	ld	a4,-104(s0)
    800051e8:	f8843783          	ld	a5,-120(s0)
    800051ec:	02f777b3          	remu	a5,a4,a5
    800051f0:	fef403a3          	sb	a5,-25(s0)
    800051f4:	fe744783          	lbu	a5,-25(s0)
    800051f8:	0ff7f713          	zext.b	a4,a5
    800051fc:	00900793          	li	a5,9
    80005200:	00e7ea63          	bltu	a5,a4,80005214 <_ntoa_long_long+0x98>
    80005204:	fe744783          	lbu	a5,-25(s0)
    80005208:	0307879b          	addiw	a5,a5,48
    8000520c:	0ff7f793          	zext.b	a5,a5
    80005210:	0340006f          	j	80005244 <_ntoa_long_long+0xc8>
    80005214:	00842783          	lw	a5,8(s0)
    80005218:	0207f793          	andi	a5,a5,32
    8000521c:	0007879b          	sext.w	a5,a5
    80005220:	00078663          	beqz	a5,8000522c <_ntoa_long_long+0xb0>
    80005224:	04100793          	li	a5,65
    80005228:	0080006f          	j	80005230 <_ntoa_long_long+0xb4>
    8000522c:	06100793          	li	a5,97
    80005230:	fe744703          	lbu	a4,-25(s0)
    80005234:	00e787bb          	addw	a5,a5,a4
    80005238:	0ff7f793          	zext.b	a5,a5
    8000523c:	ff67879b          	addiw	a5,a5,-10
    80005240:	0ff7f793          	zext.b	a5,a5
    80005244:	fe843703          	ld	a4,-24(s0)
    80005248:	00170693          	addi	a3,a4,1
    8000524c:	fed43423          	sd	a3,-24(s0)
    80005250:	ff040693          	addi	a3,s0,-16
    80005254:	00e68733          	add	a4,a3,a4
    80005258:	fcf70823          	sb	a5,-48(a4)
    8000525c:	f9843703          	ld	a4,-104(s0)
    80005260:	f8843783          	ld	a5,-120(s0)
    80005264:	02f757b3          	divu	a5,a4,a5
    80005268:	f8f43c23          	sd	a5,-104(s0)
    8000526c:	f9843783          	ld	a5,-104(s0)
    80005270:	00078863          	beqz	a5,80005280 <_ntoa_long_long+0x104>
    80005274:	fe843703          	ld	a4,-24(s0)
    80005278:	01f00793          	li	a5,31
    8000527c:	f6e7f4e3          	bgeu	a5,a4,800051e4 <_ntoa_long_long+0x68>
    80005280:	f8843783          	ld	a5,-120(s0)
    80005284:	0007861b          	sext.w	a2,a5
    80005288:	f9744683          	lbu	a3,-105(s0)
    8000528c:	fc040713          	addi	a4,s0,-64
    80005290:	00842783          	lw	a5,8(s0)
    80005294:	00f13823          	sd	a5,16(sp)
    80005298:	00042783          	lw	a5,0(s0)
    8000529c:	00f13423          	sd	a5,8(sp)
    800052a0:	f9042783          	lw	a5,-112(s0)
    800052a4:	00f13023          	sd	a5,0(sp)
    800052a8:	00060893          	mv	a7,a2
    800052ac:	00068813          	mv	a6,a3
    800052b0:	fe843783          	ld	a5,-24(s0)
    800052b4:	fa043683          	ld	a3,-96(s0)
    800052b8:	fa843603          	ld	a2,-88(s0)
    800052bc:	fb043583          	ld	a1,-80(s0)
    800052c0:	fb843503          	ld	a0,-72(s0)
    800052c4:	a05ff0ef          	jal	ra,80004cc8 <_ntoa_format>
    800052c8:	00050793          	mv	a5,a0
    800052cc:	00078513          	mv	a0,a5
    800052d0:	09813083          	ld	ra,152(sp)
    800052d4:	09013403          	ld	s0,144(sp)
    800052d8:	0a010113          	addi	sp,sp,160
    800052dc:	00008067          	ret

Disassembly of section .text._ftoa:

00000000800052e0 <_ftoa>:
    800052e0:	f6010113          	addi	sp,sp,-160
    800052e4:	08113c23          	sd	ra,152(sp)
    800052e8:	08813823          	sd	s0,144(sp)
    800052ec:	0a010413          	addi	s0,sp,160
    800052f0:	f8a43c23          	sd	a0,-104(s0)
    800052f4:	f8b43823          	sd	a1,-112(s0)
    800052f8:	f8c43423          	sd	a2,-120(s0)
    800052fc:	f8d43023          	sd	a3,-128(s0)
    80005300:	f6a43c27          	fsd	fa0,-136(s0)
    80005304:	00070613          	mv	a2,a4
    80005308:	00078693          	mv	a3,a5
    8000530c:	00080713          	mv	a4,a6
    80005310:	00060793          	mv	a5,a2
    80005314:	f6f42a23          	sw	a5,-140(s0)
    80005318:	00068793          	mv	a5,a3
    8000531c:	f6f42823          	sw	a5,-144(s0)
    80005320:	00070793          	mv	a5,a4
    80005324:	f6f42623          	sw	a5,-148(s0)
    80005328:	fe043423          	sd	zero,-24(s0)
    8000532c:	fc043423          	sd	zero,-56(s0)
    80005330:	f7843707          	fld	fa4,-136(s0)
    80005334:	f7843787          	fld	fa5,-136(s0)
    80005338:	a2f727d3          	feq.d	a5,fa4,fa5
    8000533c:	02079e63          	bnez	a5,80005378 <_ftoa+0x98>
    80005340:	f6c42703          	lw	a4,-148(s0)
    80005344:	f7042783          	lw	a5,-144(s0)
    80005348:	00070893          	mv	a7,a4
    8000534c:	00078813          	mv	a6,a5
    80005350:	00300793          	li	a5,3
    80005354:	00002717          	auipc	a4,0x2
    80005358:	0d470713          	addi	a4,a4,212 # 80007428 <__am_mainargs+0x3>
    8000535c:	f8043683          	ld	a3,-128(s0)
    80005360:	f8843603          	ld	a2,-120(s0)
    80005364:	f9043583          	ld	a1,-112(s0)
    80005368:	f9843503          	ld	a0,-104(s0)
    8000536c:	805ff0ef          	jal	ra,80004b70 <_out_rev>
    80005370:	00050793          	mv	a5,a0
    80005374:	5c80006f          	j	8000593c <_ftoa+0x65c>
    80005378:	f7843707          	fld	fa4,-136(s0)
    8000537c:	00002797          	auipc	a5,0x2
    80005380:	0cc78793          	addi	a5,a5,204 # 80007448 <__am_mainargs+0x23>
    80005384:	0007b787          	fld	fa5,0(a5)
    80005388:	a2f717d3          	flt.d	a5,fa4,fa5
    8000538c:	02078e63          	beqz	a5,800053c8 <_ftoa+0xe8>
    80005390:	f6c42703          	lw	a4,-148(s0)
    80005394:	f7042783          	lw	a5,-144(s0)
    80005398:	00070893          	mv	a7,a4
    8000539c:	00078813          	mv	a6,a5
    800053a0:	00400793          	li	a5,4
    800053a4:	00002717          	auipc	a4,0x2
    800053a8:	08c70713          	addi	a4,a4,140 # 80007430 <__am_mainargs+0xb>
    800053ac:	f8043683          	ld	a3,-128(s0)
    800053b0:	f8843603          	ld	a2,-120(s0)
    800053b4:	f9043583          	ld	a1,-112(s0)
    800053b8:	f9843503          	ld	a0,-104(s0)
    800053bc:	fb4ff0ef          	jal	ra,80004b70 <_out_rev>
    800053c0:	00050793          	mv	a5,a0
    800053c4:	5780006f          	j	8000593c <_ftoa+0x65c>
    800053c8:	f7843707          	fld	fa4,-136(s0)
    800053cc:	00002797          	auipc	a5,0x2
    800053d0:	08478793          	addi	a5,a5,132 # 80007450 <__am_mainargs+0x2b>
    800053d4:	0007b787          	fld	fa5,0(a5)
    800053d8:	a2e797d3          	flt.d	a5,fa5,fa4
    800053dc:	06078863          	beqz	a5,8000544c <_ftoa+0x16c>
    800053e0:	f6c42783          	lw	a5,-148(s0)
    800053e4:	0047f793          	andi	a5,a5,4
    800053e8:	0007879b          	sext.w	a5,a5
    800053ec:	00078863          	beqz	a5,800053fc <_ftoa+0x11c>
    800053f0:	00002717          	auipc	a4,0x2
    800053f4:	04870713          	addi	a4,a4,72 # 80007438 <__am_mainargs+0x13>
    800053f8:	00c0006f          	j	80005404 <_ftoa+0x124>
    800053fc:	00002717          	auipc	a4,0x2
    80005400:	04470713          	addi	a4,a4,68 # 80007440 <__am_mainargs+0x1b>
    80005404:	f6c42783          	lw	a5,-148(s0)
    80005408:	0047f793          	andi	a5,a5,4
    8000540c:	0007879b          	sext.w	a5,a5
    80005410:	00078663          	beqz	a5,8000541c <_ftoa+0x13c>
    80005414:	00400793          	li	a5,4
    80005418:	0080006f          	j	80005420 <_ftoa+0x140>
    8000541c:	00300793          	li	a5,3
    80005420:	f6c42603          	lw	a2,-148(s0)
    80005424:	f7042683          	lw	a3,-144(s0)
    80005428:	00060893          	mv	a7,a2
    8000542c:	00068813          	mv	a6,a3
    80005430:	f8043683          	ld	a3,-128(s0)
    80005434:	f8843603          	ld	a2,-120(s0)
    80005438:	f9043583          	ld	a1,-112(s0)
    8000543c:	f9843503          	ld	a0,-104(s0)
    80005440:	f30ff0ef          	jal	ra,80004b70 <_out_rev>
    80005444:	00050793          	mv	a5,a0
    80005448:	4f40006f          	j	8000593c <_ftoa+0x65c>
    8000544c:	f7843707          	fld	fa4,-136(s0)
    80005450:	00002797          	auipc	a5,0x2
    80005454:	00878793          	addi	a5,a5,8 # 80007458 <__am_mainargs+0x33>
    80005458:	0007b787          	fld	fa5,0(a5)
    8000545c:	a2e797d3          	flt.d	a5,fa5,fa4
    80005460:	00079e63          	bnez	a5,8000547c <_ftoa+0x19c>
    80005464:	f7843707          	fld	fa4,-136(s0)
    80005468:	00002797          	auipc	a5,0x2
    8000546c:	ff878793          	addi	a5,a5,-8 # 80007460 <__am_mainargs+0x3b>
    80005470:	0007b787          	fld	fa5,0(a5)
    80005474:	a2f717d3          	flt.d	a5,fa4,fa5
    80005478:	02078a63          	beqz	a5,800054ac <_ftoa+0x1cc>
    8000547c:	f6c42683          	lw	a3,-148(s0)
    80005480:	f7042783          	lw	a5,-144(s0)
    80005484:	f7442703          	lw	a4,-140(s0)
    80005488:	00068813          	mv	a6,a3
    8000548c:	f7843507          	fld	fa0,-136(s0)
    80005490:	f8043683          	ld	a3,-128(s0)
    80005494:	f8843603          	ld	a2,-120(s0)
    80005498:	f9043583          	ld	a1,-112(s0)
    8000549c:	f9843503          	ld	a0,-104(s0)
    800054a0:	4b0000ef          	jal	ra,80005950 <_etoa>
    800054a4:	00050793          	mv	a5,a0
    800054a8:	4940006f          	j	8000593c <_ftoa+0x65c>
    800054ac:	fe0403a3          	sb	zero,-25(s0)
    800054b0:	f7843787          	fld	fa5,-136(s0)
    800054b4:	f2000753          	fmv.d.x	fa4,zero
    800054b8:	a2e797d3          	flt.d	a5,fa5,fa4
    800054bc:	00078e63          	beqz	a5,800054d8 <_ftoa+0x1f8>
    800054c0:	00100793          	li	a5,1
    800054c4:	fef403a3          	sb	a5,-25(s0)
    800054c8:	f2000753          	fmv.d.x	fa4,zero
    800054cc:	f7843787          	fld	fa5,-136(s0)
    800054d0:	0af777d3          	fsub.d	fa5,fa4,fa5
    800054d4:	f6f43c27          	fsd	fa5,-136(s0)
    800054d8:	f6c42783          	lw	a5,-148(s0)
    800054dc:	4007f793          	andi	a5,a5,1024
    800054e0:	0007879b          	sext.w	a5,a5
    800054e4:	02079c63          	bnez	a5,8000551c <_ftoa+0x23c>
    800054e8:	00600793          	li	a5,6
    800054ec:	f6f42a23          	sw	a5,-140(s0)
    800054f0:	02c0006f          	j	8000551c <_ftoa+0x23c>
    800054f4:	fe843783          	ld	a5,-24(s0)
    800054f8:	00178713          	addi	a4,a5,1
    800054fc:	fee43423          	sd	a4,-24(s0)
    80005500:	ff040713          	addi	a4,s0,-16
    80005504:	00f707b3          	add	a5,a4,a5
    80005508:	03000713          	li	a4,48
    8000550c:	fae78823          	sb	a4,-80(a5)
    80005510:	f7442783          	lw	a5,-140(s0)
    80005514:	fff7879b          	addiw	a5,a5,-1
    80005518:	f6f42a23          	sw	a5,-140(s0)
    8000551c:	fe843703          	ld	a4,-24(s0)
    80005520:	01f00793          	li	a5,31
    80005524:	00e7ea63          	bltu	a5,a4,80005538 <_ftoa+0x258>
    80005528:	f7442783          	lw	a5,-140(s0)
    8000552c:	0007871b          	sext.w	a4,a5
    80005530:	00900793          	li	a5,9
    80005534:	fce7e0e3          	bltu	a5,a4,800054f4 <_ftoa+0x214>
    80005538:	f7843787          	fld	fa5,-136(s0)
    8000553c:	c20797d3          	fcvt.w.d	a5,fa5,rtz
    80005540:	fef42023          	sw	a5,-32(s0)
    80005544:	fe042783          	lw	a5,-32(s0)
    80005548:	d20787d3          	fcvt.d.w	fa5,a5
    8000554c:	f7843707          	fld	fa4,-136(s0)
    80005550:	0af77753          	fsub.d	fa4,fa4,fa5
    80005554:	00002717          	auipc	a4,0x2
    80005558:	16c70713          	addi	a4,a4,364 # 800076c0 <pow10.0>
    8000555c:	f7446783          	lwu	a5,-140(s0)
    80005560:	00379793          	slli	a5,a5,0x3
    80005564:	00f707b3          	add	a5,a4,a5
    80005568:	0007b787          	fld	fa5,0(a5)
    8000556c:	12f777d3          	fmul.d	fa5,fa4,fa5
    80005570:	fcf43027          	fsd	fa5,-64(s0)
    80005574:	fc043787          	fld	fa5,-64(s0)
    80005578:	c23797d3          	fcvt.lu.d	a5,fa5,rtz
    8000557c:	fcf43c23          	sd	a5,-40(s0)
    80005580:	fd843783          	ld	a5,-40(s0)
    80005584:	d237f7d3          	fcvt.d.lu	fa5,a5
    80005588:	fc043707          	fld	fa4,-64(s0)
    8000558c:	0af777d3          	fsub.d	fa5,fa4,fa5
    80005590:	fcf43427          	fsd	fa5,-56(s0)
    80005594:	fc843707          	fld	fa4,-56(s0)
    80005598:	00002797          	auipc	a5,0x2
    8000559c:	ed078793          	addi	a5,a5,-304 # 80007468 <__am_mainargs+0x43>
    800055a0:	0007b787          	fld	fa5,0(a5)
    800055a4:	a2e797d3          	flt.d	a5,fa5,fa4
    800055a8:	04078663          	beqz	a5,800055f4 <_ftoa+0x314>
    800055ac:	fd843783          	ld	a5,-40(s0)
    800055b0:	00178793          	addi	a5,a5,1
    800055b4:	fcf43c23          	sd	a5,-40(s0)
    800055b8:	fd843783          	ld	a5,-40(s0)
    800055bc:	d237f753          	fcvt.d.lu	fa4,a5
    800055c0:	00002717          	auipc	a4,0x2
    800055c4:	10070713          	addi	a4,a4,256 # 800076c0 <pow10.0>
    800055c8:	f7446783          	lwu	a5,-140(s0)
    800055cc:	00379793          	slli	a5,a5,0x3
    800055d0:	00f707b3          	add	a5,a4,a5
    800055d4:	0007b787          	fld	fa5,0(a5)
    800055d8:	a2e787d3          	fle.d	a5,fa5,fa4
    800055dc:	04078863          	beqz	a5,8000562c <_ftoa+0x34c>
    800055e0:	fc043c23          	sd	zero,-40(s0)
    800055e4:	fe042783          	lw	a5,-32(s0)
    800055e8:	0017879b          	addiw	a5,a5,1
    800055ec:	fef42023          	sw	a5,-32(s0)
    800055f0:	03c0006f          	j	8000562c <_ftoa+0x34c>
    800055f4:	fc843707          	fld	fa4,-56(s0)
    800055f8:	00002797          	auipc	a5,0x2
    800055fc:	e7078793          	addi	a5,a5,-400 # 80007468 <__am_mainargs+0x43>
    80005600:	0007b787          	fld	fa5,0(a5)
    80005604:	a2f717d3          	flt.d	a5,fa4,fa5
    80005608:	02079263          	bnez	a5,8000562c <_ftoa+0x34c>
    8000560c:	fd843783          	ld	a5,-40(s0)
    80005610:	00078863          	beqz	a5,80005620 <_ftoa+0x340>
    80005614:	fd843783          	ld	a5,-40(s0)
    80005618:	0017f793          	andi	a5,a5,1
    8000561c:	00078863          	beqz	a5,8000562c <_ftoa+0x34c>
    80005620:	fd843783          	ld	a5,-40(s0)
    80005624:	00178793          	addi	a5,a5,1
    80005628:	fcf43c23          	sd	a5,-40(s0)
    8000562c:	f7442783          	lw	a5,-140(s0)
    80005630:	0007879b          	sext.w	a5,a5
    80005634:	06079c63          	bnez	a5,800056ac <_ftoa+0x3cc>
    80005638:	fe042783          	lw	a5,-32(s0)
    8000563c:	d20787d3          	fcvt.d.w	fa5,a5
    80005640:	f7843707          	fld	fa4,-136(s0)
    80005644:	0af777d3          	fsub.d	fa5,fa4,fa5
    80005648:	fcf43427          	fsd	fa5,-56(s0)
    8000564c:	fc843707          	fld	fa4,-56(s0)
    80005650:	00002797          	auipc	a5,0x2
    80005654:	e1878793          	addi	a5,a5,-488 # 80007468 <__am_mainargs+0x43>
    80005658:	0007b787          	fld	fa5,0(a5)
    8000565c:	a2f717d3          	flt.d	a5,fa4,fa5
    80005660:	00f037b3          	snez	a5,a5
    80005664:	0ff7f793          	zext.b	a5,a5
    80005668:	0017c793          	xori	a5,a5,1
    8000566c:	0ff7f793          	zext.b	a5,a5
    80005670:	00079e63          	bnez	a5,8000568c <_ftoa+0x3ac>
    80005674:	fc843707          	fld	fa4,-56(s0)
    80005678:	00002797          	auipc	a5,0x2
    8000567c:	df078793          	addi	a5,a5,-528 # 80007468 <__am_mainargs+0x43>
    80005680:	0007b787          	fld	fa5,0(a5)
    80005684:	a2e797d3          	flt.d	a5,fa5,fa4
    80005688:	0e078e63          	beqz	a5,80005784 <_ftoa+0x4a4>
    8000568c:	fe042783          	lw	a5,-32(s0)
    80005690:	0017f793          	andi	a5,a5,1
    80005694:	0007879b          	sext.w	a5,a5
    80005698:	14078063          	beqz	a5,800057d8 <_ftoa+0x4f8>
    8000569c:	fe042783          	lw	a5,-32(s0)
    800056a0:	0017879b          	addiw	a5,a5,1
    800056a4:	fef42023          	sw	a5,-32(s0)
    800056a8:	1300006f          	j	800057d8 <_ftoa+0x4f8>
    800056ac:	f7442783          	lw	a5,-140(s0)
    800056b0:	fcf42a23          	sw	a5,-44(s0)
    800056b4:	0580006f          	j	8000570c <_ftoa+0x42c>
    800056b8:	fd442783          	lw	a5,-44(s0)
    800056bc:	fff7879b          	addiw	a5,a5,-1
    800056c0:	fcf42a23          	sw	a5,-44(s0)
    800056c4:	fd843703          	ld	a4,-40(s0)
    800056c8:	00a00793          	li	a5,10
    800056cc:	02f777b3          	remu	a5,a4,a5
    800056d0:	0ff7f713          	zext.b	a4,a5
    800056d4:	fe843783          	ld	a5,-24(s0)
    800056d8:	00178693          	addi	a3,a5,1
    800056dc:	fed43423          	sd	a3,-24(s0)
    800056e0:	0307071b          	addiw	a4,a4,48
    800056e4:	0ff77713          	zext.b	a4,a4
    800056e8:	ff040693          	addi	a3,s0,-16
    800056ec:	00f687b3          	add	a5,a3,a5
    800056f0:	fae78823          	sb	a4,-80(a5)
    800056f4:	fd843703          	ld	a4,-40(s0)
    800056f8:	00a00793          	li	a5,10
    800056fc:	02f757b3          	divu	a5,a4,a5
    80005700:	fcf43c23          	sd	a5,-40(s0)
    80005704:	fd843783          	ld	a5,-40(s0)
    80005708:	00078a63          	beqz	a5,8000571c <_ftoa+0x43c>
    8000570c:	fe843703          	ld	a4,-24(s0)
    80005710:	01f00793          	li	a5,31
    80005714:	fae7f2e3          	bgeu	a5,a4,800056b8 <_ftoa+0x3d8>
    80005718:	0280006f          	j	80005740 <_ftoa+0x460>
    8000571c:	00000013          	nop
    80005720:	0200006f          	j	80005740 <_ftoa+0x460>
    80005724:	fe843783          	ld	a5,-24(s0)
    80005728:	00178713          	addi	a4,a5,1
    8000572c:	fee43423          	sd	a4,-24(s0)
    80005730:	ff040713          	addi	a4,s0,-16
    80005734:	00f707b3          	add	a5,a4,a5
    80005738:	03000713          	li	a4,48
    8000573c:	fae78823          	sb	a4,-80(a5)
    80005740:	fe843703          	ld	a4,-24(s0)
    80005744:	01f00793          	li	a5,31
    80005748:	00e7ea63          	bltu	a5,a4,8000575c <_ftoa+0x47c>
    8000574c:	fd442783          	lw	a5,-44(s0)
    80005750:	fff7871b          	addiw	a4,a5,-1
    80005754:	fce42a23          	sw	a4,-44(s0)
    80005758:	fc0796e3          	bnez	a5,80005724 <_ftoa+0x444>
    8000575c:	fe843703          	ld	a4,-24(s0)
    80005760:	01f00793          	li	a5,31
    80005764:	06e7ea63          	bltu	a5,a4,800057d8 <_ftoa+0x4f8>
    80005768:	fe843783          	ld	a5,-24(s0)
    8000576c:	00178713          	addi	a4,a5,1
    80005770:	fee43423          	sd	a4,-24(s0)
    80005774:	ff040713          	addi	a4,s0,-16
    80005778:	00f707b3          	add	a5,a4,a5
    8000577c:	02e00713          	li	a4,46
    80005780:	fae78823          	sb	a4,-80(a5)
    80005784:	0540006f          	j	800057d8 <_ftoa+0x4f8>
    80005788:	fe042703          	lw	a4,-32(s0)
    8000578c:	00a00793          	li	a5,10
    80005790:	02f767bb          	remw	a5,a4,a5
    80005794:	0007879b          	sext.w	a5,a5
    80005798:	0ff7f713          	zext.b	a4,a5
    8000579c:	fe843783          	ld	a5,-24(s0)
    800057a0:	00178693          	addi	a3,a5,1
    800057a4:	fed43423          	sd	a3,-24(s0)
    800057a8:	0307071b          	addiw	a4,a4,48
    800057ac:	0ff77713          	zext.b	a4,a4
    800057b0:	ff040693          	addi	a3,s0,-16
    800057b4:	00f687b3          	add	a5,a3,a5
    800057b8:	fae78823          	sb	a4,-80(a5)
    800057bc:	fe042703          	lw	a4,-32(s0)
    800057c0:	00a00793          	li	a5,10
    800057c4:	02f747bb          	divw	a5,a4,a5
    800057c8:	fef42023          	sw	a5,-32(s0)
    800057cc:	fe042783          	lw	a5,-32(s0)
    800057d0:	0007879b          	sext.w	a5,a5
    800057d4:	00078a63          	beqz	a5,800057e8 <_ftoa+0x508>
    800057d8:	fe843703          	ld	a4,-24(s0)
    800057dc:	01f00793          	li	a5,31
    800057e0:	fae7f4e3          	bgeu	a5,a4,80005788 <_ftoa+0x4a8>
    800057e4:	0080006f          	j	800057ec <_ftoa+0x50c>
    800057e8:	00000013          	nop
    800057ec:	f6c42783          	lw	a5,-148(s0)
    800057f0:	0027f793          	andi	a5,a5,2
    800057f4:	0007879b          	sext.w	a5,a5
    800057f8:	08079063          	bnez	a5,80005878 <_ftoa+0x598>
    800057fc:	f6c42783          	lw	a5,-148(s0)
    80005800:	0017f793          	andi	a5,a5,1
    80005804:	0007879b          	sext.w	a5,a5
    80005808:	06078863          	beqz	a5,80005878 <_ftoa+0x598>
    8000580c:	f7042783          	lw	a5,-144(s0)
    80005810:	0007879b          	sext.w	a5,a5
    80005814:	04078663          	beqz	a5,80005860 <_ftoa+0x580>
    80005818:	fe744783          	lbu	a5,-25(s0)
    8000581c:	0ff7f793          	zext.b	a5,a5
    80005820:	00079a63          	bnez	a5,80005834 <_ftoa+0x554>
    80005824:	f6c42783          	lw	a5,-148(s0)
    80005828:	00c7f793          	andi	a5,a5,12
    8000582c:	0007879b          	sext.w	a5,a5
    80005830:	02078863          	beqz	a5,80005860 <_ftoa+0x580>
    80005834:	f7042783          	lw	a5,-144(s0)
    80005838:	fff7879b          	addiw	a5,a5,-1
    8000583c:	f6f42823          	sw	a5,-144(s0)
    80005840:	0200006f          	j	80005860 <_ftoa+0x580>
    80005844:	fe843783          	ld	a5,-24(s0)
    80005848:	00178713          	addi	a4,a5,1
    8000584c:	fee43423          	sd	a4,-24(s0)
    80005850:	ff040713          	addi	a4,s0,-16
    80005854:	00f707b3          	add	a5,a4,a5
    80005858:	03000713          	li	a4,48
    8000585c:	fae78823          	sb	a4,-80(a5)
    80005860:	f7046783          	lwu	a5,-144(s0)
    80005864:	fe843703          	ld	a4,-24(s0)
    80005868:	00f77863          	bgeu	a4,a5,80005878 <_ftoa+0x598>
    8000586c:	fe843703          	ld	a4,-24(s0)
    80005870:	01f00793          	li	a5,31
    80005874:	fce7f8e3          	bgeu	a5,a4,80005844 <_ftoa+0x564>
    80005878:	fe843703          	ld	a4,-24(s0)
    8000587c:	01f00793          	li	a5,31
    80005880:	08e7e663          	bltu	a5,a4,8000590c <_ftoa+0x62c>
    80005884:	fe744783          	lbu	a5,-25(s0)
    80005888:	0ff7f793          	zext.b	a5,a5
    8000588c:	02078263          	beqz	a5,800058b0 <_ftoa+0x5d0>
    80005890:	fe843783          	ld	a5,-24(s0)
    80005894:	00178713          	addi	a4,a5,1
    80005898:	fee43423          	sd	a4,-24(s0)
    8000589c:	ff040713          	addi	a4,s0,-16
    800058a0:	00f707b3          	add	a5,a4,a5
    800058a4:	02d00713          	li	a4,45
    800058a8:	fae78823          	sb	a4,-80(a5)
    800058ac:	0600006f          	j	8000590c <_ftoa+0x62c>
    800058b0:	f6c42783          	lw	a5,-148(s0)
    800058b4:	0047f793          	andi	a5,a5,4
    800058b8:	0007879b          	sext.w	a5,a5
    800058bc:	02078263          	beqz	a5,800058e0 <_ftoa+0x600>
    800058c0:	fe843783          	ld	a5,-24(s0)
    800058c4:	00178713          	addi	a4,a5,1
    800058c8:	fee43423          	sd	a4,-24(s0)
    800058cc:	ff040713          	addi	a4,s0,-16
    800058d0:	00f707b3          	add	a5,a4,a5
    800058d4:	02b00713          	li	a4,43
    800058d8:	fae78823          	sb	a4,-80(a5)
    800058dc:	0300006f          	j	8000590c <_ftoa+0x62c>
    800058e0:	f6c42783          	lw	a5,-148(s0)
    800058e4:	0087f793          	andi	a5,a5,8
    800058e8:	0007879b          	sext.w	a5,a5
    800058ec:	02078063          	beqz	a5,8000590c <_ftoa+0x62c>
    800058f0:	fe843783          	ld	a5,-24(s0)
    800058f4:	00178713          	addi	a4,a5,1
    800058f8:	fee43423          	sd	a4,-24(s0)
    800058fc:	ff040713          	addi	a4,s0,-16
    80005900:	00f707b3          	add	a5,a4,a5
    80005904:	02000713          	li	a4,32
    80005908:	fae78823          	sb	a4,-80(a5)
    8000590c:	f6c42683          	lw	a3,-148(s0)
    80005910:	f7042783          	lw	a5,-144(s0)
    80005914:	fa040713          	addi	a4,s0,-96
    80005918:	00068893          	mv	a7,a3
    8000591c:	00078813          	mv	a6,a5
    80005920:	fe843783          	ld	a5,-24(s0)
    80005924:	f8043683          	ld	a3,-128(s0)
    80005928:	f8843603          	ld	a2,-120(s0)
    8000592c:	f9043583          	ld	a1,-112(s0)
    80005930:	f9843503          	ld	a0,-104(s0)
    80005934:	a3cff0ef          	jal	ra,80004b70 <_out_rev>
    80005938:	00050793          	mv	a5,a0
    8000593c:	00078513          	mv	a0,a5
    80005940:	09813083          	ld	ra,152(sp)
    80005944:	09013403          	ld	s0,144(sp)
    80005948:	0a010113          	addi	sp,sp,160
    8000594c:	00008067          	ret

Disassembly of section .text._etoa:

0000000080005950 <_etoa>:
    80005950:	f6010113          	addi	sp,sp,-160
    80005954:	08113c23          	sd	ra,152(sp)
    80005958:	08813823          	sd	s0,144(sp)
    8000595c:	0a010413          	addi	s0,sp,160
    80005960:	faa43423          	sd	a0,-88(s0)
    80005964:	fab43023          	sd	a1,-96(s0)
    80005968:	f8c43c23          	sd	a2,-104(s0)
    8000596c:	f8d43823          	sd	a3,-112(s0)
    80005970:	f8a43427          	fsd	fa0,-120(s0)
    80005974:	00070613          	mv	a2,a4
    80005978:	00078693          	mv	a3,a5
    8000597c:	00080713          	mv	a4,a6
    80005980:	00060793          	mv	a5,a2
    80005984:	f8f42223          	sw	a5,-124(s0)
    80005988:	00068793          	mv	a5,a3
    8000598c:	f8f42023          	sw	a5,-128(s0)
    80005990:	00070793          	mv	a5,a4
    80005994:	f6f42e23          	sw	a5,-132(s0)
    80005998:	f8843707          	fld	fa4,-120(s0)
    8000599c:	f8843787          	fld	fa5,-120(s0)
    800059a0:	a2f727d3          	feq.d	a5,fa4,fa5
    800059a4:	02078a63          	beqz	a5,800059d8 <_etoa+0x88>
    800059a8:	f8843707          	fld	fa4,-120(s0)
    800059ac:	00002797          	auipc	a5,0x2
    800059b0:	aa478793          	addi	a5,a5,-1372 # 80007450 <__am_mainargs+0x2b>
    800059b4:	0007b787          	fld	fa5,0(a5)
    800059b8:	a2e797d3          	flt.d	a5,fa5,fa4
    800059bc:	00079e63          	bnez	a5,800059d8 <_etoa+0x88>
    800059c0:	f8843707          	fld	fa4,-120(s0)
    800059c4:	00002797          	auipc	a5,0x2
    800059c8:	a8478793          	addi	a5,a5,-1404 # 80007448 <__am_mainargs+0x23>
    800059cc:	0007b787          	fld	fa5,0(a5)
    800059d0:	a2f717d3          	flt.d	a5,fa4,fa5
    800059d4:	02078a63          	beqz	a5,80005a08 <_etoa+0xb8>
    800059d8:	f7c42683          	lw	a3,-132(s0)
    800059dc:	f8042783          	lw	a5,-128(s0)
    800059e0:	f8442703          	lw	a4,-124(s0)
    800059e4:	00068813          	mv	a6,a3
    800059e8:	f8843507          	fld	fa0,-120(s0)
    800059ec:	f9043683          	ld	a3,-112(s0)
    800059f0:	f9843603          	ld	a2,-104(s0)
    800059f4:	fa043583          	ld	a1,-96(s0)
    800059f8:	fa843503          	ld	a0,-88(s0)
    800059fc:	8e5ff0ef          	jal	ra,800052e0 <_ftoa>
    80005a00:	00050793          	mv	a5,a0
    80005a04:	4e40006f          	j	80005ee8 <_etoa+0x598>
    80005a08:	f8843787          	fld	fa5,-120(s0)
    80005a0c:	f2000753          	fmv.d.x	fa4,zero
    80005a10:	a2e797d3          	flt.d	a5,fa5,fa4
    80005a14:	00f037b3          	snez	a5,a5
    80005a18:	fef401a3          	sb	a5,-29(s0)
    80005a1c:	fe344783          	lbu	a5,-29(s0)
    80005a20:	0ff7f793          	zext.b	a5,a5
    80005a24:	00078863          	beqz	a5,80005a34 <_etoa+0xe4>
    80005a28:	f8843787          	fld	fa5,-120(s0)
    80005a2c:	22f797d3          	fneg.d	fa5,fa5
    80005a30:	f8f43427          	fsd	fa5,-120(s0)
    80005a34:	f7c42783          	lw	a5,-132(s0)
    80005a38:	4007f793          	andi	a5,a5,1024
    80005a3c:	0007879b          	sext.w	a5,a5
    80005a40:	00079663          	bnez	a5,80005a4c <_etoa+0xfc>
    80005a44:	00600793          	li	a5,6
    80005a48:	f8f42223          	sw	a5,-124(s0)
    80005a4c:	f8843787          	fld	fa5,-120(s0)
    80005a50:	faf43c27          	fsd	fa5,-72(s0)
    80005a54:	fb843783          	ld	a5,-72(s0)
    80005a58:	0347d793          	srli	a5,a5,0x34
    80005a5c:	0007879b          	sext.w	a5,a5
    80005a60:	7ff7f793          	andi	a5,a5,2047
    80005a64:	0007879b          	sext.w	a5,a5
    80005a68:	c017879b          	addiw	a5,a5,-1023
    80005a6c:	fcf42e23          	sw	a5,-36(s0)
    80005a70:	fb843703          	ld	a4,-72(s0)
    80005a74:	fff00793          	li	a5,-1
    80005a78:	00c7d793          	srli	a5,a5,0xc
    80005a7c:	00f77733          	and	a4,a4,a5
    80005a80:	3ff00793          	li	a5,1023
    80005a84:	03479793          	slli	a5,a5,0x34
    80005a88:	00f767b3          	or	a5,a4,a5
    80005a8c:	faf43c23          	sd	a5,-72(s0)
    80005a90:	fdc42783          	lw	a5,-36(s0)
    80005a94:	d2078753          	fcvt.d.w	fa4,a5
    80005a98:	00002797          	auipc	a5,0x2
    80005a9c:	9d878793          	addi	a5,a5,-1576 # 80007470 <__am_mainargs+0x4b>
    80005aa0:	0007b787          	fld	fa5,0(a5)
    80005aa4:	12f77753          	fmul.d	fa4,fa4,fa5
    80005aa8:	00002797          	auipc	a5,0x2
    80005aac:	9d078793          	addi	a5,a5,-1584 # 80007478 <__am_mainargs+0x53>
    80005ab0:	0007b787          	fld	fa5,0(a5)
    80005ab4:	02f77753          	fadd.d	fa4,fa4,fa5
    80005ab8:	fb843687          	fld	fa3,-72(s0)
    80005abc:	00002797          	auipc	a5,0x2
    80005ac0:	9c478793          	addi	a5,a5,-1596 # 80007480 <__am_mainargs+0x5b>
    80005ac4:	0007b787          	fld	fa5,0(a5)
    80005ac8:	0af6f6d3          	fsub.d	fa3,fa3,fa5
    80005acc:	00002797          	auipc	a5,0x2
    80005ad0:	9bc78793          	addi	a5,a5,-1604 # 80007488 <__am_mainargs+0x63>
    80005ad4:	0007b787          	fld	fa5,0(a5)
    80005ad8:	12f6f7d3          	fmul.d	fa5,fa3,fa5
    80005adc:	02f777d3          	fadd.d	fa5,fa4,fa5
    80005ae0:	c20797d3          	fcvt.w.d	a5,fa5,rtz
    80005ae4:	fef42623          	sw	a5,-20(s0)
    80005ae8:	fec42783          	lw	a5,-20(s0)
    80005aec:	d2078753          	fcvt.d.w	fa4,a5
    80005af0:	00002797          	auipc	a5,0x2
    80005af4:	9a078793          	addi	a5,a5,-1632 # 80007490 <__am_mainargs+0x6b>
    80005af8:	0007b787          	fld	fa5,0(a5)
    80005afc:	12f77753          	fmul.d	fa4,fa4,fa5
    80005b00:	00002797          	auipc	a5,0x2
    80005b04:	96878793          	addi	a5,a5,-1688 # 80007468 <__am_mainargs+0x43>
    80005b08:	0007b787          	fld	fa5,0(a5)
    80005b0c:	02f777d3          	fadd.d	fa5,fa4,fa5
    80005b10:	c20797d3          	fcvt.w.d	a5,fa5,rtz
    80005b14:	fcf42e23          	sw	a5,-36(s0)
    80005b18:	fec42783          	lw	a5,-20(s0)
    80005b1c:	d2078753          	fcvt.d.w	fa4,a5
    80005b20:	00002797          	auipc	a5,0x2
    80005b24:	97878793          	addi	a5,a5,-1672 # 80007498 <__am_mainargs+0x73>
    80005b28:	0007b787          	fld	fa5,0(a5)
    80005b2c:	12f77753          	fmul.d	fa4,fa4,fa5
    80005b30:	fdc42783          	lw	a5,-36(s0)
    80005b34:	d20786d3          	fcvt.d.w	fa3,a5
    80005b38:	00002797          	auipc	a5,0x2
    80005b3c:	96878793          	addi	a5,a5,-1688 # 800074a0 <__am_mainargs+0x7b>
    80005b40:	0007b787          	fld	fa5,0(a5)
    80005b44:	12f6f7d3          	fmul.d	fa5,fa3,fa5
    80005b48:	0af777d3          	fsub.d	fa5,fa4,fa5
    80005b4c:	fcf43827          	fsd	fa5,-48(s0)
    80005b50:	fd043787          	fld	fa5,-48(s0)
    80005b54:	12f7f7d3          	fmul.d	fa5,fa5,fa5
    80005b58:	fcf43427          	fsd	fa5,-56(s0)
    80005b5c:	fdc42783          	lw	a5,-36(s0)
    80005b60:	3ff7879b          	addiw	a5,a5,1023
    80005b64:	0007879b          	sext.w	a5,a5
    80005b68:	03479793          	slli	a5,a5,0x34
    80005b6c:	faf43c23          	sd	a5,-72(s0)
    80005b70:	fb843707          	fld	fa4,-72(s0)
    80005b74:	fd043787          	fld	fa5,-48(s0)
    80005b78:	02f7f6d3          	fadd.d	fa3,fa5,fa5
    80005b7c:	00002797          	auipc	a5,0x2
    80005b80:	92c78793          	addi	a5,a5,-1748 # 800074a8 <__am_mainargs+0x83>
    80005b84:	0007b607          	fld	fa2,0(a5)
    80005b88:	fd043787          	fld	fa5,-48(s0)
    80005b8c:	0af67653          	fsub.d	fa2,fa2,fa5
    80005b90:	fc843587          	fld	fa1,-56(s0)
    80005b94:	00002797          	auipc	a5,0x2
    80005b98:	91c78793          	addi	a5,a5,-1764 # 800074b0 <__am_mainargs+0x8b>
    80005b9c:	0007b787          	fld	fa5,0(a5)
    80005ba0:	1af5f5d3          	fdiv.d	fa1,fa1,fa5
    80005ba4:	00002797          	auipc	a5,0x2
    80005ba8:	91478793          	addi	a5,a5,-1772 # 800074b8 <__am_mainargs+0x93>
    80005bac:	0007b787          	fld	fa5,0(a5)
    80005bb0:	02f5f7d3          	fadd.d	fa5,fa1,fa5
    80005bb4:	fc843587          	fld	fa1,-56(s0)
    80005bb8:	1af5f5d3          	fdiv.d	fa1,fa1,fa5
    80005bbc:	00002797          	auipc	a5,0x2
    80005bc0:	90478793          	addi	a5,a5,-1788 # 800074c0 <__am_mainargs+0x9b>
    80005bc4:	0007b787          	fld	fa5,0(a5)
    80005bc8:	02f5f7d3          	fadd.d	fa5,fa1,fa5
    80005bcc:	fc843587          	fld	fa1,-56(s0)
    80005bd0:	1af5f7d3          	fdiv.d	fa5,fa1,fa5
    80005bd4:	02f677d3          	fadd.d	fa5,fa2,fa5
    80005bd8:	1af6f6d3          	fdiv.d	fa3,fa3,fa5
    80005bdc:	00002797          	auipc	a5,0x2
    80005be0:	8ec78793          	addi	a5,a5,-1812 # 800074c8 <__am_mainargs+0xa3>
    80005be4:	0007b787          	fld	fa5,0(a5)
    80005be8:	02f6f7d3          	fadd.d	fa5,fa3,fa5
    80005bec:	12f777d3          	fmul.d	fa5,fa4,fa5
    80005bf0:	faf43c27          	fsd	fa5,-72(s0)
    80005bf4:	fb843787          	fld	fa5,-72(s0)
    80005bf8:	f8843707          	fld	fa4,-120(s0)
    80005bfc:	a2f717d3          	flt.d	a5,fa4,fa5
    80005c00:	02078463          	beqz	a5,80005c28 <_etoa+0x2d8>
    80005c04:	fec42783          	lw	a5,-20(s0)
    80005c08:	fff7879b          	addiw	a5,a5,-1
    80005c0c:	fef42623          	sw	a5,-20(s0)
    80005c10:	fb843707          	fld	fa4,-72(s0)
    80005c14:	00002797          	auipc	a5,0x2
    80005c18:	8a478793          	addi	a5,a5,-1884 # 800074b8 <__am_mainargs+0x93>
    80005c1c:	0007b787          	fld	fa5,0(a5)
    80005c20:	1af777d3          	fdiv.d	fa5,fa4,fa5
    80005c24:	faf43c27          	fsd	fa5,-72(s0)
    80005c28:	fec42783          	lw	a5,-20(s0)
    80005c2c:	0007871b          	sext.w	a4,a5
    80005c30:	06300793          	li	a5,99
    80005c34:	00e7ce63          	blt	a5,a4,80005c50 <_etoa+0x300>
    80005c38:	fec42783          	lw	a5,-20(s0)
    80005c3c:	0007871b          	sext.w	a4,a5
    80005c40:	f9d00793          	li	a5,-99
    80005c44:	00f74663          	blt	a4,a5,80005c50 <_etoa+0x300>
    80005c48:	00400793          	li	a5,4
    80005c4c:	0080006f          	j	80005c54 <_etoa+0x304>
    80005c50:	00500793          	li	a5,5
    80005c54:	fef42423          	sw	a5,-24(s0)
    80005c58:	f7c42703          	lw	a4,-132(s0)
    80005c5c:	000017b7          	lui	a5,0x1
    80005c60:	80078793          	addi	a5,a5,-2048 # 800 <_start-0x7ffff800>
    80005c64:	00f777b3          	and	a5,a4,a5
    80005c68:	0007879b          	sext.w	a5,a5
    80005c6c:	0a078463          	beqz	a5,80005d14 <_etoa+0x3c4>
    80005c70:	f8843707          	fld	fa4,-120(s0)
    80005c74:	00002797          	auipc	a5,0x2
    80005c78:	85c78793          	addi	a5,a5,-1956 # 800074d0 <__am_mainargs+0xab>
    80005c7c:	0007b787          	fld	fa5,0(a5)
    80005c80:	a2e787d3          	fle.d	a5,fa5,fa4
    80005c84:	06078463          	beqz	a5,80005cec <_etoa+0x39c>
    80005c88:	f8843707          	fld	fa4,-120(s0)
    80005c8c:	00002797          	auipc	a5,0x2
    80005c90:	84c78793          	addi	a5,a5,-1972 # 800074d8 <__am_mainargs+0xb3>
    80005c94:	0007b787          	fld	fa5,0(a5)
    80005c98:	a2f717d3          	flt.d	a5,fa4,fa5
    80005c9c:	04078863          	beqz	a5,80005cec <_etoa+0x39c>
    80005ca0:	f8442703          	lw	a4,-124(s0)
    80005ca4:	fec42783          	lw	a5,-20(s0)
    80005ca8:	0007879b          	sext.w	a5,a5
    80005cac:	02e7d263          	bge	a5,a4,80005cd0 <_etoa+0x380>
    80005cb0:	f8442703          	lw	a4,-124(s0)
    80005cb4:	fec42783          	lw	a5,-20(s0)
    80005cb8:	40f707bb          	subw	a5,a4,a5
    80005cbc:	0007879b          	sext.w	a5,a5
    80005cc0:	fff7879b          	addiw	a5,a5,-1
    80005cc4:	0007879b          	sext.w	a5,a5
    80005cc8:	f8f42223          	sw	a5,-124(s0)
    80005ccc:	0080006f          	j	80005cd4 <_etoa+0x384>
    80005cd0:	f8042223          	sw	zero,-124(s0)
    80005cd4:	f7c42783          	lw	a5,-132(s0)
    80005cd8:	4007e793          	ori	a5,a5,1024
    80005cdc:	f6f42e23          	sw	a5,-132(s0)
    80005ce0:	fe042423          	sw	zero,-24(s0)
    80005ce4:	fe042623          	sw	zero,-20(s0)
    80005ce8:	02c0006f          	j	80005d14 <_etoa+0x3c4>
    80005cec:	f8442783          	lw	a5,-124(s0)
    80005cf0:	0007879b          	sext.w	a5,a5
    80005cf4:	02078063          	beqz	a5,80005d14 <_etoa+0x3c4>
    80005cf8:	f7c42783          	lw	a5,-132(s0)
    80005cfc:	4007f793          	andi	a5,a5,1024
    80005d00:	0007879b          	sext.w	a5,a5
    80005d04:	00078863          	beqz	a5,80005d14 <_etoa+0x3c4>
    80005d08:	f8442783          	lw	a5,-124(s0)
    80005d0c:	fff7879b          	addiw	a5,a5,-1
    80005d10:	f8f42223          	sw	a5,-124(s0)
    80005d14:	f8042783          	lw	a5,-128(s0)
    80005d18:	fef42223          	sw	a5,-28(s0)
    80005d1c:	f8042703          	lw	a4,-128(s0)
    80005d20:	fe842783          	lw	a5,-24(s0)
    80005d24:	0007071b          	sext.w	a4,a4
    80005d28:	0007879b          	sext.w	a5,a5
    80005d2c:	00e7fc63          	bgeu	a5,a4,80005d44 <_etoa+0x3f4>
    80005d30:	fe442703          	lw	a4,-28(s0)
    80005d34:	fe842783          	lw	a5,-24(s0)
    80005d38:	40f707bb          	subw	a5,a4,a5
    80005d3c:	fef42223          	sw	a5,-28(s0)
    80005d40:	0080006f          	j	80005d48 <_etoa+0x3f8>
    80005d44:	fe042223          	sw	zero,-28(s0)
    80005d48:	f7c42783          	lw	a5,-132(s0)
    80005d4c:	0027f793          	andi	a5,a5,2
    80005d50:	0007879b          	sext.w	a5,a5
    80005d54:	00078a63          	beqz	a5,80005d68 <_etoa+0x418>
    80005d58:	fe842783          	lw	a5,-24(s0)
    80005d5c:	0007879b          	sext.w	a5,a5
    80005d60:	00078463          	beqz	a5,80005d68 <_etoa+0x418>
    80005d64:	fe042223          	sw	zero,-28(s0)
    80005d68:	fec42783          	lw	a5,-20(s0)
    80005d6c:	0007879b          	sext.w	a5,a5
    80005d70:	00078a63          	beqz	a5,80005d84 <_etoa+0x434>
    80005d74:	fb843787          	fld	fa5,-72(s0)
    80005d78:	f8843707          	fld	fa4,-120(s0)
    80005d7c:	1af777d3          	fdiv.d	fa5,fa4,fa5
    80005d80:	f8f43427          	fsd	fa5,-120(s0)
    80005d84:	f9843783          	ld	a5,-104(s0)
    80005d88:	fcf43023          	sd	a5,-64(s0)
    80005d8c:	fe344783          	lbu	a5,-29(s0)
    80005d90:	0ff7f793          	zext.b	a5,a5
    80005d94:	00078863          	beqz	a5,80005da4 <_etoa+0x454>
    80005d98:	f8843787          	fld	fa5,-120(s0)
    80005d9c:	22f797d3          	fneg.d	fa5,fa5
    80005da0:	0080006f          	j	80005da8 <_etoa+0x458>
    80005da4:	f8843787          	fld	fa5,-120(s0)
    80005da8:	f7c42703          	lw	a4,-132(s0)
    80005dac:	fffff7b7          	lui	a5,0xfffff
    80005db0:	7ff78793          	addi	a5,a5,2047 # fffffffffffff7ff <_pmem_end+0xffffffff77fff7ff>
    80005db4:	00f777b3          	and	a5,a4,a5
    80005db8:	0007869b          	sext.w	a3,a5
    80005dbc:	fe442783          	lw	a5,-28(s0)
    80005dc0:	f8442703          	lw	a4,-124(s0)
    80005dc4:	00068813          	mv	a6,a3
    80005dc8:	22f78553          	fmv.d	fa0,fa5
    80005dcc:	f9043683          	ld	a3,-112(s0)
    80005dd0:	f9843603          	ld	a2,-104(s0)
    80005dd4:	fa043583          	ld	a1,-96(s0)
    80005dd8:	fa843503          	ld	a0,-88(s0)
    80005ddc:	d04ff0ef          	jal	ra,800052e0 <_ftoa>
    80005de0:	f8a43c23          	sd	a0,-104(s0)
    80005de4:	fe842783          	lw	a5,-24(s0)
    80005de8:	0007879b          	sext.w	a5,a5
    80005dec:	0e078c63          	beqz	a5,80005ee4 <_etoa+0x594>
    80005df0:	f7c42783          	lw	a5,-132(s0)
    80005df4:	0207f793          	andi	a5,a5,32
    80005df8:	0007879b          	sext.w	a5,a5
    80005dfc:	00078663          	beqz	a5,80005e08 <_etoa+0x4b8>
    80005e00:	04500793          	li	a5,69
    80005e04:	0080006f          	j	80005e0c <_etoa+0x4bc>
    80005e08:	06500793          	li	a5,101
    80005e0c:	f9843703          	ld	a4,-104(s0)
    80005e10:	00170693          	addi	a3,a4,1
    80005e14:	f8d43c23          	sd	a3,-104(s0)
    80005e18:	fa843803          	ld	a6,-88(s0)
    80005e1c:	f9043683          	ld	a3,-112(s0)
    80005e20:	00070613          	mv	a2,a4
    80005e24:	fa043583          	ld	a1,-96(s0)
    80005e28:	00078513          	mv	a0,a5
    80005e2c:	000800e7          	jalr	a6
    80005e30:	fec42783          	lw	a5,-20(s0)
    80005e34:	41f7d79b          	sraiw	a5,a5,0x1f
    80005e38:	fec42703          	lw	a4,-20(s0)
    80005e3c:	00e7c733          	xor	a4,a5,a4
    80005e40:	40f707bb          	subw	a5,a4,a5
    80005e44:	0007879b          	sext.w	a5,a5
    80005e48:	00078613          	mv	a2,a5
    80005e4c:	fec42783          	lw	a5,-20(s0)
    80005e50:	01f7d79b          	srliw	a5,a5,0x1f
    80005e54:	0ff7f693          	zext.b	a3,a5
    80005e58:	fe842783          	lw	a5,-24(s0)
    80005e5c:	fff7879b          	addiw	a5,a5,-1
    80005e60:	0007879b          	sext.w	a5,a5
    80005e64:	00500713          	li	a4,5
    80005e68:	00e13423          	sd	a4,8(sp)
    80005e6c:	00f13023          	sd	a5,0(sp)
    80005e70:	00000893          	li	a7,0
    80005e74:	00a00813          	li	a6,10
    80005e78:	00068793          	mv	a5,a3
    80005e7c:	00060713          	mv	a4,a2
    80005e80:	f9043683          	ld	a3,-112(s0)
    80005e84:	f9843603          	ld	a2,-104(s0)
    80005e88:	fa043583          	ld	a1,-96(s0)
    80005e8c:	fa843503          	ld	a0,-88(s0)
    80005e90:	988ff0ef          	jal	ra,80005018 <_ntoa_long>
    80005e94:	f8a43c23          	sd	a0,-104(s0)
    80005e98:	f7c42783          	lw	a5,-132(s0)
    80005e9c:	0027f793          	andi	a5,a5,2
    80005ea0:	0007879b          	sext.w	a5,a5
    80005ea4:	04078063          	beqz	a5,80005ee4 <_etoa+0x594>
    80005ea8:	0280006f          	j	80005ed0 <_etoa+0x580>
    80005eac:	f9843783          	ld	a5,-104(s0)
    80005eb0:	00178713          	addi	a4,a5,1
    80005eb4:	f8e43c23          	sd	a4,-104(s0)
    80005eb8:	fa843703          	ld	a4,-88(s0)
    80005ebc:	f9043683          	ld	a3,-112(s0)
    80005ec0:	00078613          	mv	a2,a5
    80005ec4:	fa043583          	ld	a1,-96(s0)
    80005ec8:	02000513          	li	a0,32
    80005ecc:	000700e7          	jalr	a4
    80005ed0:	f9843703          	ld	a4,-104(s0)
    80005ed4:	fc043783          	ld	a5,-64(s0)
    80005ed8:	40f70733          	sub	a4,a4,a5
    80005edc:	f8046783          	lwu	a5,-128(s0)
    80005ee0:	fcf766e3          	bltu	a4,a5,80005eac <_etoa+0x55c>
    80005ee4:	f9843783          	ld	a5,-104(s0)
    80005ee8:	00078513          	mv	a0,a5
    80005eec:	09813083          	ld	ra,152(sp)
    80005ef0:	09013403          	ld	s0,144(sp)
    80005ef4:	0a010113          	addi	sp,sp,160
    80005ef8:	00008067          	ret

Disassembly of section .text._vsnprintf:

0000000080005efc <_vsnprintf>:
    80005efc:	f6010113          	addi	sp,sp,-160
    80005f00:	08113c23          	sd	ra,152(sp)
    80005f04:	08813823          	sd	s0,144(sp)
    80005f08:	0a010413          	addi	s0,sp,160
    80005f0c:	f8a43c23          	sd	a0,-104(s0)
    80005f10:	f8b43823          	sd	a1,-112(s0)
    80005f14:	f8c43423          	sd	a2,-120(s0)
    80005f18:	f8d43023          	sd	a3,-128(s0)
    80005f1c:	f6e43c23          	sd	a4,-136(s0)
    80005f20:	fc043c23          	sd	zero,-40(s0)
    80005f24:	f9043783          	ld	a5,-112(s0)
    80005f28:	5c0798e3          	bnez	a5,80006cf8 <_vsnprintf+0xdfc>
    80005f2c:	fffff797          	auipc	a5,0xfffff
    80005f30:	a7078793          	addi	a5,a5,-1424 # 8000499c <_out_null>
    80005f34:	f8f43c23          	sd	a5,-104(s0)
    80005f38:	5c10006f          	j	80006cf8 <_vsnprintf+0xdfc>
    80005f3c:	f8043783          	ld	a5,-128(s0)
    80005f40:	0007c783          	lbu	a5,0(a5)
    80005f44:	00078713          	mv	a4,a5
    80005f48:	02500793          	li	a5,37
    80005f4c:	02f70e63          	beq	a4,a5,80005f88 <_vsnprintf+0x8c>
    80005f50:	f8043783          	ld	a5,-128(s0)
    80005f54:	0007c503          	lbu	a0,0(a5)
    80005f58:	fd843783          	ld	a5,-40(s0)
    80005f5c:	00178713          	addi	a4,a5,1
    80005f60:	fce43c23          	sd	a4,-40(s0)
    80005f64:	f9843703          	ld	a4,-104(s0)
    80005f68:	f8843683          	ld	a3,-120(s0)
    80005f6c:	00078613          	mv	a2,a5
    80005f70:	f9043583          	ld	a1,-112(s0)
    80005f74:	000700e7          	jalr	a4
    80005f78:	f8043783          	ld	a5,-128(s0)
    80005f7c:	00178793          	addi	a5,a5,1
    80005f80:	f8f43023          	sd	a5,-128(s0)
    80005f84:	5750006f          	j	80006cf8 <_vsnprintf+0xdfc>
    80005f88:	f8043783          	ld	a5,-128(s0)
    80005f8c:	00178793          	addi	a5,a5,1
    80005f90:	f8f43023          	sd	a5,-128(s0)
    80005f94:	fe042623          	sw	zero,-20(s0)
    80005f98:	f8043783          	ld	a5,-128(s0)
    80005f9c:	0007c783          	lbu	a5,0(a5)
    80005fa0:	0007879b          	sext.w	a5,a5
    80005fa4:	fe07869b          	addiw	a3,a5,-32
    80005fa8:	0006871b          	sext.w	a4,a3
    80005fac:	01000793          	li	a5,16
    80005fb0:	0ee7e463          	bltu	a5,a4,80006098 <_vsnprintf+0x19c>
    80005fb4:	02069793          	slli	a5,a3,0x20
    80005fb8:	0207d793          	srli	a5,a5,0x20
    80005fbc:	00279713          	slli	a4,a5,0x2
    80005fc0:	00001797          	auipc	a5,0x1
    80005fc4:	52078793          	addi	a5,a5,1312 # 800074e0 <__am_mainargs+0xbb>
    80005fc8:	00f707b3          	add	a5,a4,a5
    80005fcc:	0007a783          	lw	a5,0(a5)
    80005fd0:	0007871b          	sext.w	a4,a5
    80005fd4:	00001797          	auipc	a5,0x1
    80005fd8:	50c78793          	addi	a5,a5,1292 # 800074e0 <__am_mainargs+0xbb>
    80005fdc:	00f707b3          	add	a5,a4,a5
    80005fe0:	00078067          	jr	a5
    80005fe4:	fec42783          	lw	a5,-20(s0)
    80005fe8:	0017e793          	ori	a5,a5,1
    80005fec:	fef42623          	sw	a5,-20(s0)
    80005ff0:	f8043783          	ld	a5,-128(s0)
    80005ff4:	00178793          	addi	a5,a5,1
    80005ff8:	f8f43023          	sd	a5,-128(s0)
    80005ffc:	00100793          	li	a5,1
    80006000:	fef42023          	sw	a5,-32(s0)
    80006004:	09c0006f          	j	800060a0 <_vsnprintf+0x1a4>
    80006008:	fec42783          	lw	a5,-20(s0)
    8000600c:	0027e793          	ori	a5,a5,2
    80006010:	fef42623          	sw	a5,-20(s0)
    80006014:	f8043783          	ld	a5,-128(s0)
    80006018:	00178793          	addi	a5,a5,1
    8000601c:	f8f43023          	sd	a5,-128(s0)
    80006020:	00100793          	li	a5,1
    80006024:	fef42023          	sw	a5,-32(s0)
    80006028:	0780006f          	j	800060a0 <_vsnprintf+0x1a4>
    8000602c:	fec42783          	lw	a5,-20(s0)
    80006030:	0047e793          	ori	a5,a5,4
    80006034:	fef42623          	sw	a5,-20(s0)
    80006038:	f8043783          	ld	a5,-128(s0)
    8000603c:	00178793          	addi	a5,a5,1
    80006040:	f8f43023          	sd	a5,-128(s0)
    80006044:	00100793          	li	a5,1
    80006048:	fef42023          	sw	a5,-32(s0)
    8000604c:	0540006f          	j	800060a0 <_vsnprintf+0x1a4>
    80006050:	fec42783          	lw	a5,-20(s0)
    80006054:	0087e793          	ori	a5,a5,8
    80006058:	fef42623          	sw	a5,-20(s0)
    8000605c:	f8043783          	ld	a5,-128(s0)
    80006060:	00178793          	addi	a5,a5,1
    80006064:	f8f43023          	sd	a5,-128(s0)
    80006068:	00100793          	li	a5,1
    8000606c:	fef42023          	sw	a5,-32(s0)
    80006070:	0300006f          	j	800060a0 <_vsnprintf+0x1a4>
    80006074:	fec42783          	lw	a5,-20(s0)
    80006078:	0107e793          	ori	a5,a5,16
    8000607c:	fef42623          	sw	a5,-20(s0)
    80006080:	f8043783          	ld	a5,-128(s0)
    80006084:	00178793          	addi	a5,a5,1
    80006088:	f8f43023          	sd	a5,-128(s0)
    8000608c:	00100793          	li	a5,1
    80006090:	fef42023          	sw	a5,-32(s0)
    80006094:	00c0006f          	j	800060a0 <_vsnprintf+0x1a4>
    80006098:	fe042023          	sw	zero,-32(s0)
    8000609c:	00000013          	nop
    800060a0:	fe042783          	lw	a5,-32(s0)
    800060a4:	0007879b          	sext.w	a5,a5
    800060a8:	ee0798e3          	bnez	a5,80005f98 <_vsnprintf+0x9c>
    800060ac:	fe042423          	sw	zero,-24(s0)
    800060b0:	f8043783          	ld	a5,-128(s0)
    800060b4:	0007c783          	lbu	a5,0(a5)
    800060b8:	00078513          	mv	a0,a5
    800060bc:	9c9fe0ef          	jal	ra,80004a84 <_is_digit>
    800060c0:	00050793          	mv	a5,a0
    800060c4:	00078e63          	beqz	a5,800060e0 <_vsnprintf+0x1e4>
    800060c8:	f8040793          	addi	a5,s0,-128
    800060cc:	00078513          	mv	a0,a5
    800060d0:	a0dfe0ef          	jal	ra,80004adc <_atoi>
    800060d4:	00050793          	mv	a5,a0
    800060d8:	fef42423          	sw	a5,-24(s0)
    800060dc:	06c0006f          	j	80006148 <_vsnprintf+0x24c>
    800060e0:	f8043783          	ld	a5,-128(s0)
    800060e4:	0007c783          	lbu	a5,0(a5)
    800060e8:	00078713          	mv	a4,a5
    800060ec:	02a00793          	li	a5,42
    800060f0:	04f71c63          	bne	a4,a5,80006148 <_vsnprintf+0x24c>
    800060f4:	f7843783          	ld	a5,-136(s0)
    800060f8:	00878713          	addi	a4,a5,8
    800060fc:	f6e43c23          	sd	a4,-136(s0)
    80006100:	0007a783          	lw	a5,0(a5)
    80006104:	fcf42023          	sw	a5,-64(s0)
    80006108:	fc042783          	lw	a5,-64(s0)
    8000610c:	0007879b          	sext.w	a5,a5
    80006110:	0207d263          	bgez	a5,80006134 <_vsnprintf+0x238>
    80006114:	fec42783          	lw	a5,-20(s0)
    80006118:	0027e793          	ori	a5,a5,2
    8000611c:	fef42623          	sw	a5,-20(s0)
    80006120:	fc042783          	lw	a5,-64(s0)
    80006124:	40f007bb          	negw	a5,a5
    80006128:	0007879b          	sext.w	a5,a5
    8000612c:	fef42423          	sw	a5,-24(s0)
    80006130:	00c0006f          	j	8000613c <_vsnprintf+0x240>
    80006134:	fc042783          	lw	a5,-64(s0)
    80006138:	fef42423          	sw	a5,-24(s0)
    8000613c:	f8043783          	ld	a5,-128(s0)
    80006140:	00178793          	addi	a5,a5,1
    80006144:	f8f43023          	sd	a5,-128(s0)
    80006148:	fe042223          	sw	zero,-28(s0)
    8000614c:	f8043783          	ld	a5,-128(s0)
    80006150:	0007c783          	lbu	a5,0(a5)
    80006154:	00078713          	mv	a4,a5
    80006158:	02e00793          	li	a5,46
    8000615c:	08f71c63          	bne	a4,a5,800061f4 <_vsnprintf+0x2f8>
    80006160:	fec42783          	lw	a5,-20(s0)
    80006164:	4007e793          	ori	a5,a5,1024
    80006168:	fef42623          	sw	a5,-20(s0)
    8000616c:	f8043783          	ld	a5,-128(s0)
    80006170:	00178793          	addi	a5,a5,1
    80006174:	f8f43023          	sd	a5,-128(s0)
    80006178:	f8043783          	ld	a5,-128(s0)
    8000617c:	0007c783          	lbu	a5,0(a5)
    80006180:	00078513          	mv	a0,a5
    80006184:	901fe0ef          	jal	ra,80004a84 <_is_digit>
    80006188:	00050793          	mv	a5,a0
    8000618c:	00078e63          	beqz	a5,800061a8 <_vsnprintf+0x2ac>
    80006190:	f8040793          	addi	a5,s0,-128
    80006194:	00078513          	mv	a0,a5
    80006198:	945fe0ef          	jal	ra,80004adc <_atoi>
    8000619c:	00050793          	mv	a5,a0
    800061a0:	fef42223          	sw	a5,-28(s0)
    800061a4:	0500006f          	j	800061f4 <_vsnprintf+0x2f8>
    800061a8:	f8043783          	ld	a5,-128(s0)
    800061ac:	0007c783          	lbu	a5,0(a5)
    800061b0:	00078713          	mv	a4,a5
    800061b4:	02a00793          	li	a5,42
    800061b8:	02f71e63          	bne	a4,a5,800061f4 <_vsnprintf+0x2f8>
    800061bc:	f7843783          	ld	a5,-136(s0)
    800061c0:	00878713          	addi	a4,a5,8
    800061c4:	f6e43c23          	sd	a4,-136(s0)
    800061c8:	0007a783          	lw	a5,0(a5)
    800061cc:	faf42e23          	sw	a5,-68(s0)
    800061d0:	fbc42783          	lw	a5,-68(s0)
    800061d4:	0007871b          	sext.w	a4,a5
    800061d8:	00075463          	bgez	a4,800061e0 <_vsnprintf+0x2e4>
    800061dc:	00000793          	li	a5,0
    800061e0:	0007879b          	sext.w	a5,a5
    800061e4:	fef42223          	sw	a5,-28(s0)
    800061e8:	f8043783          	ld	a5,-128(s0)
    800061ec:	00178793          	addi	a5,a5,1
    800061f0:	f8f43023          	sd	a5,-128(s0)
    800061f4:	f8043783          	ld	a5,-128(s0)
    800061f8:	0007c783          	lbu	a5,0(a5)
    800061fc:	0007879b          	sext.w	a5,a5
    80006200:	f987869b          	addiw	a3,a5,-104
    80006204:	0006871b          	sext.w	a4,a3
    80006208:	01200793          	li	a5,18
    8000620c:	10e7ec63          	bltu	a5,a4,80006324 <_vsnprintf+0x428>
    80006210:	02069793          	slli	a5,a3,0x20
    80006214:	0207d793          	srli	a5,a5,0x20
    80006218:	00279713          	slli	a4,a5,0x2
    8000621c:	00001797          	auipc	a5,0x1
    80006220:	30878793          	addi	a5,a5,776 # 80007524 <__am_mainargs+0xff>
    80006224:	00f707b3          	add	a5,a4,a5
    80006228:	0007a783          	lw	a5,0(a5)
    8000622c:	0007871b          	sext.w	a4,a5
    80006230:	00001797          	auipc	a5,0x1
    80006234:	2f478793          	addi	a5,a5,756 # 80007524 <__am_mainargs+0xff>
    80006238:	00f707b3          	add	a5,a4,a5
    8000623c:	00078067          	jr	a5
    80006240:	fec42783          	lw	a5,-20(s0)
    80006244:	1007e793          	ori	a5,a5,256
    80006248:	fef42623          	sw	a5,-20(s0)
    8000624c:	f8043783          	ld	a5,-128(s0)
    80006250:	00178793          	addi	a5,a5,1
    80006254:	f8f43023          	sd	a5,-128(s0)
    80006258:	f8043783          	ld	a5,-128(s0)
    8000625c:	0007c783          	lbu	a5,0(a5)
    80006260:	00078713          	mv	a4,a5
    80006264:	06c00793          	li	a5,108
    80006268:	0cf71263          	bne	a4,a5,8000632c <_vsnprintf+0x430>
    8000626c:	fec42783          	lw	a5,-20(s0)
    80006270:	2007e793          	ori	a5,a5,512
    80006274:	fef42623          	sw	a5,-20(s0)
    80006278:	f8043783          	ld	a5,-128(s0)
    8000627c:	00178793          	addi	a5,a5,1
    80006280:	f8f43023          	sd	a5,-128(s0)
    80006284:	0a80006f          	j	8000632c <_vsnprintf+0x430>
    80006288:	fec42783          	lw	a5,-20(s0)
    8000628c:	0807e793          	ori	a5,a5,128
    80006290:	fef42623          	sw	a5,-20(s0)
    80006294:	f8043783          	ld	a5,-128(s0)
    80006298:	00178793          	addi	a5,a5,1
    8000629c:	f8f43023          	sd	a5,-128(s0)
    800062a0:	f8043783          	ld	a5,-128(s0)
    800062a4:	0007c783          	lbu	a5,0(a5)
    800062a8:	00078713          	mv	a4,a5
    800062ac:	06800793          	li	a5,104
    800062b0:	08f71263          	bne	a4,a5,80006334 <_vsnprintf+0x438>
    800062b4:	fec42783          	lw	a5,-20(s0)
    800062b8:	0407e793          	ori	a5,a5,64
    800062bc:	fef42623          	sw	a5,-20(s0)
    800062c0:	f8043783          	ld	a5,-128(s0)
    800062c4:	00178793          	addi	a5,a5,1
    800062c8:	f8f43023          	sd	a5,-128(s0)
    800062cc:	0680006f          	j	80006334 <_vsnprintf+0x438>
    800062d0:	fec42783          	lw	a5,-20(s0)
    800062d4:	1007e793          	ori	a5,a5,256
    800062d8:	fef42623          	sw	a5,-20(s0)
    800062dc:	f8043783          	ld	a5,-128(s0)
    800062e0:	00178793          	addi	a5,a5,1
    800062e4:	f8f43023          	sd	a5,-128(s0)
    800062e8:	0500006f          	j	80006338 <_vsnprintf+0x43c>
    800062ec:	fec42783          	lw	a5,-20(s0)
    800062f0:	1007e793          	ori	a5,a5,256
    800062f4:	fef42623          	sw	a5,-20(s0)
    800062f8:	f8043783          	ld	a5,-128(s0)
    800062fc:	00178793          	addi	a5,a5,1
    80006300:	f8f43023          	sd	a5,-128(s0)
    80006304:	0340006f          	j	80006338 <_vsnprintf+0x43c>
    80006308:	fec42783          	lw	a5,-20(s0)
    8000630c:	1007e793          	ori	a5,a5,256
    80006310:	fef42623          	sw	a5,-20(s0)
    80006314:	f8043783          	ld	a5,-128(s0)
    80006318:	00178793          	addi	a5,a5,1
    8000631c:	f8f43023          	sd	a5,-128(s0)
    80006320:	0180006f          	j	80006338 <_vsnprintf+0x43c>
    80006324:	00000013          	nop
    80006328:	0100006f          	j	80006338 <_vsnprintf+0x43c>
    8000632c:	00000013          	nop
    80006330:	0080006f          	j	80006338 <_vsnprintf+0x43c>
    80006334:	00000013          	nop
    80006338:	f8043783          	ld	a5,-128(s0)
    8000633c:	0007c783          	lbu	a5,0(a5)
    80006340:	0007879b          	sext.w	a5,a5
    80006344:	fdb7869b          	addiw	a3,a5,-37
    80006348:	0006871b          	sext.w	a4,a3
    8000634c:	05300793          	li	a5,83
    80006350:	16e7e8e3          	bltu	a5,a4,80006cc0 <_vsnprintf+0xdc4>
    80006354:	02069793          	slli	a5,a3,0x20
    80006358:	0207d793          	srli	a5,a5,0x20
    8000635c:	00279713          	slli	a4,a5,0x2
    80006360:	00001797          	auipc	a5,0x1
    80006364:	21078793          	addi	a5,a5,528 # 80007570 <__am_mainargs+0x14b>
    80006368:	00f707b3          	add	a5,a4,a5
    8000636c:	0007a783          	lw	a5,0(a5)
    80006370:	0007871b          	sext.w	a4,a5
    80006374:	00001797          	auipc	a5,0x1
    80006378:	1fc78793          	addi	a5,a5,508 # 80007570 <__am_mainargs+0x14b>
    8000637c:	00f707b3          	add	a5,a4,a5
    80006380:	00078067          	jr	a5
    80006384:	f8043783          	ld	a5,-128(s0)
    80006388:	0007c783          	lbu	a5,0(a5)
    8000638c:	00078713          	mv	a4,a5
    80006390:	07800793          	li	a5,120
    80006394:	00f70c63          	beq	a4,a5,800063ac <_vsnprintf+0x4b0>
    80006398:	f8043783          	ld	a5,-128(s0)
    8000639c:	0007c783          	lbu	a5,0(a5)
    800063a0:	00078713          	mv	a4,a5
    800063a4:	05800793          	li	a5,88
    800063a8:	00f71863          	bne	a4,a5,800063b8 <_vsnprintf+0x4bc>
    800063ac:	01000793          	li	a5,16
    800063b0:	fcf42a23          	sw	a5,-44(s0)
    800063b4:	0580006f          	j	8000640c <_vsnprintf+0x510>
    800063b8:	f8043783          	ld	a5,-128(s0)
    800063bc:	0007c783          	lbu	a5,0(a5)
    800063c0:	00078713          	mv	a4,a5
    800063c4:	06f00793          	li	a5,111
    800063c8:	00f71863          	bne	a4,a5,800063d8 <_vsnprintf+0x4dc>
    800063cc:	00800793          	li	a5,8
    800063d0:	fcf42a23          	sw	a5,-44(s0)
    800063d4:	0380006f          	j	8000640c <_vsnprintf+0x510>
    800063d8:	f8043783          	ld	a5,-128(s0)
    800063dc:	0007c783          	lbu	a5,0(a5)
    800063e0:	00078713          	mv	a4,a5
    800063e4:	06200793          	li	a5,98
    800063e8:	00f71863          	bne	a4,a5,800063f8 <_vsnprintf+0x4fc>
    800063ec:	00200793          	li	a5,2
    800063f0:	fcf42a23          	sw	a5,-44(s0)
    800063f4:	0180006f          	j	8000640c <_vsnprintf+0x510>
    800063f8:	00a00793          	li	a5,10
    800063fc:	fcf42a23          	sw	a5,-44(s0)
    80006400:	fec42783          	lw	a5,-20(s0)
    80006404:	fef7f793          	andi	a5,a5,-17
    80006408:	fef42623          	sw	a5,-20(s0)
    8000640c:	f8043783          	ld	a5,-128(s0)
    80006410:	0007c783          	lbu	a5,0(a5)
    80006414:	00078713          	mv	a4,a5
    80006418:	05800793          	li	a5,88
    8000641c:	00f71863          	bne	a4,a5,8000642c <_vsnprintf+0x530>
    80006420:	fec42783          	lw	a5,-20(s0)
    80006424:	0207e793          	ori	a5,a5,32
    80006428:	fef42623          	sw	a5,-20(s0)
    8000642c:	f8043783          	ld	a5,-128(s0)
    80006430:	0007c783          	lbu	a5,0(a5)
    80006434:	00078713          	mv	a4,a5
    80006438:	06900793          	li	a5,105
    8000643c:	02f70263          	beq	a4,a5,80006460 <_vsnprintf+0x564>
    80006440:	f8043783          	ld	a5,-128(s0)
    80006444:	0007c783          	lbu	a5,0(a5)
    80006448:	00078713          	mv	a4,a5
    8000644c:	06400793          	li	a5,100
    80006450:	00f70863          	beq	a4,a5,80006460 <_vsnprintf+0x564>
    80006454:	fec42783          	lw	a5,-20(s0)
    80006458:	ff37f793          	andi	a5,a5,-13
    8000645c:	fef42623          	sw	a5,-20(s0)
    80006460:	fec42783          	lw	a5,-20(s0)
    80006464:	4007f793          	andi	a5,a5,1024
    80006468:	0007879b          	sext.w	a5,a5
    8000646c:	00078863          	beqz	a5,8000647c <_vsnprintf+0x580>
    80006470:	fec42783          	lw	a5,-20(s0)
    80006474:	ffe7f793          	andi	a5,a5,-2
    80006478:	fef42623          	sw	a5,-20(s0)
    8000647c:	f8043783          	ld	a5,-128(s0)
    80006480:	0007c783          	lbu	a5,0(a5)
    80006484:	00078713          	mv	a4,a5
    80006488:	06900793          	li	a5,105
    8000648c:	00f70c63          	beq	a4,a5,800064a4 <_vsnprintf+0x5a8>
    80006490:	f8043783          	ld	a5,-128(s0)
    80006494:	0007c783          	lbu	a5,0(a5)
    80006498:	00078713          	mv	a4,a5
    8000649c:	06400793          	li	a5,100
    800064a0:	1ef71e63          	bne	a4,a5,8000669c <_vsnprintf+0x7a0>
    800064a4:	fec42783          	lw	a5,-20(s0)
    800064a8:	2007f793          	andi	a5,a5,512
    800064ac:	0007879b          	sext.w	a5,a5
    800064b0:	08078063          	beqz	a5,80006530 <_vsnprintf+0x634>
    800064b4:	f7843783          	ld	a5,-136(s0)
    800064b8:	00878713          	addi	a4,a5,8
    800064bc:	f6e43c23          	sd	a4,-136(s0)
    800064c0:	0007b783          	ld	a5,0(a5)
    800064c4:	faf43023          	sd	a5,-96(s0)
    800064c8:	fa043783          	ld	a5,-96(s0)
    800064cc:	43f7d713          	srai	a4,a5,0x3f
    800064d0:	fa043783          	ld	a5,-96(s0)
    800064d4:	00f747b3          	xor	a5,a4,a5
    800064d8:	40e787b3          	sub	a5,a5,a4
    800064dc:	00078593          	mv	a1,a5
    800064e0:	fa043783          	ld	a5,-96(s0)
    800064e4:	03f7d793          	srli	a5,a5,0x3f
    800064e8:	0ff7f713          	zext.b	a4,a5
    800064ec:	fd446683          	lwu	a3,-44(s0)
    800064f0:	fe442603          	lw	a2,-28(s0)
    800064f4:	fec42783          	lw	a5,-20(s0)
    800064f8:	00f13423          	sd	a5,8(sp)
    800064fc:	fe842783          	lw	a5,-24(s0)
    80006500:	00f13023          	sd	a5,0(sp)
    80006504:	00060893          	mv	a7,a2
    80006508:	00068813          	mv	a6,a3
    8000650c:	00070793          	mv	a5,a4
    80006510:	00058713          	mv	a4,a1
    80006514:	f8843683          	ld	a3,-120(s0)
    80006518:	fd843603          	ld	a2,-40(s0)
    8000651c:	f9043583          	ld	a1,-112(s0)
    80006520:	f9843503          	ld	a0,-104(s0)
    80006524:	c59fe0ef          	jal	ra,8000517c <_ntoa_long_long>
    80006528:	fca43c23          	sd	a0,-40(s0)
    8000652c:	2e40006f          	j	80006810 <_vsnprintf+0x914>
    80006530:	fec42783          	lw	a5,-20(s0)
    80006534:	1007f793          	andi	a5,a5,256
    80006538:	0007879b          	sext.w	a5,a5
    8000653c:	08078063          	beqz	a5,800065bc <_vsnprintf+0x6c0>
    80006540:	f7843783          	ld	a5,-136(s0)
    80006544:	00878713          	addi	a4,a5,8
    80006548:	f6e43c23          	sd	a4,-136(s0)
    8000654c:	0007b783          	ld	a5,0(a5)
    80006550:	faf43423          	sd	a5,-88(s0)
    80006554:	fa843783          	ld	a5,-88(s0)
    80006558:	43f7d713          	srai	a4,a5,0x3f
    8000655c:	fa843783          	ld	a5,-88(s0)
    80006560:	00f747b3          	xor	a5,a4,a5
    80006564:	40e787b3          	sub	a5,a5,a4
    80006568:	00078593          	mv	a1,a5
    8000656c:	fa843783          	ld	a5,-88(s0)
    80006570:	03f7d793          	srli	a5,a5,0x3f
    80006574:	0ff7f713          	zext.b	a4,a5
    80006578:	fd446683          	lwu	a3,-44(s0)
    8000657c:	fe442603          	lw	a2,-28(s0)
    80006580:	fec42783          	lw	a5,-20(s0)
    80006584:	00f13423          	sd	a5,8(sp)
    80006588:	fe842783          	lw	a5,-24(s0)
    8000658c:	00f13023          	sd	a5,0(sp)
    80006590:	00060893          	mv	a7,a2
    80006594:	00068813          	mv	a6,a3
    80006598:	00070793          	mv	a5,a4
    8000659c:	00058713          	mv	a4,a1
    800065a0:	f8843683          	ld	a3,-120(s0)
    800065a4:	fd843603          	ld	a2,-40(s0)
    800065a8:	f9043583          	ld	a1,-112(s0)
    800065ac:	f9843503          	ld	a0,-104(s0)
    800065b0:	a69fe0ef          	jal	ra,80005018 <_ntoa_long>
    800065b4:	fca43c23          	sd	a0,-40(s0)
    800065b8:	2580006f          	j	80006810 <_vsnprintf+0x914>
    800065bc:	fec42783          	lw	a5,-20(s0)
    800065c0:	0407f793          	andi	a5,a5,64
    800065c4:	0007879b          	sext.w	a5,a5
    800065c8:	02078063          	beqz	a5,800065e8 <_vsnprintf+0x6ec>
    800065cc:	f7843783          	ld	a5,-136(s0)
    800065d0:	00878713          	addi	a4,a5,8
    800065d4:	f6e43c23          	sd	a4,-136(s0)
    800065d8:	0007a783          	lw	a5,0(a5)
    800065dc:	0ff7f793          	zext.b	a5,a5
    800065e0:	0007879b          	sext.w	a5,a5
    800065e4:	0440006f          	j	80006628 <_vsnprintf+0x72c>
    800065e8:	fec42783          	lw	a5,-20(s0)
    800065ec:	0807f793          	andi	a5,a5,128
    800065f0:	0007879b          	sext.w	a5,a5
    800065f4:	02078263          	beqz	a5,80006618 <_vsnprintf+0x71c>
    800065f8:	f7843783          	ld	a5,-136(s0)
    800065fc:	00878713          	addi	a4,a5,8
    80006600:	f6e43c23          	sd	a4,-136(s0)
    80006604:	0007a783          	lw	a5,0(a5)
    80006608:	0107979b          	slliw	a5,a5,0x10
    8000660c:	4107d79b          	sraiw	a5,a5,0x10
    80006610:	0007879b          	sext.w	a5,a5
    80006614:	0140006f          	j	80006628 <_vsnprintf+0x72c>
    80006618:	f7843783          	ld	a5,-136(s0)
    8000661c:	00878713          	addi	a4,a5,8
    80006620:	f6e43c23          	sd	a4,-136(s0)
    80006624:	0007a783          	lw	a5,0(a5)
    80006628:	faf42823          	sw	a5,-80(s0)
    8000662c:	fb042783          	lw	a5,-80(s0)
    80006630:	41f7d79b          	sraiw	a5,a5,0x1f
    80006634:	fb042703          	lw	a4,-80(s0)
    80006638:	00e7c733          	xor	a4,a5,a4
    8000663c:	40f707bb          	subw	a5,a4,a5
    80006640:	0007879b          	sext.w	a5,a5
    80006644:	0007879b          	sext.w	a5,a5
    80006648:	02079713          	slli	a4,a5,0x20
    8000664c:	02075713          	srli	a4,a4,0x20
    80006650:	fb042783          	lw	a5,-80(s0)
    80006654:	01f7d79b          	srliw	a5,a5,0x1f
    80006658:	0ff7f693          	zext.b	a3,a5
    8000665c:	fd446603          	lwu	a2,-44(s0)
    80006660:	fe442583          	lw	a1,-28(s0)
    80006664:	fec42783          	lw	a5,-20(s0)
    80006668:	00f13423          	sd	a5,8(sp)
    8000666c:	fe842783          	lw	a5,-24(s0)
    80006670:	00f13023          	sd	a5,0(sp)
    80006674:	00058893          	mv	a7,a1
    80006678:	00060813          	mv	a6,a2
    8000667c:	00068793          	mv	a5,a3
    80006680:	f8843683          	ld	a3,-120(s0)
    80006684:	fd843603          	ld	a2,-40(s0)
    80006688:	f9043583          	ld	a1,-112(s0)
    8000668c:	f9843503          	ld	a0,-104(s0)
    80006690:	989fe0ef          	jal	ra,80005018 <_ntoa_long>
    80006694:	fca43c23          	sd	a0,-40(s0)
    80006698:	1780006f          	j	80006810 <_vsnprintf+0x914>
    8000669c:	fec42783          	lw	a5,-20(s0)
    800066a0:	2007f793          	andi	a5,a5,512
    800066a4:	0007879b          	sext.w	a5,a5
    800066a8:	04078a63          	beqz	a5,800066fc <_vsnprintf+0x800>
    800066ac:	f7843783          	ld	a5,-136(s0)
    800066b0:	00878713          	addi	a4,a5,8
    800066b4:	f6e43c23          	sd	a4,-136(s0)
    800066b8:	0007b703          	ld	a4,0(a5)
    800066bc:	fd446683          	lwu	a3,-44(s0)
    800066c0:	fe442603          	lw	a2,-28(s0)
    800066c4:	fec42783          	lw	a5,-20(s0)
    800066c8:	00f13423          	sd	a5,8(sp)
    800066cc:	fe842783          	lw	a5,-24(s0)
    800066d0:	00f13023          	sd	a5,0(sp)
    800066d4:	00060893          	mv	a7,a2
    800066d8:	00068813          	mv	a6,a3
    800066dc:	00000793          	li	a5,0
    800066e0:	f8843683          	ld	a3,-120(s0)
    800066e4:	fd843603          	ld	a2,-40(s0)
    800066e8:	f9043583          	ld	a1,-112(s0)
    800066ec:	f9843503          	ld	a0,-104(s0)
    800066f0:	a8dfe0ef          	jal	ra,8000517c <_ntoa_long_long>
    800066f4:	fca43c23          	sd	a0,-40(s0)
    800066f8:	1180006f          	j	80006810 <_vsnprintf+0x914>
    800066fc:	fec42783          	lw	a5,-20(s0)
    80006700:	1007f793          	andi	a5,a5,256
    80006704:	0007879b          	sext.w	a5,a5
    80006708:	04078a63          	beqz	a5,8000675c <_vsnprintf+0x860>
    8000670c:	f7843783          	ld	a5,-136(s0)
    80006710:	00878713          	addi	a4,a5,8
    80006714:	f6e43c23          	sd	a4,-136(s0)
    80006718:	0007b703          	ld	a4,0(a5)
    8000671c:	fd446683          	lwu	a3,-44(s0)
    80006720:	fe442603          	lw	a2,-28(s0)
    80006724:	fec42783          	lw	a5,-20(s0)
    80006728:	00f13423          	sd	a5,8(sp)
    8000672c:	fe842783          	lw	a5,-24(s0)
    80006730:	00f13023          	sd	a5,0(sp)
    80006734:	00060893          	mv	a7,a2
    80006738:	00068813          	mv	a6,a3
    8000673c:	00000793          	li	a5,0
    80006740:	f8843683          	ld	a3,-120(s0)
    80006744:	fd843603          	ld	a2,-40(s0)
    80006748:	f9043583          	ld	a1,-112(s0)
    8000674c:	f9843503          	ld	a0,-104(s0)
    80006750:	8c9fe0ef          	jal	ra,80005018 <_ntoa_long>
    80006754:	fca43c23          	sd	a0,-40(s0)
    80006758:	0b80006f          	j	80006810 <_vsnprintf+0x914>
    8000675c:	fec42783          	lw	a5,-20(s0)
    80006760:	0407f793          	andi	a5,a5,64
    80006764:	0007879b          	sext.w	a5,a5
    80006768:	02078063          	beqz	a5,80006788 <_vsnprintf+0x88c>
    8000676c:	f7843783          	ld	a5,-136(s0)
    80006770:	00878713          	addi	a4,a5,8
    80006774:	f6e43c23          	sd	a4,-136(s0)
    80006778:	0007a783          	lw	a5,0(a5)
    8000677c:	0ff7f793          	zext.b	a5,a5
    80006780:	0007879b          	sext.w	a5,a5
    80006784:	0480006f          	j	800067cc <_vsnprintf+0x8d0>
    80006788:	fec42783          	lw	a5,-20(s0)
    8000678c:	0807f793          	andi	a5,a5,128
    80006790:	0007879b          	sext.w	a5,a5
    80006794:	02078263          	beqz	a5,800067b8 <_vsnprintf+0x8bc>
    80006798:	f7843783          	ld	a5,-136(s0)
    8000679c:	00878713          	addi	a4,a5,8
    800067a0:	f6e43c23          	sd	a4,-136(s0)
    800067a4:	0007a783          	lw	a5,0(a5)
    800067a8:	03079793          	slli	a5,a5,0x30
    800067ac:	0307d793          	srli	a5,a5,0x30
    800067b0:	0007879b          	sext.w	a5,a5
    800067b4:	0140006f          	j	800067c8 <_vsnprintf+0x8cc>
    800067b8:	f7843783          	ld	a5,-136(s0)
    800067bc:	00878713          	addi	a4,a5,8
    800067c0:	f6e43c23          	sd	a4,-136(s0)
    800067c4:	0007a783          	lw	a5,0(a5)
    800067c8:	0007879b          	sext.w	a5,a5
    800067cc:	faf42a23          	sw	a5,-76(s0)
    800067d0:	fb446703          	lwu	a4,-76(s0)
    800067d4:	fd446683          	lwu	a3,-44(s0)
    800067d8:	fe442603          	lw	a2,-28(s0)
    800067dc:	fec42783          	lw	a5,-20(s0)
    800067e0:	00f13423          	sd	a5,8(sp)
    800067e4:	fe842783          	lw	a5,-24(s0)
    800067e8:	00f13023          	sd	a5,0(sp)
    800067ec:	00060893          	mv	a7,a2
    800067f0:	00068813          	mv	a6,a3
    800067f4:	00000793          	li	a5,0
    800067f8:	f8843683          	ld	a3,-120(s0)
    800067fc:	fd843603          	ld	a2,-40(s0)
    80006800:	f9043583          	ld	a1,-112(s0)
    80006804:	f9843503          	ld	a0,-104(s0)
    80006808:	811fe0ef          	jal	ra,80005018 <_ntoa_long>
    8000680c:	fca43c23          	sd	a0,-40(s0)
    80006810:	f8043783          	ld	a5,-128(s0)
    80006814:	00178793          	addi	a5,a5,1
    80006818:	f8f43023          	sd	a5,-128(s0)
    8000681c:	4dc0006f          	j	80006cf8 <_vsnprintf+0xdfc>
    80006820:	f8043783          	ld	a5,-128(s0)
    80006824:	0007c783          	lbu	a5,0(a5)
    80006828:	00078713          	mv	a4,a5
    8000682c:	04600793          	li	a5,70
    80006830:	00f71863          	bne	a4,a5,80006840 <_vsnprintf+0x944>
    80006834:	fec42783          	lw	a5,-20(s0)
    80006838:	0207e793          	ori	a5,a5,32
    8000683c:	fef42623          	sw	a5,-20(s0)
    80006840:	f7843783          	ld	a5,-136(s0)
    80006844:	00878713          	addi	a4,a5,8
    80006848:	f6e43c23          	sd	a4,-136(s0)
    8000684c:	0007b787          	fld	fa5,0(a5)
    80006850:	fec42683          	lw	a3,-20(s0)
    80006854:	fe842783          	lw	a5,-24(s0)
    80006858:	fe442703          	lw	a4,-28(s0)
    8000685c:	00068813          	mv	a6,a3
    80006860:	22f78553          	fmv.d	fa0,fa5
    80006864:	f8843683          	ld	a3,-120(s0)
    80006868:	fd843603          	ld	a2,-40(s0)
    8000686c:	f9043583          	ld	a1,-112(s0)
    80006870:	f9843503          	ld	a0,-104(s0)
    80006874:	a6dfe0ef          	jal	ra,800052e0 <_ftoa>
    80006878:	fca43c23          	sd	a0,-40(s0)
    8000687c:	f8043783          	ld	a5,-128(s0)
    80006880:	00178793          	addi	a5,a5,1
    80006884:	f8f43023          	sd	a5,-128(s0)
    80006888:	4700006f          	j	80006cf8 <_vsnprintf+0xdfc>
    8000688c:	f8043783          	ld	a5,-128(s0)
    80006890:	0007c783          	lbu	a5,0(a5)
    80006894:	00078713          	mv	a4,a5
    80006898:	06700793          	li	a5,103
    8000689c:	00f70c63          	beq	a4,a5,800068b4 <_vsnprintf+0x9b8>
    800068a0:	f8043783          	ld	a5,-128(s0)
    800068a4:	0007c783          	lbu	a5,0(a5)
    800068a8:	00078713          	mv	a4,a5
    800068ac:	04700793          	li	a5,71
    800068b0:	00f71c63          	bne	a4,a5,800068c8 <_vsnprintf+0x9cc>
    800068b4:	fec42703          	lw	a4,-20(s0)
    800068b8:	000017b7          	lui	a5,0x1
    800068bc:	80078793          	addi	a5,a5,-2048 # 800 <_start-0x7ffff800>
    800068c0:	00f767b3          	or	a5,a4,a5
    800068c4:	fef42623          	sw	a5,-20(s0)
    800068c8:	f8043783          	ld	a5,-128(s0)
    800068cc:	0007c783          	lbu	a5,0(a5)
    800068d0:	00078713          	mv	a4,a5
    800068d4:	04500793          	li	a5,69
    800068d8:	00f70c63          	beq	a4,a5,800068f0 <_vsnprintf+0x9f4>
    800068dc:	f8043783          	ld	a5,-128(s0)
    800068e0:	0007c783          	lbu	a5,0(a5)
    800068e4:	00078713          	mv	a4,a5
    800068e8:	04700793          	li	a5,71
    800068ec:	00f71863          	bne	a4,a5,800068fc <_vsnprintf+0xa00>
    800068f0:	fec42783          	lw	a5,-20(s0)
    800068f4:	0207e793          	ori	a5,a5,32
    800068f8:	fef42623          	sw	a5,-20(s0)
    800068fc:	f7843783          	ld	a5,-136(s0)
    80006900:	00878713          	addi	a4,a5,8
    80006904:	f6e43c23          	sd	a4,-136(s0)
    80006908:	0007b787          	fld	fa5,0(a5)
    8000690c:	fec42683          	lw	a3,-20(s0)
    80006910:	fe842783          	lw	a5,-24(s0)
    80006914:	fe442703          	lw	a4,-28(s0)
    80006918:	00068813          	mv	a6,a3
    8000691c:	22f78553          	fmv.d	fa0,fa5
    80006920:	f8843683          	ld	a3,-120(s0)
    80006924:	fd843603          	ld	a2,-40(s0)
    80006928:	f9043583          	ld	a1,-112(s0)
    8000692c:	f9843503          	ld	a0,-104(s0)
    80006930:	820ff0ef          	jal	ra,80005950 <_etoa>
    80006934:	fca43c23          	sd	a0,-40(s0)
    80006938:	f8043783          	ld	a5,-128(s0)
    8000693c:	00178793          	addi	a5,a5,1
    80006940:	f8f43023          	sd	a5,-128(s0)
    80006944:	3b40006f          	j	80006cf8 <_vsnprintf+0xdfc>
    80006948:	00100793          	li	a5,1
    8000694c:	fcf42823          	sw	a5,-48(s0)
    80006950:	fec42783          	lw	a5,-20(s0)
    80006954:	0027f793          	andi	a5,a5,2
    80006958:	0007879b          	sext.w	a5,a5
    8000695c:	04079263          	bnez	a5,800069a0 <_vsnprintf+0xaa4>
    80006960:	0280006f          	j	80006988 <_vsnprintf+0xa8c>
    80006964:	fd843783          	ld	a5,-40(s0)
    80006968:	00178713          	addi	a4,a5,1
    8000696c:	fce43c23          	sd	a4,-40(s0)
    80006970:	f9843703          	ld	a4,-104(s0)
    80006974:	f8843683          	ld	a3,-120(s0)
    80006978:	00078613          	mv	a2,a5
    8000697c:	f9043583          	ld	a1,-112(s0)
    80006980:	02000513          	li	a0,32
    80006984:	000700e7          	jalr	a4
    80006988:	fd042783          	lw	a5,-48(s0)
    8000698c:	0017871b          	addiw	a4,a5,1
    80006990:	fce42823          	sw	a4,-48(s0)
    80006994:	fe842703          	lw	a4,-24(s0)
    80006998:	0007071b          	sext.w	a4,a4
    8000699c:	fce7e4e3          	bltu	a5,a4,80006964 <_vsnprintf+0xa68>
    800069a0:	f7843783          	ld	a5,-136(s0)
    800069a4:	00878713          	addi	a4,a5,8
    800069a8:	f6e43c23          	sd	a4,-136(s0)
    800069ac:	0007a783          	lw	a5,0(a5)
    800069b0:	0ff7f513          	zext.b	a0,a5
    800069b4:	fd843783          	ld	a5,-40(s0)
    800069b8:	00178713          	addi	a4,a5,1
    800069bc:	fce43c23          	sd	a4,-40(s0)
    800069c0:	f9843703          	ld	a4,-104(s0)
    800069c4:	f8843683          	ld	a3,-120(s0)
    800069c8:	00078613          	mv	a2,a5
    800069cc:	f9043583          	ld	a1,-112(s0)
    800069d0:	000700e7          	jalr	a4
    800069d4:	fec42783          	lw	a5,-20(s0)
    800069d8:	0027f793          	andi	a5,a5,2
    800069dc:	0007879b          	sext.w	a5,a5
    800069e0:	04078263          	beqz	a5,80006a24 <_vsnprintf+0xb28>
    800069e4:	0280006f          	j	80006a0c <_vsnprintf+0xb10>
    800069e8:	fd843783          	ld	a5,-40(s0)
    800069ec:	00178713          	addi	a4,a5,1
    800069f0:	fce43c23          	sd	a4,-40(s0)
    800069f4:	f9843703          	ld	a4,-104(s0)
    800069f8:	f8843683          	ld	a3,-120(s0)
    800069fc:	00078613          	mv	a2,a5
    80006a00:	f9043583          	ld	a1,-112(s0)
    80006a04:	02000513          	li	a0,32
    80006a08:	000700e7          	jalr	a4
    80006a0c:	fd042783          	lw	a5,-48(s0)
    80006a10:	0017871b          	addiw	a4,a5,1
    80006a14:	fce42823          	sw	a4,-48(s0)
    80006a18:	fe842703          	lw	a4,-24(s0)
    80006a1c:	0007071b          	sext.w	a4,a4
    80006a20:	fce7e4e3          	bltu	a5,a4,800069e8 <_vsnprintf+0xaec>
    80006a24:	f8043783          	ld	a5,-128(s0)
    80006a28:	00178793          	addi	a5,a5,1
    80006a2c:	f8f43023          	sd	a5,-128(s0)
    80006a30:	2c80006f          	j	80006cf8 <_vsnprintf+0xdfc>
    80006a34:	f7843783          	ld	a5,-136(s0)
    80006a38:	00878713          	addi	a4,a5,8
    80006a3c:	f6e43c23          	sd	a4,-136(s0)
    80006a40:	0007b783          	ld	a5,0(a5)
    80006a44:	fcf43423          	sd	a5,-56(s0)
    80006a48:	fe442783          	lw	a5,-28(s0)
    80006a4c:	0007879b          	sext.w	a5,a5
    80006a50:	00078663          	beqz	a5,80006a5c <_vsnprintf+0xb60>
    80006a54:	fe446783          	lwu	a5,-28(s0)
    80006a58:	0080006f          	j	80006a60 <_vsnprintf+0xb64>
    80006a5c:	fff00793          	li	a5,-1
    80006a60:	00078593          	mv	a1,a5
    80006a64:	fc843503          	ld	a0,-56(s0)
    80006a68:	fb5fd0ef          	jal	ra,80004a1c <_strnlen_s>
    80006a6c:	00050793          	mv	a5,a0
    80006a70:	fcf42223          	sw	a5,-60(s0)
    80006a74:	fec42783          	lw	a5,-20(s0)
    80006a78:	4007f793          	andi	a5,a5,1024
    80006a7c:	0007879b          	sext.w	a5,a5
    80006a80:	02078063          	beqz	a5,80006aa0 <_vsnprintf+0xba4>
    80006a84:	fc442603          	lw	a2,-60(s0)
    80006a88:	fe442783          	lw	a5,-28(s0)
    80006a8c:	0007869b          	sext.w	a3,a5
    80006a90:	0006071b          	sext.w	a4,a2
    80006a94:	00d77463          	bgeu	a4,a3,80006a9c <_vsnprintf+0xba0>
    80006a98:	00060793          	mv	a5,a2
    80006a9c:	fcf42223          	sw	a5,-60(s0)
    80006aa0:	fec42783          	lw	a5,-20(s0)
    80006aa4:	0027f793          	andi	a5,a5,2
    80006aa8:	0007879b          	sext.w	a5,a5
    80006aac:	06079c63          	bnez	a5,80006b24 <_vsnprintf+0xc28>
    80006ab0:	0280006f          	j	80006ad8 <_vsnprintf+0xbdc>
    80006ab4:	fd843783          	ld	a5,-40(s0)
    80006ab8:	00178713          	addi	a4,a5,1
    80006abc:	fce43c23          	sd	a4,-40(s0)
    80006ac0:	f9843703          	ld	a4,-104(s0)
    80006ac4:	f8843683          	ld	a3,-120(s0)
    80006ac8:	00078613          	mv	a2,a5
    80006acc:	f9043583          	ld	a1,-112(s0)
    80006ad0:	02000513          	li	a0,32
    80006ad4:	000700e7          	jalr	a4
    80006ad8:	fc442783          	lw	a5,-60(s0)
    80006adc:	0017871b          	addiw	a4,a5,1
    80006ae0:	fce42223          	sw	a4,-60(s0)
    80006ae4:	fe842703          	lw	a4,-24(s0)
    80006ae8:	0007071b          	sext.w	a4,a4
    80006aec:	fce7e4e3          	bltu	a5,a4,80006ab4 <_vsnprintf+0xbb8>
    80006af0:	0340006f          	j	80006b24 <_vsnprintf+0xc28>
    80006af4:	fc843783          	ld	a5,-56(s0)
    80006af8:	00178713          	addi	a4,a5,1
    80006afc:	fce43423          	sd	a4,-56(s0)
    80006b00:	0007c503          	lbu	a0,0(a5)
    80006b04:	fd843783          	ld	a5,-40(s0)
    80006b08:	00178713          	addi	a4,a5,1
    80006b0c:	fce43c23          	sd	a4,-40(s0)
    80006b10:	f9843703          	ld	a4,-104(s0)
    80006b14:	f8843683          	ld	a3,-120(s0)
    80006b18:	00078613          	mv	a2,a5
    80006b1c:	f9043583          	ld	a1,-112(s0)
    80006b20:	000700e7          	jalr	a4
    80006b24:	fc843783          	ld	a5,-56(s0)
    80006b28:	0007c783          	lbu	a5,0(a5)
    80006b2c:	02078263          	beqz	a5,80006b50 <_vsnprintf+0xc54>
    80006b30:	fec42783          	lw	a5,-20(s0)
    80006b34:	4007f793          	andi	a5,a5,1024
    80006b38:	0007879b          	sext.w	a5,a5
    80006b3c:	fa078ce3          	beqz	a5,80006af4 <_vsnprintf+0xbf8>
    80006b40:	fe442783          	lw	a5,-28(s0)
    80006b44:	fff7871b          	addiw	a4,a5,-1
    80006b48:	fee42223          	sw	a4,-28(s0)
    80006b4c:	fa0794e3          	bnez	a5,80006af4 <_vsnprintf+0xbf8>
    80006b50:	fec42783          	lw	a5,-20(s0)
    80006b54:	0027f793          	andi	a5,a5,2
    80006b58:	0007879b          	sext.w	a5,a5
    80006b5c:	04078263          	beqz	a5,80006ba0 <_vsnprintf+0xca4>
    80006b60:	0280006f          	j	80006b88 <_vsnprintf+0xc8c>
    80006b64:	fd843783          	ld	a5,-40(s0)
    80006b68:	00178713          	addi	a4,a5,1
    80006b6c:	fce43c23          	sd	a4,-40(s0)
    80006b70:	f9843703          	ld	a4,-104(s0)
    80006b74:	f8843683          	ld	a3,-120(s0)
    80006b78:	00078613          	mv	a2,a5
    80006b7c:	f9043583          	ld	a1,-112(s0)
    80006b80:	02000513          	li	a0,32
    80006b84:	000700e7          	jalr	a4
    80006b88:	fc442783          	lw	a5,-60(s0)
    80006b8c:	0017871b          	addiw	a4,a5,1
    80006b90:	fce42223          	sw	a4,-60(s0)
    80006b94:	fe842703          	lw	a4,-24(s0)
    80006b98:	0007071b          	sext.w	a4,a4
    80006b9c:	fce7e4e3          	bltu	a5,a4,80006b64 <_vsnprintf+0xc68>
    80006ba0:	f8043783          	ld	a5,-128(s0)
    80006ba4:	00178793          	addi	a5,a5,1
    80006ba8:	f8f43023          	sd	a5,-128(s0)
    80006bac:	14c0006f          	j	80006cf8 <_vsnprintf+0xdfc>
    80006bb0:	01000793          	li	a5,16
    80006bb4:	fef42423          	sw	a5,-24(s0)
    80006bb8:	fec42783          	lw	a5,-20(s0)
    80006bbc:	0217e793          	ori	a5,a5,33
    80006bc0:	fef42623          	sw	a5,-20(s0)
    80006bc4:	00100793          	li	a5,1
    80006bc8:	faf40da3          	sb	a5,-69(s0)
    80006bcc:	fbb44783          	lbu	a5,-69(s0)
    80006bd0:	0ff7f793          	zext.b	a5,a5
    80006bd4:	04078c63          	beqz	a5,80006c2c <_vsnprintf+0xd30>
    80006bd8:	f7843783          	ld	a5,-136(s0)
    80006bdc:	00878713          	addi	a4,a5,8
    80006be0:	f6e43c23          	sd	a4,-136(s0)
    80006be4:	0007b783          	ld	a5,0(a5)
    80006be8:	00078693          	mv	a3,a5
    80006bec:	fe442703          	lw	a4,-28(s0)
    80006bf0:	fec42783          	lw	a5,-20(s0)
    80006bf4:	00f13423          	sd	a5,8(sp)
    80006bf8:	fe842783          	lw	a5,-24(s0)
    80006bfc:	00f13023          	sd	a5,0(sp)
    80006c00:	00070893          	mv	a7,a4
    80006c04:	01000813          	li	a6,16
    80006c08:	00000793          	li	a5,0
    80006c0c:	00068713          	mv	a4,a3
    80006c10:	f8843683          	ld	a3,-120(s0)
    80006c14:	fd843603          	ld	a2,-40(s0)
    80006c18:	f9043583          	ld	a1,-112(s0)
    80006c1c:	f9843503          	ld	a0,-104(s0)
    80006c20:	d5cfe0ef          	jal	ra,8000517c <_ntoa_long_long>
    80006c24:	fca43c23          	sd	a0,-40(s0)
    80006c28:	0540006f          	j	80006c7c <_vsnprintf+0xd80>
    80006c2c:	f7843783          	ld	a5,-136(s0)
    80006c30:	00878713          	addi	a4,a5,8
    80006c34:	f6e43c23          	sd	a4,-136(s0)
    80006c38:	0007b783          	ld	a5,0(a5)
    80006c3c:	00078693          	mv	a3,a5
    80006c40:	fe442703          	lw	a4,-28(s0)
    80006c44:	fec42783          	lw	a5,-20(s0)
    80006c48:	00f13423          	sd	a5,8(sp)
    80006c4c:	fe842783          	lw	a5,-24(s0)
    80006c50:	00f13023          	sd	a5,0(sp)
    80006c54:	00070893          	mv	a7,a4
    80006c58:	01000813          	li	a6,16
    80006c5c:	00000793          	li	a5,0
    80006c60:	00068713          	mv	a4,a3
    80006c64:	f8843683          	ld	a3,-120(s0)
    80006c68:	fd843603          	ld	a2,-40(s0)
    80006c6c:	f9043583          	ld	a1,-112(s0)
    80006c70:	f9843503          	ld	a0,-104(s0)
    80006c74:	ba4fe0ef          	jal	ra,80005018 <_ntoa_long>
    80006c78:	fca43c23          	sd	a0,-40(s0)
    80006c7c:	f8043783          	ld	a5,-128(s0)
    80006c80:	00178793          	addi	a5,a5,1
    80006c84:	f8f43023          	sd	a5,-128(s0)
    80006c88:	0700006f          	j	80006cf8 <_vsnprintf+0xdfc>
    80006c8c:	fd843783          	ld	a5,-40(s0)
    80006c90:	00178713          	addi	a4,a5,1
    80006c94:	fce43c23          	sd	a4,-40(s0)
    80006c98:	f9843703          	ld	a4,-104(s0)
    80006c9c:	f8843683          	ld	a3,-120(s0)
    80006ca0:	00078613          	mv	a2,a5
    80006ca4:	f9043583          	ld	a1,-112(s0)
    80006ca8:	02500513          	li	a0,37
    80006cac:	000700e7          	jalr	a4
    80006cb0:	f8043783          	ld	a5,-128(s0)
    80006cb4:	00178793          	addi	a5,a5,1
    80006cb8:	f8f43023          	sd	a5,-128(s0)
    80006cbc:	03c0006f          	j	80006cf8 <_vsnprintf+0xdfc>
    80006cc0:	f8043783          	ld	a5,-128(s0)
    80006cc4:	0007c503          	lbu	a0,0(a5)
    80006cc8:	fd843783          	ld	a5,-40(s0)
    80006ccc:	00178713          	addi	a4,a5,1
    80006cd0:	fce43c23          	sd	a4,-40(s0)
    80006cd4:	f9843703          	ld	a4,-104(s0)
    80006cd8:	f8843683          	ld	a3,-120(s0)
    80006cdc:	00078613          	mv	a2,a5
    80006ce0:	f9043583          	ld	a1,-112(s0)
    80006ce4:	000700e7          	jalr	a4
    80006ce8:	f8043783          	ld	a5,-128(s0)
    80006cec:	00178793          	addi	a5,a5,1
    80006cf0:	f8f43023          	sd	a5,-128(s0)
    80006cf4:	00000013          	nop
    80006cf8:	f8043783          	ld	a5,-128(s0)
    80006cfc:	0007c783          	lbu	a5,0(a5)
    80006d00:	a2079e63          	bnez	a5,80005f3c <_vsnprintf+0x40>
    80006d04:	fd843703          	ld	a4,-40(s0)
    80006d08:	f8843783          	ld	a5,-120(s0)
    80006d0c:	00f76863          	bltu	a4,a5,80006d1c <_vsnprintf+0xe20>
    80006d10:	f8843783          	ld	a5,-120(s0)
    80006d14:	fff78793          	addi	a5,a5,-1
    80006d18:	0080006f          	j	80006d20 <_vsnprintf+0xe24>
    80006d1c:	fd843783          	ld	a5,-40(s0)
    80006d20:	f9843703          	ld	a4,-104(s0)
    80006d24:	f8843683          	ld	a3,-120(s0)
    80006d28:	00078613          	mv	a2,a5
    80006d2c:	f9043583          	ld	a1,-112(s0)
    80006d30:	00000513          	li	a0,0
    80006d34:	000700e7          	jalr	a4
    80006d38:	fd843783          	ld	a5,-40(s0)
    80006d3c:	0007879b          	sext.w	a5,a5
    80006d40:	00078513          	mv	a0,a5
    80006d44:	09813083          	ld	ra,152(sp)
    80006d48:	09013403          	ld	s0,144(sp)
    80006d4c:	0a010113          	addi	sp,sp,160
    80006d50:	00008067          	ret

Disassembly of section .text.printf_:

0000000080006d54 <printf_>:
    80006d54:	f8010113          	addi	sp,sp,-128
    80006d58:	02113c23          	sd	ra,56(sp)
    80006d5c:	02813823          	sd	s0,48(sp)
    80006d60:	04010413          	addi	s0,sp,64
    80006d64:	fca43423          	sd	a0,-56(s0)
    80006d68:	00b43423          	sd	a1,8(s0)
    80006d6c:	00c43823          	sd	a2,16(s0)
    80006d70:	00d43c23          	sd	a3,24(s0)
    80006d74:	02e43023          	sd	a4,32(s0)
    80006d78:	02f43423          	sd	a5,40(s0)
    80006d7c:	03043823          	sd	a6,48(s0)
    80006d80:	03143c23          	sd	a7,56(s0)
    80006d84:	04040793          	addi	a5,s0,64
    80006d88:	fcf43023          	sd	a5,-64(s0)
    80006d8c:	fc043783          	ld	a5,-64(s0)
    80006d90:	fc878793          	addi	a5,a5,-56
    80006d94:	fef43023          	sd	a5,-32(s0)
    80006d98:	fe043703          	ld	a4,-32(s0)
    80006d9c:	fd840793          	addi	a5,s0,-40
    80006da0:	fc843683          	ld	a3,-56(s0)
    80006da4:	fff00613          	li	a2,-1
    80006da8:	00078593          	mv	a1,a5
    80006dac:	ffffe517          	auipc	a0,0xffffe
    80006db0:	c2050513          	addi	a0,a0,-992 # 800049cc <_out_char>
    80006db4:	948ff0ef          	jal	ra,80005efc <_vsnprintf>
    80006db8:	00050793          	mv	a5,a0
    80006dbc:	fef42623          	sw	a5,-20(s0)
    80006dc0:	fec42783          	lw	a5,-20(s0)
    80006dc4:	00078513          	mv	a0,a5
    80006dc8:	03813083          	ld	ra,56(sp)
    80006dcc:	03013403          	ld	s0,48(sp)
    80006dd0:	08010113          	addi	sp,sp,128
    80006dd4:	00008067          	ret
