
/home/jpz/xs-env/nexus-am/apps/hello/build/hello-riscv64-nutshell.elf:     file format elf64-littleriscv


Disassembly of section .text:

0000000080000000 <_start>:
    80000000:	00000413          	li	s0,0
    80000004:	0000c117          	auipc	sp,0xc
    80000008:	ffc10113          	addi	sp,sp,-4 # 8000c000 <_end>
    8000000c:	050000ef          	jal	ra,8000005c <_trm_init>

Disassembly of section .text.startup:

0000000080000010 <main>:
    80000010:	ff010113          	addi	sp,sp,-16
    80000014:	00003517          	auipc	a0,0x3
    80000018:	08c50513          	addi	a0,a0,140 # 800030a0 <printf_+0x54>
    8000001c:	00113423          	sd	ra,8(sp)
    80000020:	02c030ef          	jal	ra,8000304c <printf_>
    80000024:	00813083          	ld	ra,8(sp)
    80000028:	00000513          	li	a0,0
    8000002c:	01010113          	addi	sp,sp,16
    80000030:	00008067          	ret

Disassembly of section .text._putc:

0000000080000034 <_putc>:
    80000034:	0540006f          	j	80000088 <__am_uartlite_putchar>

Disassembly of section .text._halt:

0000000080000038 <_halt>:
    80000038:	ff010113          	addi	sp,sp,-16
    8000003c:	00113423          	sd	ra,8(sp)
    80000040:	00050593          	mv	a1,a0
    80000044:	00050513          	mv	a0,a0
    80000048:	0005006b          	0x5006b
    8000004c:	00003517          	auipc	a0,0x3
    80000050:	06c50513          	addi	a0,a0,108 # 800030b8 <printf_+0x6c>
    80000054:	7f9020ef          	jal	ra,8000304c <printf_>
    80000058:	0000006f          	j	80000058 <_halt+0x20>

Disassembly of section .text._trm_init:

000000008000005c <_trm_init>:
    8000005c:	ff010113          	addi	sp,sp,-16
    80000060:	00113423          	sd	ra,8(sp)
    80000064:	014000ef          	jal	ra,80000078 <__am_init_uartlite>
    80000068:	00003517          	auipc	a0,0x3
    8000006c:	06550513          	addi	a0,a0,101 # 800030cd <__am_mainargs>
    80000070:	fa1ff0ef          	jal	ra,80000010 <main>
    80000074:	fc5ff0ef          	jal	ra,80000038 <_halt>

Disassembly of section .text.__am_init_uartlite:

0000000080000078 <__am_init_uartlite>:
    80000078:	406007b7          	lui	a5,0x40600
    8000007c:	00300713          	li	a4,3
    80000080:	00e78623          	sb	a4,12(a5) # 4060000c <_start-0x3f9ffff4>
    80000084:	00008067          	ret

Disassembly of section .text.__am_uartlite_putchar:

0000000080000088 <__am_uartlite_putchar>:
    80000088:	00a00793          	li	a5,10
    8000008c:	06f50863          	beq	a0,a5,800000fc <__am_uartlite_putchar+0x74>
    80000090:	406002b7          	lui	t0,0x40600
    80000094:	0082c603          	lbu	a2,8(t0) # 40600008 <_start-0x3f9ffff8>
    80000098:	00867693          	andi	a3,a2,8
    8000009c:	04068c63          	beqz	a3,800000f4 <__am_uartlite_putchar+0x6c>
    800000a0:	0082c803          	lbu	a6,8(t0)
    800000a4:	00887893          	andi	a7,a6,8
    800000a8:	04088663          	beqz	a7,800000f4 <__am_uartlite_putchar+0x6c>
    800000ac:	0082ce03          	lbu	t3,8(t0)
    800000b0:	008e7e93          	andi	t4,t3,8
    800000b4:	040e8063          	beqz	t4,800000f4 <__am_uartlite_putchar+0x6c>
    800000b8:	0082cf03          	lbu	t5,8(t0)
    800000bc:	008f7f93          	andi	t6,t5,8
    800000c0:	020f8a63          	beqz	t6,800000f4 <__am_uartlite_putchar+0x6c>
    800000c4:	0082c783          	lbu	a5,8(t0)
    800000c8:	0087f713          	andi	a4,a5,8
    800000cc:	02070463          	beqz	a4,800000f4 <__am_uartlite_putchar+0x6c>
    800000d0:	0082c303          	lbu	t1,8(t0)
    800000d4:	00837393          	andi	t2,t1,8
    800000d8:	00038e63          	beqz	t2,800000f4 <__am_uartlite_putchar+0x6c>
    800000dc:	0082c583          	lbu	a1,8(t0)
    800000e0:	0085f613          	andi	a2,a1,8
    800000e4:	00060863          	beqz	a2,800000f4 <__am_uartlite_putchar+0x6c>
    800000e8:	0082c683          	lbu	a3,8(t0)
    800000ec:	0086f813          	andi	a6,a3,8
    800000f0:	fa0812e3          	bnez	a6,80000094 <__am_uartlite_putchar+0xc>
    800000f4:	00a28223          	sb	a0,4(t0)
    800000f8:	00008067          	ret
    800000fc:	406002b7          	lui	t0,0x40600
    80000100:	0082c703          	lbu	a4,8(t0) # 40600008 <_start-0x3f9ffff8>
    80000104:	00877313          	andi	t1,a4,8
    80000108:	04030c63          	beqz	t1,80000160 <__am_uartlite_putchar+0xd8>
    8000010c:	0082c383          	lbu	t2,8(t0)
    80000110:	0083f593          	andi	a1,t2,8
    80000114:	04058663          	beqz	a1,80000160 <__am_uartlite_putchar+0xd8>
    80000118:	0082c603          	lbu	a2,8(t0)
    8000011c:	00867693          	andi	a3,a2,8
    80000120:	04068063          	beqz	a3,80000160 <__am_uartlite_putchar+0xd8>
    80000124:	0082c803          	lbu	a6,8(t0)
    80000128:	00887893          	andi	a7,a6,8
    8000012c:	02088a63          	beqz	a7,80000160 <__am_uartlite_putchar+0xd8>
    80000130:	0082ce03          	lbu	t3,8(t0)
    80000134:	008e7e93          	andi	t4,t3,8
    80000138:	020e8463          	beqz	t4,80000160 <__am_uartlite_putchar+0xd8>
    8000013c:	0082cf03          	lbu	t5,8(t0)
    80000140:	008f7f93          	andi	t6,t5,8
    80000144:	000f8e63          	beqz	t6,80000160 <__am_uartlite_putchar+0xd8>
    80000148:	0082c783          	lbu	a5,8(t0)
    8000014c:	0087f713          	andi	a4,a5,8
    80000150:	00070863          	beqz	a4,80000160 <__am_uartlite_putchar+0xd8>
    80000154:	0082c303          	lbu	t1,8(t0)
    80000158:	00837393          	andi	t2,t1,8
    8000015c:	fa0392e3          	bnez	t2,80000100 <__am_uartlite_putchar+0x78>
    80000160:	00d00593          	li	a1,13
    80000164:	00b28223          	sb	a1,4(t0)
    80000168:	f29ff06f          	j	80000090 <__am_uartlite_putchar+0x8>

Disassembly of section .text._out_null:

000000008000016c <_out_null>:
    8000016c:	00008067          	ret

Disassembly of section .text._out_rev:

0000000080000170 <_out_rev>:
    80000170:	fa010113          	addi	sp,sp,-96
    80000174:	04913423          	sd	s1,72(sp)
    80000178:	05213023          	sd	s2,64(sp)
    8000017c:	03313c23          	sd	s3,56(sp)
    80000180:	03413823          	sd	s4,48(sp)
    80000184:	03613023          	sd	s6,32(sp)
    80000188:	01713c23          	sd	s7,24(sp)
    8000018c:	01813823          	sd	s8,16(sp)
    80000190:	01913423          	sd	s9,8(sp)
    80000194:	01a13023          	sd	s10,0(sp)
    80000198:	00088b93          	mv	s7,a7
    8000019c:	04113c23          	sd	ra,88(sp)
    800001a0:	04813823          	sd	s0,80(sp)
    800001a4:	03513423          	sd	s5,40(sp)
    800001a8:	0038f893          	andi	a7,a7,3
    800001ac:	00060b13          	mv	s6,a2
    800001b0:	00050493          	mv	s1,a0
    800001b4:	00058913          	mv	s2,a1
    800001b8:	00068993          	mv	s3,a3
    800001bc:	00070d13          	mv	s10,a4
    800001c0:	00078c13          	mv	s8,a5
    800001c4:	00080c93          	mv	s9,a6
    800001c8:	00060a13          	mv	s4,a2
    800001cc:	1a089063          	bnez	a7,8000036c <_out_rev+0x1fc>
    800001d0:	02081793          	slli	a5,a6,0x20
    800001d4:	0207d093          	srli	ra,a5,0x20
    800001d8:	41808a33          	sub	s4,ra,s8
    800001dc:	00ca0a33          	add	s4,s4,a2
    800001e0:	00060413          	mv	s0,a2
    800001e4:	541c7a63          	bgeu	s8,ra,80000738 <_out_rev+0x5c8>
    800001e8:	40ca02b3          	sub	t0,s4,a2
    800001ec:	0072f313          	andi	t1,t0,7
    800001f0:	0c030a63          	beqz	t1,800002c4 <_out_rev+0x154>
    800001f4:	00100713          	li	a4,1
    800001f8:	0ae30863          	beq	t1,a4,800002a8 <_out_rev+0x138>
    800001fc:	00200393          	li	t2,2
    80000200:	08730863          	beq	t1,t2,80000290 <_out_rev+0x120>
    80000204:	00300513          	li	a0,3
    80000208:	06a30863          	beq	t1,a0,80000278 <_out_rev+0x108>
    8000020c:	00400813          	li	a6,4
    80000210:	05030863          	beq	t1,a6,80000260 <_out_rev+0xf0>
    80000214:	00500a93          	li	s5,5
    80000218:	03530863          	beq	t1,s5,80000248 <_out_rev+0xd8>
    8000021c:	00600e13          	li	t3,6
    80000220:	01c30863          	beq	t1,t3,80000230 <_out_rev+0xc0>
    80000224:	02000513          	li	a0,32
    80000228:	00160413          	addi	s0,a2,1
    8000022c:	000480e7          	jalr	s1
    80000230:	00040613          	mv	a2,s0
    80000234:	00098693          	mv	a3,s3
    80000238:	00090593          	mv	a1,s2
    8000023c:	02000513          	li	a0,32
    80000240:	00140413          	addi	s0,s0,1
    80000244:	000480e7          	jalr	s1
    80000248:	00040613          	mv	a2,s0
    8000024c:	00098693          	mv	a3,s3
    80000250:	00090593          	mv	a1,s2
    80000254:	02000513          	li	a0,32
    80000258:	00140413          	addi	s0,s0,1
    8000025c:	000480e7          	jalr	s1
    80000260:	00040613          	mv	a2,s0
    80000264:	00098693          	mv	a3,s3
    80000268:	00090593          	mv	a1,s2
    8000026c:	02000513          	li	a0,32
    80000270:	00140413          	addi	s0,s0,1
    80000274:	000480e7          	jalr	s1
    80000278:	00040613          	mv	a2,s0
    8000027c:	00098693          	mv	a3,s3
    80000280:	00090593          	mv	a1,s2
    80000284:	02000513          	li	a0,32
    80000288:	00140413          	addi	s0,s0,1
    8000028c:	000480e7          	jalr	s1
    80000290:	00040613          	mv	a2,s0
    80000294:	00098693          	mv	a3,s3
    80000298:	00090593          	mv	a1,s2
    8000029c:	02000513          	li	a0,32
    800002a0:	00140413          	addi	s0,s0,1
    800002a4:	000480e7          	jalr	s1
    800002a8:	00040613          	mv	a2,s0
    800002ac:	00098693          	mv	a3,s3
    800002b0:	00140413          	addi	s0,s0,1
    800002b4:	00090593          	mv	a1,s2
    800002b8:	02000513          	li	a0,32
    800002bc:	000480e7          	jalr	s1
    800002c0:	0b440663          	beq	s0,s4,8000036c <_out_rev+0x1fc>
    800002c4:	00040613          	mv	a2,s0
    800002c8:	00098693          	mv	a3,s3
    800002cc:	00090593          	mv	a1,s2
    800002d0:	02000513          	li	a0,32
    800002d4:	000480e7          	jalr	s1
    800002d8:	00140613          	addi	a2,s0,1
    800002dc:	00098693          	mv	a3,s3
    800002e0:	00090593          	mv	a1,s2
    800002e4:	02000513          	li	a0,32
    800002e8:	000480e7          	jalr	s1
    800002ec:	00240613          	addi	a2,s0,2
    800002f0:	00098693          	mv	a3,s3
    800002f4:	00090593          	mv	a1,s2
    800002f8:	02000513          	li	a0,32
    800002fc:	000480e7          	jalr	s1
    80000300:	00340613          	addi	a2,s0,3
    80000304:	00098693          	mv	a3,s3
    80000308:	00090593          	mv	a1,s2
    8000030c:	02000513          	li	a0,32
    80000310:	000480e7          	jalr	s1
    80000314:	00440613          	addi	a2,s0,4
    80000318:	00098693          	mv	a3,s3
    8000031c:	00090593          	mv	a1,s2
    80000320:	02000513          	li	a0,32
    80000324:	000480e7          	jalr	s1
    80000328:	00540613          	addi	a2,s0,5
    8000032c:	00098693          	mv	a3,s3
    80000330:	00090593          	mv	a1,s2
    80000334:	02000513          	li	a0,32
    80000338:	000480e7          	jalr	s1
    8000033c:	00640613          	addi	a2,s0,6
    80000340:	00098693          	mv	a3,s3
    80000344:	00090593          	mv	a1,s2
    80000348:	02000513          	li	a0,32
    8000034c:	000480e7          	jalr	s1
    80000350:	00740613          	addi	a2,s0,7
    80000354:	00098693          	mv	a3,s3
    80000358:	00840413          	addi	s0,s0,8
    8000035c:	00090593          	mv	a1,s2
    80000360:	02000513          	li	a0,32
    80000364:	000480e7          	jalr	s1
    80000368:	f5441ee3          	bne	s0,s4,800002c4 <_out_rev+0x154>
    8000036c:	018d0433          	add	s0,s10,s8
    80000370:	01440ab3          	add	s5,s0,s4
    80000374:	180c0e63          	beqz	s8,80000510 <_out_rev+0x3a0>
    80000378:	41a405b3          	sub	a1,s0,s10
    8000037c:	0075f613          	andi	a2,a1,7
    80000380:	0c060463          	beqz	a2,80000448 <_out_rev+0x2d8>
    80000384:	00100693          	li	a3,1
    80000388:	0ad60263          	beq	a2,a3,8000042c <_out_rev+0x2bc>
    8000038c:	00200e93          	li	t4,2
    80000390:	09d60263          	beq	a2,t4,80000414 <_out_rev+0x2a4>
    80000394:	00300f13          	li	t5,3
    80000398:	07e60263          	beq	a2,t5,800003fc <_out_rev+0x28c>
    8000039c:	00400f93          	li	t6,4
    800003a0:	05f60263          	beq	a2,t6,800003e4 <_out_rev+0x274>
    800003a4:	00500893          	li	a7,5
    800003a8:	03160263          	beq	a2,a7,800003cc <_out_rev+0x25c>
    800003ac:	00600793          	li	a5,6
    800003b0:	36f61663          	bne	a2,a5,8000071c <_out_rev+0x5ac>
    800003b4:	fff44503          	lbu	a0,-1(s0)
    800003b8:	408a8633          	sub	a2,s5,s0
    800003bc:	00098693          	mv	a3,s3
    800003c0:	00090593          	mv	a1,s2
    800003c4:	000480e7          	jalr	s1
    800003c8:	fff40413          	addi	s0,s0,-1
    800003cc:	fff44503          	lbu	a0,-1(s0)
    800003d0:	408a8633          	sub	a2,s5,s0
    800003d4:	00098693          	mv	a3,s3
    800003d8:	00090593          	mv	a1,s2
    800003dc:	000480e7          	jalr	s1
    800003e0:	fff40413          	addi	s0,s0,-1
    800003e4:	fff44503          	lbu	a0,-1(s0)
    800003e8:	408a8633          	sub	a2,s5,s0
    800003ec:	00098693          	mv	a3,s3
    800003f0:	00090593          	mv	a1,s2
    800003f4:	000480e7          	jalr	s1
    800003f8:	fff40413          	addi	s0,s0,-1
    800003fc:	fff44503          	lbu	a0,-1(s0)
    80000400:	408a8633          	sub	a2,s5,s0
    80000404:	00098693          	mv	a3,s3
    80000408:	00090593          	mv	a1,s2
    8000040c:	000480e7          	jalr	s1
    80000410:	fff40413          	addi	s0,s0,-1
    80000414:	fff44503          	lbu	a0,-1(s0)
    80000418:	408a8633          	sub	a2,s5,s0
    8000041c:	00098693          	mv	a3,s3
    80000420:	00090593          	mv	a1,s2
    80000424:	000480e7          	jalr	s1
    80000428:	fff40413          	addi	s0,s0,-1
    8000042c:	fff44503          	lbu	a0,-1(s0)
    80000430:	408a8633          	sub	a2,s5,s0
    80000434:	00098693          	mv	a3,s3
    80000438:	fff40413          	addi	s0,s0,-1
    8000043c:	00090593          	mv	a1,s2
    80000440:	000480e7          	jalr	s1
    80000444:	0c8d0463          	beq	s10,s0,8000050c <_out_rev+0x39c>
    80000448:	fff44503          	lbu	a0,-1(s0)
    8000044c:	408a8633          	sub	a2,s5,s0
    80000450:	00098693          	mv	a3,s3
    80000454:	00090593          	mv	a1,s2
    80000458:	000480e7          	jalr	s1
    8000045c:	ffe44503          	lbu	a0,-2(s0)
    80000460:	fff40293          	addi	t0,s0,-1
    80000464:	405a8633          	sub	a2,s5,t0
    80000468:	00098693          	mv	a3,s3
    8000046c:	00090593          	mv	a1,s2
    80000470:	000480e7          	jalr	s1
    80000474:	ffd44503          	lbu	a0,-3(s0)
    80000478:	ffe40313          	addi	t1,s0,-2
    8000047c:	406a8633          	sub	a2,s5,t1
    80000480:	00098693          	mv	a3,s3
    80000484:	00090593          	mv	a1,s2
    80000488:	000480e7          	jalr	s1
    8000048c:	ffc44503          	lbu	a0,-4(s0)
    80000490:	ffd40713          	addi	a4,s0,-3
    80000494:	40ea8633          	sub	a2,s5,a4
    80000498:	00098693          	mv	a3,s3
    8000049c:	00090593          	mv	a1,s2
    800004a0:	000480e7          	jalr	s1
    800004a4:	ffb44503          	lbu	a0,-5(s0)
    800004a8:	ffc40393          	addi	t2,s0,-4
    800004ac:	407a8633          	sub	a2,s5,t2
    800004b0:	00098693          	mv	a3,s3
    800004b4:	00090593          	mv	a1,s2
    800004b8:	000480e7          	jalr	s1
    800004bc:	ffa44503          	lbu	a0,-6(s0)
    800004c0:	ffb40813          	addi	a6,s0,-5
    800004c4:	410a8633          	sub	a2,s5,a6
    800004c8:	00098693          	mv	a3,s3
    800004cc:	00090593          	mv	a1,s2
    800004d0:	000480e7          	jalr	s1
    800004d4:	ff944503          	lbu	a0,-7(s0)
    800004d8:	ffa40e13          	addi	t3,s0,-6
    800004dc:	00098693          	mv	a3,s3
    800004e0:	41ca8633          	sub	a2,s5,t3
    800004e4:	00090593          	mv	a1,s2
    800004e8:	000480e7          	jalr	s1
    800004ec:	ff844503          	lbu	a0,-8(s0)
    800004f0:	ff940593          	addi	a1,s0,-7
    800004f4:	40ba8633          	sub	a2,s5,a1
    800004f8:	ff840413          	addi	s0,s0,-8
    800004fc:	00098693          	mv	a3,s3
    80000500:	00090593          	mv	a1,s2
    80000504:	000480e7          	jalr	s1
    80000508:	f48d10e3          	bne	s10,s0,80000448 <_out_rev+0x2d8>
    8000050c:	018a0a33          	add	s4,s4,s8
    80000510:	002bfb93          	andi	s7,s7,2
    80000514:	1c0b8663          	beqz	s7,800006e0 <_out_rev+0x570>
    80000518:	020c9d13          	slli	s10,s9,0x20
    8000051c:	416a0b33          	sub	s6,s4,s6
    80000520:	020d5c13          	srli	s8,s10,0x20
    80000524:	1b8b7e63          	bgeu	s6,s8,800006e0 <_out_rev+0x570>
    80000528:	fffb4c93          	not	s9,s6
    8000052c:	000a0613          	mv	a2,s4
    80000530:	018c80b3          	add	ra,s9,s8
    80000534:	001b0413          	addi	s0,s6,1
    80000538:	00098693          	mv	a3,s3
    8000053c:	00090593          	mv	a1,s2
    80000540:	02000513          	li	a0,32
    80000544:	0070fa93          	andi	s5,ra,7
    80000548:	001a0a13          	addi	s4,s4,1
    8000054c:	000480e7          	jalr	s1
    80000550:	19847863          	bgeu	s0,s8,800006e0 <_out_rev+0x570>
    80000554:	0e0a8063          	beqz	s5,80000634 <_out_rev+0x4c4>
    80000558:	00100513          	li	a0,1
    8000055c:	0aaa8c63          	beq	s5,a0,80000614 <_out_rev+0x4a4>
    80000560:	00200613          	li	a2,2
    80000564:	08ca8a63          	beq	s5,a2,800005f8 <_out_rev+0x488>
    80000568:	00300693          	li	a3,3
    8000056c:	06da8863          	beq	s5,a3,800005dc <_out_rev+0x46c>
    80000570:	00400e93          	li	t4,4
    80000574:	05da8663          	beq	s5,t4,800005c0 <_out_rev+0x450>
    80000578:	00500f13          	li	t5,5
    8000057c:	03ea8463          	beq	s5,t5,800005a4 <_out_rev+0x434>
    80000580:	00600f93          	li	t6,6
    80000584:	1bfa9e63          	bne	s5,t6,80000740 <_out_rev+0x5d0>
    80000588:	000a0613          	mv	a2,s4
    8000058c:	00098693          	mv	a3,s3
    80000590:	00090593          	mv	a1,s2
    80000594:	02000513          	li	a0,32
    80000598:	001a0a13          	addi	s4,s4,1
    8000059c:	000480e7          	jalr	s1
    800005a0:	00140413          	addi	s0,s0,1
    800005a4:	000a0613          	mv	a2,s4
    800005a8:	00098693          	mv	a3,s3
    800005ac:	00090593          	mv	a1,s2
    800005b0:	02000513          	li	a0,32
    800005b4:	001a0a13          	addi	s4,s4,1
    800005b8:	000480e7          	jalr	s1
    800005bc:	00140413          	addi	s0,s0,1
    800005c0:	000a0613          	mv	a2,s4
    800005c4:	00098693          	mv	a3,s3
    800005c8:	00090593          	mv	a1,s2
    800005cc:	02000513          	li	a0,32
    800005d0:	001a0a13          	addi	s4,s4,1
    800005d4:	000480e7          	jalr	s1
    800005d8:	00140413          	addi	s0,s0,1
    800005dc:	000a0613          	mv	a2,s4
    800005e0:	00098693          	mv	a3,s3
    800005e4:	00090593          	mv	a1,s2
    800005e8:	02000513          	li	a0,32
    800005ec:	001a0a13          	addi	s4,s4,1
    800005f0:	000480e7          	jalr	s1
    800005f4:	00140413          	addi	s0,s0,1
    800005f8:	000a0613          	mv	a2,s4
    800005fc:	00098693          	mv	a3,s3
    80000600:	00090593          	mv	a1,s2
    80000604:	02000513          	li	a0,32
    80000608:	001a0a13          	addi	s4,s4,1
    8000060c:	000480e7          	jalr	s1
    80000610:	00140413          	addi	s0,s0,1
    80000614:	000a0613          	mv	a2,s4
    80000618:	00140413          	addi	s0,s0,1
    8000061c:	00098693          	mv	a3,s3
    80000620:	00090593          	mv	a1,s2
    80000624:	02000513          	li	a0,32
    80000628:	001a0a13          	addi	s4,s4,1
    8000062c:	000480e7          	jalr	s1
    80000630:	0b847863          	bgeu	s0,s8,800006e0 <_out_rev+0x570>
    80000634:	000a0613          	mv	a2,s4
    80000638:	00098693          	mv	a3,s3
    8000063c:	00090593          	mv	a1,s2
    80000640:	02000513          	li	a0,32
    80000644:	000480e7          	jalr	s1
    80000648:	001a0613          	addi	a2,s4,1
    8000064c:	00098693          	mv	a3,s3
    80000650:	00090593          	mv	a1,s2
    80000654:	02000513          	li	a0,32
    80000658:	000480e7          	jalr	s1
    8000065c:	002a0613          	addi	a2,s4,2
    80000660:	00098693          	mv	a3,s3
    80000664:	00090593          	mv	a1,s2
    80000668:	02000513          	li	a0,32
    8000066c:	000480e7          	jalr	s1
    80000670:	003a0613          	addi	a2,s4,3
    80000674:	00098693          	mv	a3,s3
    80000678:	00090593          	mv	a1,s2
    8000067c:	02000513          	li	a0,32
    80000680:	000480e7          	jalr	s1
    80000684:	004a0613          	addi	a2,s4,4
    80000688:	00098693          	mv	a3,s3
    8000068c:	00090593          	mv	a1,s2
    80000690:	02000513          	li	a0,32
    80000694:	000480e7          	jalr	s1
    80000698:	005a0613          	addi	a2,s4,5
    8000069c:	00098693          	mv	a3,s3
    800006a0:	00090593          	mv	a1,s2
    800006a4:	02000513          	li	a0,32
    800006a8:	000480e7          	jalr	s1
    800006ac:	006a0613          	addi	a2,s4,6
    800006b0:	00098693          	mv	a3,s3
    800006b4:	00090593          	mv	a1,s2
    800006b8:	02000513          	li	a0,32
    800006bc:	000480e7          	jalr	s1
    800006c0:	007a0613          	addi	a2,s4,7
    800006c4:	00840413          	addi	s0,s0,8
    800006c8:	00098693          	mv	a3,s3
    800006cc:	00090593          	mv	a1,s2
    800006d0:	02000513          	li	a0,32
    800006d4:	008a0a13          	addi	s4,s4,8
    800006d8:	000480e7          	jalr	s1
    800006dc:	f5846ce3          	bltu	s0,s8,80000634 <_out_rev+0x4c4>
    800006e0:	05813083          	ld	ra,88(sp)
    800006e4:	05013403          	ld	s0,80(sp)
    800006e8:	04813483          	ld	s1,72(sp)
    800006ec:	04013903          	ld	s2,64(sp)
    800006f0:	03813983          	ld	s3,56(sp)
    800006f4:	02813a83          	ld	s5,40(sp)
    800006f8:	02013b03          	ld	s6,32(sp)
    800006fc:	01813b83          	ld	s7,24(sp)
    80000700:	01013c03          	ld	s8,16(sp)
    80000704:	00813c83          	ld	s9,8(sp)
    80000708:	00013d03          	ld	s10,0(sp)
    8000070c:	000a0513          	mv	a0,s4
    80000710:	03013a03          	ld	s4,48(sp)
    80000714:	06010113          	addi	sp,sp,96
    80000718:	00008067          	ret
    8000071c:	fff44503          	lbu	a0,-1(s0)
    80000720:	408a8633          	sub	a2,s5,s0
    80000724:	00098693          	mv	a3,s3
    80000728:	00090593          	mv	a1,s2
    8000072c:	000480e7          	jalr	s1
    80000730:	fff40413          	addi	s0,s0,-1
    80000734:	c81ff06f          	j	800003b4 <_out_rev+0x244>
    80000738:	00060a13          	mv	s4,a2
    8000073c:	c31ff06f          	j	8000036c <_out_rev+0x1fc>
    80000740:	000a0613          	mv	a2,s4
    80000744:	00098693          	mv	a3,s3
    80000748:	00090593          	mv	a1,s2
    8000074c:	02000513          	li	a0,32
    80000750:	001a0a13          	addi	s4,s4,1
    80000754:	000480e7          	jalr	s1
    80000758:	00140413          	addi	s0,s0,1
    8000075c:	e2dff06f          	j	80000588 <_out_rev+0x418>

Disassembly of section .text._ntoa_long:

0000000080000760 <_ntoa_long>:
    80000760:	f6010113          	addi	sp,sp,-160
    80000764:	0a812e03          	lw	t3,168(sp)
    80000768:	05a13023          	sd	s10,64(sp)
    8000076c:	03b13c23          	sd	s11,56(sp)
    80000770:	08113c23          	sd	ra,152(sp)
    80000774:	08813823          	sd	s0,144(sp)
    80000778:	08913423          	sd	s1,136(sp)
    8000077c:	09213023          	sd	s2,128(sp)
    80000780:	07313c23          	sd	s3,120(sp)
    80000784:	07413823          	sd	s4,112(sp)
    80000788:	07513423          	sd	s5,104(sp)
    8000078c:	07613023          	sd	s6,96(sp)
    80000790:	05713c23          	sd	s7,88(sp)
    80000794:	05813823          	sd	s8,80(sp)
    80000798:	05913423          	sd	s9,72(sp)
    8000079c:	0a012f83          	lw	t6,160(sp)
    800007a0:	00070393          	mv	t2,a4
    800007a4:	00078d93          	mv	s11,a5
    800007a8:	00080313          	mv	t1,a6
    800007ac:	00088d13          	mv	s10,a7
    800007b0:	400e7293          	andi	t0,t3,1024
    800007b4:	1c071e63          	bnez	a4,80000990 <_ntoa_long+0x230>
    800007b8:	000e0093          	mv	ra,t3
    800007bc:	fefe7e13          	andi	t3,t3,-17
    800007c0:	20029663          	bnez	t0,800009cc <_ntoa_long+0x26c>
    800007c4:	020e7793          	andi	a5,t3,32
    800007c8:	00000f13          	li	t5,0
    800007cc:	06100413          	li	s0,97
    800007d0:	1c079863          	bnez	a5,800009a0 <_ntoa_long+0x240>
    800007d4:	0263f833          	remu	a6,t2,t1
    800007d8:	00900e93          	li	t4,9
    800007dc:	01010713          	addi	a4,sp,16
    800007e0:	ff64091b          	addiw	s2,s0,-10
    800007e4:	02000993          	li	s3,32
    800007e8:	0ff87493          	andi	s1,a6,255
    800007ec:	1d0efa63          	bgeu	t4,a6,800009c0 <_ntoa_long+0x260>
    800007f0:	009908bb          	addw	a7,s2,s1
    800007f4:	0ff8fa93          	andi	s5,a7,255
    800007f8:	01570023          	sb	s5,0(a4)
    800007fc:	0263d833          	divu	a6,t2,t1
    80000800:	00100793          	li	a5,1
    80000804:	0e63ee63          	bltu	t2,t1,80000900 <_ntoa_long+0x1a0>
    80000808:	02687b33          	remu	s6,a6,t1
    8000080c:	0ffb7b93          	andi	s7,s6,255
    80000810:	256eee63          	bltu	t4,s6,80000a6c <_ntoa_long+0x30c>
    80000814:	030b839b          	addiw	t2,s7,48
    80000818:	0ff3fc93          	andi	s9,t2,255
    8000081c:	00178093          	addi	ra,a5,1
    80000820:	001707b3          	add	a5,a4,ra
    80000824:	ff978fa3          	sb	s9,-1(a5)
    80000828:	02685433          	divu	s0,a6,t1
    8000082c:	00008793          	mv	a5,ra
    80000830:	0c686863          	bltu	a6,t1,80000900 <_ntoa_long+0x1a0>
    80000834:	0d308663          	beq	ra,s3,80000900 <_ntoa_long+0x1a0>
    80000838:	02647833          	remu	a6,s0,t1
    8000083c:	0ff87493          	andi	s1,a6,255
    80000840:	230eec63          	bltu	t4,a6,80000a78 <_ntoa_long+0x318>
    80000844:	03048a1b          	addiw	s4,s1,48
    80000848:	0ffa7a93          	andi	s5,s4,255
    8000084c:	00108793          	addi	a5,ra,1
    80000850:	00f70b33          	add	s6,a4,a5
    80000854:	ff5b0fa3          	sb	s5,-1(s6)
    80000858:	02645bb3          	divu	s7,s0,t1
    8000085c:	0a646263          	bltu	s0,t1,80000900 <_ntoa_long+0x1a0>
    80000860:	026bfc33          	remu	s8,s7,t1
    80000864:	0ffc7c93          	andi	s9,s8,255
    80000868:	218efe63          	bgeu	t4,s8,80000a84 <_ntoa_long+0x324>
    8000086c:	019903bb          	addw	t2,s2,s9
    80000870:	0ff3f413          	andi	s0,t2,255
    80000874:	00208793          	addi	a5,ra,2
    80000878:	00f70833          	add	a6,a4,a5
    8000087c:	fe880fa3          	sb	s0,-1(a6)
    80000880:	026bda33          	divu	s4,s7,t1
    80000884:	066bee63          	bltu	s7,t1,80000900 <_ntoa_long+0x1a0>
    80000888:	026a74b3          	remu	s1,s4,t1
    8000088c:	0ff4f893          	andi	a7,s1,255
    80000890:	209ef063          	bgeu	t4,s1,80000a90 <_ntoa_long+0x330>
    80000894:	01190abb          	addw	s5,s2,a7
    80000898:	0ffafb93          	andi	s7,s5,255
    8000089c:	00308793          	addi	a5,ra,3
    800008a0:	00f70c33          	add	s8,a4,a5
    800008a4:	ff7c0fa3          	sb	s7,-1(s8)
    800008a8:	026a5cb3          	divu	s9,s4,t1
    800008ac:	046a6a63          	bltu	s4,t1,80000900 <_ntoa_long+0x1a0>
    800008b0:	026cf3b3          	remu	t2,s9,t1
    800008b4:	0ff3f793          	andi	a5,t2,255
    800008b8:	1e7ef263          	bgeu	t4,t2,80000a9c <_ntoa_long+0x33c>
    800008bc:	00f9043b          	addw	s0,s2,a5
    800008c0:	0ff47a13          	andi	s4,s0,255
    800008c4:	00408793          	addi	a5,ra,4
    800008c8:	00f704b3          	add	s1,a4,a5
    800008cc:	ff448fa3          	sb	s4,-1(s1)
    800008d0:	026cdab3          	divu	s5,s9,t1
    800008d4:	026ce663          	bltu	s9,t1,80000900 <_ntoa_long+0x1a0>
    800008d8:	026afb33          	remu	s6,s5,t1
    800008dc:	0ffb7893          	andi	a7,s6,255
    800008e0:	1d6ef463          	bgeu	t4,s6,80000aa8 <_ntoa_long+0x348>
    800008e4:	01190bbb          	addw	s7,s2,a7
    800008e8:	0ffbfc93          	andi	s9,s7,255
    800008ec:	00508793          	addi	a5,ra,5
    800008f0:	00f700b3          	add	ra,a4,a5
    800008f4:	ff908fa3          	sb	s9,-1(ra)
    800008f8:	026ad833          	divu	a6,s5,t1
    800008fc:	f06af6e3          	bgeu	s5,t1,80000808 <_ntoa_long+0xa8>
    80000900:	002e7e93          	andi	t4,t3,2
    80000904:	0c0e8c63          	beqz	t4,800009dc <_ntoa_long+0x27c>
    80000908:	140f0a63          	beqz	t5,80000a5c <_ntoa_long+0x2fc>
    8000090c:	12029063          	bnez	t0,80000a2c <_ntoa_long+0x2cc>
    80000910:	4a079a63          	bnez	a5,80000dc4 <_ntoa_long+0x664>
    80000914:	01000793          	li	a5,16
    80000918:	50f30863          	beq	t1,a5,80000e28 <_ntoa_long+0x6c8>
    8000091c:	00200a13          	li	s4,2
    80000920:	57430063          	beq	t1,s4,80000e80 <_ntoa_long+0x720>
    80000924:	03000b13          	li	s6,48
    80000928:	01610823          	sb	s6,16(sp)
    8000092c:	00100793          	li	a5,1
    80000930:	180d8263          	beqz	s11,80000ab4 <_ntoa_long+0x354>
    80000934:	03010a93          	addi	s5,sp,48
    80000938:	00fa8f33          	add	t5,s5,a5
    8000093c:	02d00393          	li	t2,45
    80000940:	fe7f0023          	sb	t2,-32(t5)
    80000944:	00178793          	addi	a5,a5,1
    80000948:	000e0893          	mv	a7,t3
    8000094c:	000f8813          	mv	a6,t6
    80000950:	821ff0ef          	jal	ra,80000170 <_out_rev>
    80000954:	09813083          	ld	ra,152(sp)
    80000958:	09013403          	ld	s0,144(sp)
    8000095c:	08813483          	ld	s1,136(sp)
    80000960:	08013903          	ld	s2,128(sp)
    80000964:	07813983          	ld	s3,120(sp)
    80000968:	07013a03          	ld	s4,112(sp)
    8000096c:	06813a83          	ld	s5,104(sp)
    80000970:	06013b03          	ld	s6,96(sp)
    80000974:	05813b83          	ld	s7,88(sp)
    80000978:	05013c03          	ld	s8,80(sp)
    8000097c:	04813c83          	ld	s9,72(sp)
    80000980:	04013d03          	ld	s10,64(sp)
    80000984:	03813d83          	ld	s11,56(sp)
    80000988:	0a010113          	addi	sp,sp,160
    8000098c:	00008067          	ret
    80000990:	020e7793          	andi	a5,t3,32
    80000994:	010e7f13          	andi	t5,t3,16
    80000998:	06100413          	li	s0,97
    8000099c:	e2078ce3          	beqz	a5,800007d4 <_ntoa_long+0x74>
    800009a0:	0263f833          	remu	a6,t2,t1
    800009a4:	04100413          	li	s0,65
    800009a8:	00900e93          	li	t4,9
    800009ac:	01010713          	addi	a4,sp,16
    800009b0:	ff64091b          	addiw	s2,s0,-10
    800009b4:	02000993          	li	s3,32
    800009b8:	0ff87493          	andi	s1,a6,255
    800009bc:	e30eeae3          	bltu	t4,a6,800007f0 <_ntoa_long+0x90>
    800009c0:	03048a1b          	addiw	s4,s1,48
    800009c4:	0ffa7a93          	andi	s5,s4,255
    800009c8:	e31ff06f          	j	800007f8 <_ntoa_long+0x98>
    800009cc:	0020ff13          	andi	t5,ra,2
    800009d0:	00000793          	li	a5,0
    800009d4:	01010713          	addi	a4,sp,16
    800009d8:	f40f1ce3          	bnez	t5,80000930 <_ntoa_long+0x1d0>
    800009dc:	020d1393          	slli	t2,s10,0x20
    800009e0:	000e0913          	mv	s2,t3
    800009e4:	001e7993          	andi	s3,t3,1
    800009e8:	0203db13          	srli	s6,t2,0x20
    800009ec:	0e0f8863          	beqz	t6,80000adc <_ntoa_long+0x37c>
    800009f0:	38098863          	beqz	s3,80000d80 <_ntoa_long+0x620>
    800009f4:	3c0d9e63          	bnez	s11,80000dd0 <_ntoa_long+0x670>
    800009f8:	00c97493          	andi	s1,s2,12
    800009fc:	3c049a63          	bnez	s1,80000dd0 <_ntoa_long+0x670>
    80000a00:	2367f063          	bgeu	a5,s6,80000c20 <_ntoa_long+0x4c0>
    80000a04:	02000a93          	li	s5,32
    80000a08:	0f579063          	bne	a5,s5,80000ae8 <_ntoa_long+0x388>
    80000a0c:	eff7fee3          	bgeu	a5,t6,80000908 <_ntoa_long+0x1a8>
    80000a10:	040f0a63          	beqz	t5,80000a64 <_ntoa_long+0x304>
    80000a14:	02000793          	li	a5,32
    80000a18:	00029a63          	bnez	t0,80000a2c <_ntoa_long+0x2cc>
    80000a1c:	3afb0e63          	beq	s6,a5,80000dd8 <_ntoa_long+0x678>
    80000a20:	020f9f13          	slli	t5,t6,0x20
    80000a24:	020f5393          	srli	t2,t5,0x20
    80000a28:	3af38863          	beq	t2,a5,80000dd8 <_ntoa_long+0x678>
    80000a2c:	01000893          	li	a7,16
    80000a30:	3d130863          	beq	t1,a7,80000e00 <_ntoa_long+0x6a0>
    80000a34:	00200e93          	li	t4,2
    80000a38:	37d30c63          	beq	t1,t4,80000db0 <_ntoa_long+0x650>
    80000a3c:	02000413          	li	s0,32
    80000a40:	f08784e3          	beq	a5,s0,80000948 <_ntoa_long+0x1e8>
    80000a44:	00078993          	mv	s3,a5
    80000a48:	03010493          	addi	s1,sp,48
    80000a4c:	01348933          	add	s2,s1,s3
    80000a50:	00198793          	addi	a5,s3,1
    80000a54:	03000993          	li	s3,48
    80000a58:	ff390023          	sb	s3,-32(s2)
    80000a5c:	02000a13          	li	s4,32
    80000a60:	ed4798e3          	bne	a5,s4,80000930 <_ntoa_long+0x1d0>
    80000a64:	02000793          	li	a5,32
    80000a68:	ee1ff06f          	j	80000948 <_ntoa_long+0x1e8>
    80000a6c:	01790c3b          	addw	s8,s2,s7
    80000a70:	0ffc7c93          	andi	s9,s8,255
    80000a74:	da9ff06f          	j	8000081c <_ntoa_long+0xbc>
    80000a78:	009908bb          	addw	a7,s2,s1
    80000a7c:	0ff8fa93          	andi	s5,a7,255
    80000a80:	dcdff06f          	j	8000084c <_ntoa_long+0xec>
    80000a84:	030c879b          	addiw	a5,s9,48
    80000a88:	0ff7f413          	andi	s0,a5,255
    80000a8c:	de9ff06f          	j	80000874 <_ntoa_long+0x114>
    80000a90:	03088b1b          	addiw	s6,a7,48
    80000a94:	0ffb7b93          	andi	s7,s6,255
    80000a98:	e05ff06f          	j	8000089c <_ntoa_long+0x13c>
    80000a9c:	0307881b          	addiw	a6,a5,48
    80000aa0:	0ff87a13          	andi	s4,a6,255
    80000aa4:	e21ff06f          	j	800008c4 <_ntoa_long+0x164>
    80000aa8:	03088c1b          	addiw	s8,a7,48
    80000aac:	0ffc7c93          	andi	s9,s8,255
    80000ab0:	e3dff06f          	j	800008ec <_ntoa_long+0x18c>
    80000ab4:	004e7d93          	andi	s11,t3,4
    80000ab8:	2e0d9063          	bnez	s11,80000d98 <_ntoa_long+0x638>
    80000abc:	008e7b13          	andi	s6,t3,8
    80000ac0:	e80b04e3          	beqz	s6,80000948 <_ntoa_long+0x1e8>
    80000ac4:	03010b93          	addi	s7,sp,48
    80000ac8:	00fb8c33          	add	s8,s7,a5
    80000acc:	02000813          	li	a6,32
    80000ad0:	ff0c0023          	sb	a6,-32(s8)
    80000ad4:	00178793          	addi	a5,a5,1
    80000ad8:	e71ff06f          	j	80000948 <_ntoa_long+0x1e8>
    80000adc:	1567f063          	bgeu	a5,s6,80000c1c <_ntoa_long+0x4bc>
    80000ae0:	02000413          	li	s0,32
    80000ae4:	12878c63          	beq	a5,s0,80000c1c <_ntoa_long+0x4bc>
    80000ae8:	fff7c893          	not	a7,a5
    80000aec:	01688bb3          	add	s7,a7,s6
    80000af0:	007bfc13          	andi	s8,s7,7
    80000af4:	03000c93          	li	s9,48
    80000af8:	02000093          	li	ra,32
    80000afc:	080c0c63          	beqz	s8,80000b94 <_ntoa_long+0x434>
    80000b00:	00178793          	addi	a5,a5,1
    80000b04:	00f70833          	add	a6,a4,a5
    80000b08:	ff980fa3          	sb	s9,-1(a6)
    80000b0c:	1167f863          	bgeu	a5,s6,80000c1c <_ntoa_long+0x4bc>
    80000b10:	10178663          	beq	a5,ra,80000c1c <_ntoa_long+0x4bc>
    80000b14:	00100e93          	li	t4,1
    80000b18:	07dc0e63          	beq	s8,t4,80000b94 <_ntoa_long+0x434>
    80000b1c:	00200913          	li	s2,2
    80000b20:	072c0263          	beq	s8,s2,80000b84 <_ntoa_long+0x424>
    80000b24:	00300393          	li	t2,3
    80000b28:	047c0663          	beq	s8,t2,80000b74 <_ntoa_long+0x414>
    80000b2c:	00400413          	li	s0,4
    80000b30:	028c0a63          	beq	s8,s0,80000b64 <_ntoa_long+0x404>
    80000b34:	00500a13          	li	s4,5
    80000b38:	014c0e63          	beq	s8,s4,80000b54 <_ntoa_long+0x3f4>
    80000b3c:	00600493          	li	s1,6
    80000b40:	309c1e63          	bne	s8,s1,80000e5c <_ntoa_long+0x6fc>
    80000b44:	00178793          	addi	a5,a5,1
    80000b48:	00f708b3          	add	a7,a4,a5
    80000b4c:	ff988fa3          	sb	s9,-1(a7)
    80000b50:	0c178663          	beq	a5,ra,80000c1c <_ntoa_long+0x4bc>
    80000b54:	00178793          	addi	a5,a5,1
    80000b58:	00f70bb3          	add	s7,a4,a5
    80000b5c:	ff9b8fa3          	sb	s9,-1(s7)
    80000b60:	0a178e63          	beq	a5,ra,80000c1c <_ntoa_long+0x4bc>
    80000b64:	00178793          	addi	a5,a5,1
    80000b68:	00f70c33          	add	s8,a4,a5
    80000b6c:	ff9c0fa3          	sb	s9,-1(s8)
    80000b70:	0a178663          	beq	a5,ra,80000c1c <_ntoa_long+0x4bc>
    80000b74:	00178793          	addi	a5,a5,1
    80000b78:	00f70833          	add	a6,a4,a5
    80000b7c:	ff980fa3          	sb	s9,-1(a6)
    80000b80:	08178e63          	beq	a5,ra,80000c1c <_ntoa_long+0x4bc>
    80000b84:	00178793          	addi	a5,a5,1
    80000b88:	00f70eb3          	add	t4,a4,a5
    80000b8c:	ff9e8fa3          	sb	s9,-1(t4)
    80000b90:	08178663          	beq	a5,ra,80000c1c <_ntoa_long+0x4bc>
    80000b94:	00178793          	addi	a5,a5,1
    80000b98:	00f70933          	add	s2,a4,a5
    80000b9c:	ff990fa3          	sb	s9,-1(s2)
    80000ba0:	00078393          	mv	t2,a5
    80000ba4:	0767fc63          	bgeu	a5,s6,80000c1c <_ntoa_long+0x4bc>
    80000ba8:	06178a63          	beq	a5,ra,80000c1c <_ntoa_long+0x4bc>
    80000bac:	00178793          	addi	a5,a5,1
    80000bb0:	00f70433          	add	s0,a4,a5
    80000bb4:	ff940fa3          	sb	s9,-1(s0)
    80000bb8:	06178263          	beq	a5,ra,80000c1c <_ntoa_long+0x4bc>
    80000bbc:	00238793          	addi	a5,t2,2
    80000bc0:	00f70a33          	add	s4,a4,a5
    80000bc4:	ff9a0fa3          	sb	s9,-1(s4)
    80000bc8:	04178a63          	beq	a5,ra,80000c1c <_ntoa_long+0x4bc>
    80000bcc:	00338793          	addi	a5,t2,3
    80000bd0:	00f704b3          	add	s1,a4,a5
    80000bd4:	ff948fa3          	sb	s9,-1(s1)
    80000bd8:	04178263          	beq	a5,ra,80000c1c <_ntoa_long+0x4bc>
    80000bdc:	00438793          	addi	a5,t2,4
    80000be0:	00f70ab3          	add	s5,a4,a5
    80000be4:	ff9a8fa3          	sb	s9,-1(s5)
    80000be8:	02178a63          	beq	a5,ra,80000c1c <_ntoa_long+0x4bc>
    80000bec:	00538793          	addi	a5,t2,5
    80000bf0:	00f708b3          	add	a7,a4,a5
    80000bf4:	ff988fa3          	sb	s9,-1(a7)
    80000bf8:	02178263          	beq	a5,ra,80000c1c <_ntoa_long+0x4bc>
    80000bfc:	00638793          	addi	a5,t2,6
    80000c00:	00f70bb3          	add	s7,a4,a5
    80000c04:	ff9b8fa3          	sb	s9,-1(s7)
    80000c08:	00178a63          	beq	a5,ra,80000c1c <_ntoa_long+0x4bc>
    80000c0c:	00738793          	addi	a5,t2,7
    80000c10:	00f70c33          	add	s8,a4,a5
    80000c14:	ff9c0fa3          	sb	s9,-1(s8)
    80000c18:	f6179ee3          	bne	a5,ra,80000b94 <_ntoa_long+0x434>
    80000c1c:	ce0986e3          	beqz	s3,80000908 <_ntoa_long+0x1a8>
    80000c20:	020f9993          	slli	s3,t6,0x20
    80000c24:	0209d393          	srli	t2,s3,0x20
    80000c28:	ce77f0e3          	bgeu	a5,t2,80000908 <_ntoa_long+0x1a8>
    80000c2c:	02000c93          	li	s9,32
    80000c30:	df9780e3          	beq	a5,s9,80000a10 <_ntoa_long+0x2b0>
    80000c34:	fff7c093          	not	ra,a5
    80000c38:	00708833          	add	a6,ra,t2
    80000c3c:	00787913          	andi	s2,a6,7
    80000c40:	03000893          	li	a7,48
    80000c44:	02000e93          	li	t4,32
    80000c48:	0a090263          	beqz	s2,80000cec <_ntoa_long+0x58c>
    80000c4c:	00178793          	addi	a5,a5,1
    80000c50:	00f70433          	add	s0,a4,a5
    80000c54:	ff140fa3          	sb	a7,-1(s0)
    80000c58:	dbd78ce3          	beq	a5,t4,80000a10 <_ntoa_long+0x2b0>
    80000c5c:	00100a13          	li	s4,1
    80000c60:	09490663          	beq	s2,s4,80000cec <_ntoa_long+0x58c>
    80000c64:	00200493          	li	s1,2
    80000c68:	06990a63          	beq	s2,s1,80000cdc <_ntoa_long+0x57c>
    80000c6c:	00300a93          	li	s5,3
    80000c70:	05590e63          	beq	s2,s5,80000ccc <_ntoa_long+0x56c>
    80000c74:	00400b93          	li	s7,4
    80000c78:	05790263          	beq	s2,s7,80000cbc <_ntoa_long+0x55c>
    80000c7c:	00500c13          	li	s8,5
    80000c80:	03890663          	beq	s2,s8,80000cac <_ntoa_long+0x54c>
    80000c84:	00600993          	li	s3,6
    80000c88:	01390a63          	beq	s2,s3,80000c9c <_ntoa_long+0x53c>
    80000c8c:	00178793          	addi	a5,a5,1
    80000c90:	00f70cb3          	add	s9,a4,a5
    80000c94:	ff1c8fa3          	sb	a7,-1(s9)
    80000c98:	d7d78ce3          	beq	a5,t4,80000a10 <_ntoa_long+0x2b0>
    80000c9c:	00178793          	addi	a5,a5,1
    80000ca0:	00f700b3          	add	ra,a4,a5
    80000ca4:	ff108fa3          	sb	a7,-1(ra)
    80000ca8:	d7d784e3          	beq	a5,t4,80000a10 <_ntoa_long+0x2b0>
    80000cac:	00178793          	addi	a5,a5,1
    80000cb0:	00f70833          	add	a6,a4,a5
    80000cb4:	ff180fa3          	sb	a7,-1(a6)
    80000cb8:	d5d78ce3          	beq	a5,t4,80000a10 <_ntoa_long+0x2b0>
    80000cbc:	00178793          	addi	a5,a5,1
    80000cc0:	00f70933          	add	s2,a4,a5
    80000cc4:	ff190fa3          	sb	a7,-1(s2)
    80000cc8:	d5d784e3          	beq	a5,t4,80000a10 <_ntoa_long+0x2b0>
    80000ccc:	00178793          	addi	a5,a5,1
    80000cd0:	00f70433          	add	s0,a4,a5
    80000cd4:	ff140fa3          	sb	a7,-1(s0)
    80000cd8:	d3d78ce3          	beq	a5,t4,80000a10 <_ntoa_long+0x2b0>
    80000cdc:	00178793          	addi	a5,a5,1
    80000ce0:	00f70a33          	add	s4,a4,a5
    80000ce4:	ff1a0fa3          	sb	a7,-1(s4)
    80000ce8:	d3d784e3          	beq	a5,t4,80000a10 <_ntoa_long+0x2b0>
    80000cec:	01a13423          	sd	s10,8(sp)
    80000cf0:	01613023          	sd	s6,0(sp)
    80000cf4:	00178793          	addi	a5,a5,1
    80000cf8:	00f70ab3          	add	s5,a4,a5
    80000cfc:	00178093          	addi	ra,a5,1
    80000d00:	00278413          	addi	s0,a5,2
    80000d04:	00378493          	addi	s1,a5,3
    80000d08:	00478913          	addi	s2,a5,4
    80000d0c:	00578993          	addi	s3,a5,5
    80000d10:	00678a13          	addi	s4,a5,6
    80000d14:	ff1a8fa3          	sb	a7,-1(s5)
    80000d18:	00170b33          	add	s6,a4,ra
    80000d1c:	00870bb3          	add	s7,a4,s0
    80000d20:	00970c33          	add	s8,a4,s1
    80000d24:	01270833          	add	a6,a4,s2
    80000d28:	01370d33          	add	s10,a4,s3
    80000d2c:	01470cb3          	add	s9,a4,s4
    80000d30:	16778063          	beq	a5,t2,80000e90 <_ntoa_long+0x730>
    80000d34:	05d78263          	beq	a5,t4,80000d78 <_ntoa_long+0x618>
    80000d38:	00778793          	addi	a5,a5,7
    80000d3c:	ff1b0fa3          	sb	a7,-1(s6)
    80000d40:	00f70ab3          	add	s5,a4,a5
    80000d44:	03d08a63          	beq	ra,t4,80000d78 <_ntoa_long+0x618>
    80000d48:	ff1b8fa3          	sb	a7,-1(s7)
    80000d4c:	03d40663          	beq	s0,t4,80000d78 <_ntoa_long+0x618>
    80000d50:	ff1c0fa3          	sb	a7,-1(s8)
    80000d54:	03d48263          	beq	s1,t4,80000d78 <_ntoa_long+0x618>
    80000d58:	ff180fa3          	sb	a7,-1(a6)
    80000d5c:	01d90e63          	beq	s2,t4,80000d78 <_ntoa_long+0x618>
    80000d60:	ff1d0fa3          	sb	a7,-1(s10)
    80000d64:	01d98a63          	beq	s3,t4,80000d78 <_ntoa_long+0x618>
    80000d68:	ff1c8fa3          	sb	a7,-1(s9)
    80000d6c:	01da0663          	beq	s4,t4,80000d78 <_ntoa_long+0x618>
    80000d70:	ff1a8fa3          	sb	a7,-1(s5)
    80000d74:	f9d790e3          	bne	a5,t4,80000cf4 <_ntoa_long+0x594>
    80000d78:	00013b03          	ld	s6,0(sp)
    80000d7c:	c95ff06f          	j	80000a10 <_ntoa_long+0x2b0>
    80000d80:	b967f4e3          	bgeu	a5,s6,80000908 <_ntoa_long+0x1a8>
    80000d84:	02000a13          	li	s4,32
    80000d88:	d74790e3          	bne	a5,s4,80000ae8 <_ntoa_long+0x388>
    80000d8c:	b80f10e3          	bnez	t5,8000090c <_ntoa_long+0x1ac>
    80000d90:	02000793          	li	a5,32
    80000d94:	bb5ff06f          	j	80000948 <_ntoa_long+0x1e8>
    80000d98:	03010d13          	addi	s10,sp,48
    80000d9c:	00fd0cb3          	add	s9,s10,a5
    80000da0:	02b00293          	li	t0,43
    80000da4:	fe5c8023          	sb	t0,-32(s9)
    80000da8:	00178793          	addi	a5,a5,1
    80000dac:	b9dff06f          	j	80000948 <_ntoa_long+0x1e8>
    80000db0:	02000313          	li	t1,32
    80000db4:	b8678ae3          	beq	a5,t1,80000948 <_ntoa_long+0x1e8>
    80000db8:	00f70ab3          	add	s5,a4,a5
    80000dbc:	00178793          	addi	a5,a5,1
    80000dc0:	0340006f          	j	80000df4 <_ntoa_long+0x694>
    80000dc4:	020d1293          	slli	t0,s10,0x20
    80000dc8:	0202db13          	srli	s6,t0,0x20
    80000dcc:	c51ff06f          	j	80000a1c <_ntoa_long+0x2bc>
    80000dd0:	ffff8f9b          	addiw	t6,t6,-1
    80000dd4:	c2dff06f          	j	80000a00 <_ntoa_long+0x2a0>
    80000dd8:	fff78993          	addi	s3,a5,-1
    80000ddc:	b2098ce3          	beqz	s3,80000914 <_ntoa_long+0x1b4>
    80000de0:	01000c93          	li	s9,16
    80000de4:	0b930c63          	beq	t1,s9,80000e9c <_ntoa_long+0x73c>
    80000de8:	00200293          	li	t0,2
    80000dec:	c4531ee3          	bne	t1,t0,80000a48 <_ntoa_long+0x2e8>
    80000df0:	01370ab3          	add	s5,a4,s3
    80000df4:	06200f13          	li	t5,98
    80000df8:	01ea8023          	sb	t5,0(s5)
    80000dfc:	c41ff06f          	j	80000a3c <_ntoa_long+0x2dc>
    80000e00:	020e7093          	andi	ra,t3,32
    80000e04:	02008e63          	beqz	ra,80000e40 <_ntoa_long+0x6e0>
    80000e08:	02000413          	li	s0,32
    80000e0c:	b2878ee3          	beq	a5,s0,80000948 <_ntoa_long+0x1e8>
    80000e10:	03010893          	addi	a7,sp,48
    80000e14:	00f88eb3          	add	t4,a7,a5
    80000e18:	05800313          	li	t1,88
    80000e1c:	00178793          	addi	a5,a5,1
    80000e20:	fe6e8023          	sb	t1,-32(t4)
    80000e24:	c19ff06f          	j	80000a3c <_ntoa_long+0x2dc>
    80000e28:	020e7c13          	andi	s8,t3,32
    80000e2c:	040c1263          	bnez	s8,80000e70 <_ntoa_long+0x710>
    80000e30:	07800d13          	li	s10,120
    80000e34:	01a10823          	sb	s10,16(sp)
    80000e38:	00100993          	li	s3,1
    80000e3c:	c0dff06f          	j	80000a48 <_ntoa_long+0x2e8>
    80000e40:	02000493          	li	s1,32
    80000e44:	b09782e3          	beq	a5,s1,80000948 <_ntoa_long+0x1e8>
    80000e48:	00f70933          	add	s2,a4,a5
    80000e4c:	00178793          	addi	a5,a5,1
    80000e50:	07800093          	li	ra,120
    80000e54:	00190023          	sb	ra,0(s2)
    80000e58:	be5ff06f          	j	80000a3c <_ntoa_long+0x2dc>
    80000e5c:	00178793          	addi	a5,a5,1
    80000e60:	00f70ab3          	add	s5,a4,a5
    80000e64:	ff9a8fa3          	sb	s9,-1(s5)
    80000e68:	cc179ee3          	bne	a5,ra,80000b44 <_ntoa_long+0x3e4>
    80000e6c:	db1ff06f          	j	80000c1c <_ntoa_long+0x4bc>
    80000e70:	05800813          	li	a6,88
    80000e74:	01010823          	sb	a6,16(sp)
    80000e78:	00100993          	li	s3,1
    80000e7c:	bcdff06f          	j	80000a48 <_ntoa_long+0x2e8>
    80000e80:	06200b93          	li	s7,98
    80000e84:	01710823          	sb	s7,16(sp)
    80000e88:	00100993          	li	s3,1
    80000e8c:	bbdff06f          	j	80000a48 <_ntoa_long+0x2e8>
    80000e90:	00813d03          	ld	s10,8(sp)
    80000e94:	a60f1ce3          	bnez	t5,8000090c <_ntoa_long+0x1ac>
    80000e98:	bc5ff06f          	j	80000a5c <_ntoa_long+0x2fc>
    80000e9c:	020e7393          	andi	t2,t3,32
    80000ea0:	ffe78793          	addi	a5,a5,-2
    80000ea4:	f60396e3          	bnez	t2,80000e10 <_ntoa_long+0x6b0>
    80000ea8:	00f70933          	add	s2,a4,a5
    80000eac:	00098793          	mv	a5,s3
    80000eb0:	fa1ff06f          	j	80000e50 <_ntoa_long+0x6f0>

Disassembly of section .text._out_char:

0000000080000eb4 <_out_char>:
    80000eb4:	00051463          	bnez	a0,80000ebc <_out_char+0x8>
    80000eb8:	00008067          	ret
    80000ebc:	978ff06f          	j	80000034 <_putc>

Disassembly of section .text._ftoa:

0000000080000ec0 <_ftoa>:
    80000ec0:	a2a52353          	feq.d	t1,fa0,fa0
    80000ec4:	00080893          	mv	a7,a6
    80000ec8:	4a030863          	beqz	t1,80001378 <_ftoa+0x4b8>
    80000ecc:	00002817          	auipc	a6,0x2
    80000ed0:	45483787          	fld	fa5,1108(a6) # 80003320 <pow10.0+0x50>
    80000ed4:	a2f51853          	flt.d	a6,fa0,fa5
    80000ed8:	6e081c63          	bnez	a6,800015d0 <_ftoa+0x710>
    80000edc:	f8010113          	addi	sp,sp,-128
    80000ee0:	06813823          	sd	s0,112(sp)
    80000ee4:	00068413          	mv	s0,a3
    80000ee8:	00002697          	auipc	a3,0x2
    80000eec:	4406b007          	fld	ft0,1088(a3) # 80003328 <pow10.0+0x58>
    80000ef0:	a2a016d3          	flt.d	a3,ft0,fa0
    80000ef4:	06113c23          	sd	ra,120(sp)
    80000ef8:	06913423          	sd	s1,104(sp)
    80000efc:	07213023          	sd	s2,96(sp)
    80000f00:	05313c23          	sd	s3,88(sp)
    80000f04:	05413823          	sd	s4,80(sp)
    80000f08:	05513423          	sd	s5,72(sp)
    80000f0c:	05613023          	sd	s6,64(sp)
    80000f10:	03713c23          	sd	s7,56(sp)
    80000f14:	03813823          	sd	s8,48(sp)
    80000f18:	03913423          	sd	s9,40(sp)
    80000f1c:	03a13023          	sd	s10,32(sp)
    80000f20:	00050f93          	mv	t6,a0
    80000f24:	00058293          	mv	t0,a1
    80000f28:	00060393          	mv	t2,a2
    80000f2c:	3e069463          	bnez	a3,80001314 <_ftoa+0x454>
    80000f30:	00002697          	auipc	a3,0x2
    80000f34:	4006b087          	fld	ft1,1024(a3) # 80003330 <pow10.0+0x60>
    80000f38:	a2a090d3          	flt.d	ra,ft1,fa0
    80000f3c:	64009463          	bnez	ra,80001584 <_ftoa+0x6c4>
    80000f40:	00002697          	auipc	a3,0x2
    80000f44:	3f86b107          	fld	ft2,1016(a3) # 80003338 <pow10.0+0x68>
    80000f48:	a22514d3          	flt.d	s1,fa0,ft2
    80000f4c:	62049c63          	bnez	s1,80001584 <_ftoa+0x6c4>
    80000f50:	f20001d3          	fmv.d.x	ft3,zero
    80000f54:	00000513          	li	a0,0
    80000f58:	a23515d3          	flt.d	a1,fa0,ft3
    80000f5c:	60059663          	bnez	a1,80001568 <_ftoa+0x6a8>
    80000f60:	4008f613          	andi	a2,a7,1024
    80000f64:	00061463          	bnez	a2,80000f6c <_ftoa+0xac>
    80000f68:	00600713          	li	a4,6
    80000f6c:	00000313          	li	t1,0
    80000f70:	00900913          	li	s2,9
    80000f74:	03000993          	li	s3,48
    80000f78:	02000e13          	li	t3,32
    80000f7c:	0ae97463          	bgeu	s2,a4,80001024 <_ftoa+0x164>
    80000f80:	00130313          	addi	t1,t1,1
    80000f84:	00610a33          	add	s4,sp,t1
    80000f88:	ff3a0fa3          	sb	s3,-1(s4)
    80000f8c:	fff7071b          	addiw	a4,a4,-1
    80000f90:	00030a93          	mv	s5,t1
    80000f94:	08e97863          	bgeu	s2,a4,80001024 <_ftoa+0x164>
    80000f98:	00130313          	addi	t1,t1,1
    80000f9c:	00610b33          	add	s6,sp,t1
    80000fa0:	ff3b0fa3          	sb	s3,-1(s6)
    80000fa4:	fff7071b          	addiw	a4,a4,-1
    80000fa8:	06e97e63          	bgeu	s2,a4,80001024 <_ftoa+0x164>
    80000fac:	002a8313          	addi	t1,s5,2
    80000fb0:	00610bb3          	add	s7,sp,t1
    80000fb4:	ff3b8fa3          	sb	s3,-1(s7)
    80000fb8:	fff7071b          	addiw	a4,a4,-1
    80000fbc:	06e97463          	bgeu	s2,a4,80001024 <_ftoa+0x164>
    80000fc0:	003a8313          	addi	t1,s5,3
    80000fc4:	00610c33          	add	s8,sp,t1
    80000fc8:	ff3c0fa3          	sb	s3,-1(s8)
    80000fcc:	fff7071b          	addiw	a4,a4,-1
    80000fd0:	04e97a63          	bgeu	s2,a4,80001024 <_ftoa+0x164>
    80000fd4:	004a8313          	addi	t1,s5,4
    80000fd8:	00610cb3          	add	s9,sp,t1
    80000fdc:	ff3c8fa3          	sb	s3,-1(s9)
    80000fe0:	fff7071b          	addiw	a4,a4,-1
    80000fe4:	04e97063          	bgeu	s2,a4,80001024 <_ftoa+0x164>
    80000fe8:	005a8313          	addi	t1,s5,5
    80000fec:	00610d33          	add	s10,sp,t1
    80000ff0:	ff3d0fa3          	sb	s3,-1(s10)
    80000ff4:	fff7071b          	addiw	a4,a4,-1
    80000ff8:	02e97663          	bgeu	s2,a4,80001024 <_ftoa+0x164>
    80000ffc:	006a8313          	addi	t1,s5,6
    80001000:	00610eb3          	add	t4,sp,t1
    80001004:	ff3e8fa3          	sb	s3,-1(t4)
    80001008:	fff7071b          	addiw	a4,a4,-1
    8000100c:	00e97c63          	bgeu	s2,a4,80001024 <_ftoa+0x164>
    80001010:	007a8313          	addi	t1,s5,7
    80001014:	00610f33          	add	t5,sp,t1
    80001018:	ff3f0fa3          	sb	s3,-1(t5)
    8000101c:	fff7071b          	addiw	a4,a4,-1
    80001020:	f5c31ee3          	bne	t1,t3,80000f7c <_ftoa+0xbc>
    80001024:	c2051853          	fcvt.w.d	a6,fa0,rtz
    80001028:	02071693          	slli	a3,a4,0x20
    8000102c:	01d6d093          	srli	ra,a3,0x1d
    80001030:	d2080253          	fcvt.d.w	ft4,a6
    80001034:	00002497          	auipc	s1,0x2
    80001038:	29c48493          	addi	s1,s1,668 # 800032d0 <pow10.0>
    8000103c:	001485b3          	add	a1,s1,ra
    80001040:	0a4572d3          	fsub.d	ft5,fa0,ft4
    80001044:	0005b687          	fld	fa3,0(a1)
    80001048:	00002697          	auipc	a3,0x2
    8000104c:	2f86b707          	fld	fa4,760(a3) # 80003340 <pow10.0+0x70>
    80001050:	00080f1b          	sext.w	t5,a6
    80001054:	12d2f353          	fmul.d	ft6,ft5,fa3
    80001058:	c2331e53          	fcvt.lu.d	t3,ft6,rtz
    8000105c:	d23e7653          	fcvt.d.lu	fa2,t3
    80001060:	0ac373d3          	fsub.d	ft7,ft6,fa2
    80001064:	a2771653          	flt.d	a2,fa4,ft7
    80001068:	32060263          	beqz	a2,8000138c <_ftoa+0x4cc>
    8000106c:	001e0e13          	addi	t3,t3,1
    80001070:	d23e75d3          	fcvt.d.lu	fa1,t3
    80001074:	a2b68a53          	fle.d	s4,fa3,fa1
    80001078:	000a0663          	beqz	s4,80001084 <_ftoa+0x1c4>
    8000107c:	00180f1b          	addiw	t5,a6,1
    80001080:	00000e13          	li	t3,0
    80001084:	30071e63          	bnez	a4,800013a0 <_ftoa+0x4e0>
    80001088:	d20f0853          	fcvt.d.w	fa6,t5
    8000108c:	0b057553          	fsub.d	fa0,fa0,fa6
    80001090:	a2e516d3          	flt.d	a3,fa0,fa4
    80001094:	4e068063          	beqz	a3,80001574 <_ftoa+0x6b4>
    80001098:	a2a71653          	flt.d	a2,fa4,fa0
    8000109c:	4c061c63          	bnez	a2,80001574 <_ftoa+0x6b4>
    800010a0:	02000813          	li	a6,32
    800010a4:	40680e33          	sub	t3,a6,t1
    800010a8:	007e7093          	andi	ra,t3,7
    800010ac:	00a00e93          	li	t4,10
    800010b0:	0e008c63          	beqz	ra,800011a8 <_ftoa+0x2e8>
    800010b4:	03df693b          	remw	s2,t5,t4
    800010b8:	00130313          	addi	t1,t1,1
    800010bc:	006109b3          	add	s3,sp,t1
    800010c0:	03df4f3b          	divw	t5,t5,t4
    800010c4:	03090a1b          	addiw	s4,s2,48
    800010c8:	ff498fa3          	sb	s4,-1(s3)
    800010cc:	1c0f0263          	beqz	t5,80001290 <_ftoa+0x3d0>
    800010d0:	00100a93          	li	s5,1
    800010d4:	0d508a63          	beq	ra,s5,800011a8 <_ftoa+0x2e8>
    800010d8:	00200b13          	li	s6,2
    800010dc:	0b608863          	beq	ra,s6,8000118c <_ftoa+0x2cc>
    800010e0:	00300b93          	li	s7,3
    800010e4:	09708663          	beq	ra,s7,80001170 <_ftoa+0x2b0>
    800010e8:	00400c13          	li	s8,4
    800010ec:	07808463          	beq	ra,s8,80001154 <_ftoa+0x294>
    800010f0:	00500d13          	li	s10,5
    800010f4:	05a08263          	beq	ra,s10,80001138 <_ftoa+0x278>
    800010f8:	00600493          	li	s1,6
    800010fc:	02908063          	beq	ra,s1,8000111c <_ftoa+0x25c>
    80001100:	03df6cbb          	remw	s9,t5,t4
    80001104:	00130313          	addi	t1,t1,1
    80001108:	00610733          	add	a4,sp,t1
    8000110c:	03df4f3b          	divw	t5,t5,t4
    80001110:	030c869b          	addiw	a3,s9,48
    80001114:	fed70fa3          	sb	a3,-1(a4)
    80001118:	160f0c63          	beqz	t5,80001290 <_ftoa+0x3d0>
    8000111c:	03df65bb          	remw	a1,t5,t4
    80001120:	00130313          	addi	t1,t1,1
    80001124:	00610633          	add	a2,sp,t1
    80001128:	03df4f3b          	divw	t5,t5,t4
    8000112c:	03058e1b          	addiw	t3,a1,48
    80001130:	ffc60fa3          	sb	t3,-1(a2)
    80001134:	140f0e63          	beqz	t5,80001290 <_ftoa+0x3d0>
    80001138:	03df60bb          	remw	ra,t5,t4
    8000113c:	00130313          	addi	t1,t1,1
    80001140:	00610933          	add	s2,sp,t1
    80001144:	03df4f3b          	divw	t5,t5,t4
    80001148:	0300899b          	addiw	s3,ra,48
    8000114c:	ff390fa3          	sb	s3,-1(s2)
    80001150:	140f0063          	beqz	t5,80001290 <_ftoa+0x3d0>
    80001154:	03df6a3b          	remw	s4,t5,t4
    80001158:	00130313          	addi	t1,t1,1
    8000115c:	00610ab3          	add	s5,sp,t1
    80001160:	03df4f3b          	divw	t5,t5,t4
    80001164:	030a0b1b          	addiw	s6,s4,48
    80001168:	ff6a8fa3          	sb	s6,-1(s5)
    8000116c:	120f0263          	beqz	t5,80001290 <_ftoa+0x3d0>
    80001170:	03df6bbb          	remw	s7,t5,t4
    80001174:	00130313          	addi	t1,t1,1
    80001178:	00610c33          	add	s8,sp,t1
    8000117c:	03df4f3b          	divw	t5,t5,t4
    80001180:	030b8d1b          	addiw	s10,s7,48
    80001184:	ffac0fa3          	sb	s10,-1(s8)
    80001188:	100f0463          	beqz	t5,80001290 <_ftoa+0x3d0>
    8000118c:	03df64bb          	remw	s1,t5,t4
    80001190:	00130313          	addi	t1,t1,1
    80001194:	00610cb3          	add	s9,sp,t1
    80001198:	03df4f3b          	divw	t5,t5,t4
    8000119c:	0304871b          	addiw	a4,s1,48
    800011a0:	feec8fa3          	sb	a4,-1(s9)
    800011a4:	0e0f0663          	beqz	t5,80001290 <_ftoa+0x3d0>
    800011a8:	23030e63          	beq	t1,a6,800013e4 <_ftoa+0x524>
    800011ac:	03df46bb          	divw	a3,t5,t4
    800011b0:	00130313          	addi	t1,t1,1
    800011b4:	00610633          	add	a2,sp,t1
    800011b8:	00030593          	mv	a1,t1
    800011bc:	03df6e3b          	remw	t3,t5,t4
    800011c0:	030e009b          	addiw	ra,t3,48
    800011c4:	fe160fa3          	sb	ra,-1(a2)
    800011c8:	0c068463          	beqz	a3,80001290 <_ftoa+0x3d0>
    800011cc:	03d6c93b          	divw	s2,a3,t4
    800011d0:	00130313          	addi	t1,t1,1
    800011d4:	006109b3          	add	s3,sp,t1
    800011d8:	03d6ea3b          	remw	s4,a3,t4
    800011dc:	030a0a9b          	addiw	s5,s4,48
    800011e0:	ff598fa3          	sb	s5,-1(s3)
    800011e4:	0a090663          	beqz	s2,80001290 <_ftoa+0x3d0>
    800011e8:	03d94b3b          	divw	s6,s2,t4
    800011ec:	00258313          	addi	t1,a1,2
    800011f0:	00610bb3          	add	s7,sp,t1
    800011f4:	03d96c3b          	remw	s8,s2,t4
    800011f8:	030c0d1b          	addiw	s10,s8,48
    800011fc:	ffab8fa3          	sb	s10,-1(s7)
    80001200:	080b0863          	beqz	s6,80001290 <_ftoa+0x3d0>
    80001204:	03db44bb          	divw	s1,s6,t4
    80001208:	00358313          	addi	t1,a1,3
    8000120c:	00610cb3          	add	s9,sp,t1
    80001210:	03db673b          	remw	a4,s6,t4
    80001214:	03070f1b          	addiw	t5,a4,48
    80001218:	ffec8fa3          	sb	t5,-1(s9)
    8000121c:	06048a63          	beqz	s1,80001290 <_ftoa+0x3d0>
    80001220:	03d4c6bb          	divw	a3,s1,t4
    80001224:	00458313          	addi	t1,a1,4
    80001228:	00610e33          	add	t3,sp,t1
    8000122c:	03d4e63b          	remw	a2,s1,t4
    80001230:	0306009b          	addiw	ra,a2,48
    80001234:	fe1e0fa3          	sb	ra,-1(t3)
    80001238:	04068c63          	beqz	a3,80001290 <_ftoa+0x3d0>
    8000123c:	03d6c93b          	divw	s2,a3,t4
    80001240:	00558313          	addi	t1,a1,5
    80001244:	006109b3          	add	s3,sp,t1
    80001248:	03d6ea3b          	remw	s4,a3,t4
    8000124c:	030a0a9b          	addiw	s5,s4,48
    80001250:	ff598fa3          	sb	s5,-1(s3)
    80001254:	02090e63          	beqz	s2,80001290 <_ftoa+0x3d0>
    80001258:	03d94b3b          	divw	s6,s2,t4
    8000125c:	00658313          	addi	t1,a1,6
    80001260:	00610bb3          	add	s7,sp,t1
    80001264:	03d96c3b          	remw	s8,s2,t4
    80001268:	030c0d1b          	addiw	s10,s8,48
    8000126c:	ffab8fa3          	sb	s10,-1(s7)
    80001270:	020b0063          	beqz	s6,80001290 <_ftoa+0x3d0>
    80001274:	03db4f3b          	divw	t5,s6,t4
    80001278:	00758313          	addi	t1,a1,7
    8000127c:	006105b3          	add	a1,sp,t1
    80001280:	03db64bb          	remw	s1,s6,t4
    80001284:	03048c9b          	addiw	s9,s1,48
    80001288:	ff958fa3          	sb	s9,-1(a1)
    8000128c:	f00f1ee3          	bnez	t5,800011a8 <_ftoa+0x2e8>
    80001290:	0038fe93          	andi	t4,a7,3
    80001294:	00100813          	li	a6,1
    80001298:	150e8c63          	beq	t4,a6,800013f0 <_ftoa+0x530>
    8000129c:	01f00e13          	li	t3,31
    800012a0:	006e6e63          	bltu	t3,t1,800012bc <_ftoa+0x3fc>
    800012a4:	34050063          	beqz	a0,800015e4 <_ftoa+0x724>
    800012a8:	02010593          	addi	a1,sp,32
    800012ac:	006584b3          	add	s1,a1,t1
    800012b0:	02d00c93          	li	s9,45
    800012b4:	ff948023          	sb	s9,-32(s1)
    800012b8:	00130313          	addi	t1,t1,1
    800012bc:	00078813          	mv	a6,a5
    800012c0:	00010713          	mv	a4,sp
    800012c4:	00040693          	mv	a3,s0
    800012c8:	00030793          	mv	a5,t1
    800012cc:	00038613          	mv	a2,t2
    800012d0:	00028593          	mv	a1,t0
    800012d4:	000f8513          	mv	a0,t6
    800012d8:	e99fe0ef          	jal	ra,80000170 <_out_rev>
    800012dc:	07813083          	ld	ra,120(sp)
    800012e0:	07013403          	ld	s0,112(sp)
    800012e4:	06813483          	ld	s1,104(sp)
    800012e8:	06013903          	ld	s2,96(sp)
    800012ec:	05813983          	ld	s3,88(sp)
    800012f0:	05013a03          	ld	s4,80(sp)
    800012f4:	04813a83          	ld	s5,72(sp)
    800012f8:	04013b03          	ld	s6,64(sp)
    800012fc:	03813b83          	ld	s7,56(sp)
    80001300:	03013c03          	ld	s8,48(sp)
    80001304:	02813c83          	ld	s9,40(sp)
    80001308:	02013d03          	ld	s10,32(sp)
    8000130c:	08010113          	addi	sp,sp,128
    80001310:	00008067          	ret
    80001314:	0048f313          	andi	t1,a7,4
    80001318:	24031063          	bnez	t1,80001558 <_ftoa+0x698>
    8000131c:	00002717          	auipc	a4,0x2
    80001320:	db470713          	addi	a4,a4,-588 # 800030d0 <__am_mainargs+0x3>
    80001324:	00300513          	li	a0,3
    80001328:	00040693          	mv	a3,s0
    8000132c:	07013403          	ld	s0,112(sp)
    80001330:	07813083          	ld	ra,120(sp)
    80001334:	06813483          	ld	s1,104(sp)
    80001338:	06013903          	ld	s2,96(sp)
    8000133c:	05813983          	ld	s3,88(sp)
    80001340:	05013a03          	ld	s4,80(sp)
    80001344:	04813a83          	ld	s5,72(sp)
    80001348:	04013b03          	ld	s6,64(sp)
    8000134c:	03813b83          	ld	s7,56(sp)
    80001350:	03013c03          	ld	s8,48(sp)
    80001354:	02813c83          	ld	s9,40(sp)
    80001358:	02013d03          	ld	s10,32(sp)
    8000135c:	00078813          	mv	a6,a5
    80001360:	00050793          	mv	a5,a0
    80001364:	00038613          	mv	a2,t2
    80001368:	00028593          	mv	a1,t0
    8000136c:	000f8513          	mv	a0,t6
    80001370:	08010113          	addi	sp,sp,128
    80001374:	dfdfe06f          	j	80000170 <_out_rev>
    80001378:	00078813          	mv	a6,a5
    8000137c:	00002717          	auipc	a4,0x2
    80001380:	d6470713          	addi	a4,a4,-668 # 800030e0 <__am_mainargs+0x13>
    80001384:	00300793          	li	a5,3
    80001388:	de9fe06f          	j	80000170 <_out_rev>
    8000138c:	a2e39953          	flt.d	s2,ft7,fa4
    80001390:	ce091ae3          	bnez	s2,80001084 <_ftoa+0x1c4>
    80001394:	400e1263          	bnez	t3,80001798 <_ftoa+0x8d8>
    80001398:	001e0e13          	addi	t3,t3,1
    8000139c:	ce0706e3          	beqz	a4,80001088 <_ftoa+0x1c8>
    800013a0:	fe070a9b          	addiw	s5,a4,-32
    800013a4:	006a8bbb          	addw	s7,s5,t1
    800013a8:	00a00c93          	li	s9,10
    800013ac:	00900c13          	li	s8,9
    800013b0:	0280006f          	j	800013d8 <_ftoa+0x518>
    800013b4:	039e7d33          	remu	s10,t3,s9
    800013b8:	fff7009b          	addiw	ra,a4,-1
    800013bc:	030d081b          	addiw	a6,s10,48
    800013c0:	ff0b0fa3          	sb	a6,-1(s6)
    800013c4:	039e56b3          	divu	a3,t3,s9
    800013c8:	25cc7263          	bgeu	s8,t3,8000160c <_ftoa+0x74c>
    800013cc:	00008713          	mv	a4,ra
    800013d0:	000e8313          	mv	t1,t4
    800013d4:	00068e13          	mv	t3,a3
    800013d8:	00130e93          	addi	t4,t1,1
    800013dc:	01d10b33          	add	s6,sp,t4
    800013e0:	fd771ae3          	bne	a4,s7,800013b4 <_ftoa+0x4f4>
    800013e4:	0038ff13          	andi	t5,a7,3
    800013e8:	00100813          	li	a6,1
    800013ec:	ed0f18e3          	bne	t5,a6,800012bc <_ftoa+0x3fc>
    800013f0:	ea0786e3          	beqz	a5,8000129c <_ftoa+0x3dc>
    800013f4:	3a051a63          	bnez	a0,800017a8 <_ftoa+0x8e8>
    800013f8:	00c8f713          	andi	a4,a7,12
    800013fc:	3a071663          	bnez	a4,800017a8 <_ftoa+0x8e8>
    80001400:	02079693          	slli	a3,a5,0x20
    80001404:	0206de13          	srli	t3,a3,0x20
    80001408:	e9c37ae3          	bgeu	t1,t3,8000129c <_ftoa+0x3dc>
    8000140c:	01f00613          	li	a2,31
    80001410:	ea6666e3          	bltu	a2,t1,800012bc <_ftoa+0x3fc>
    80001414:	fff34093          	not	ra,t1
    80001418:	01c08933          	add	s2,ra,t3
    8000141c:	00797993          	andi	s3,s2,7
    80001420:	03000a13          	li	s4,48
    80001424:	02000a93          	li	s5,32
    80001428:	0a098263          	beqz	s3,800014cc <_ftoa+0x60c>
    8000142c:	00130313          	addi	t1,t1,1
    80001430:	00610b33          	add	s6,sp,t1
    80001434:	ff4b0fa3          	sb	s4,-1(s6)
    80001438:	e95302e3          	beq	t1,s5,800012bc <_ftoa+0x3fc>
    8000143c:	00100b93          	li	s7,1
    80001440:	09798663          	beq	s3,s7,800014cc <_ftoa+0x60c>
    80001444:	00200c13          	li	s8,2
    80001448:	07898a63          	beq	s3,s8,800014bc <_ftoa+0x5fc>
    8000144c:	00300d13          	li	s10,3
    80001450:	05a98e63          	beq	s3,s10,800014ac <_ftoa+0x5ec>
    80001454:	00400f13          	li	t5,4
    80001458:	05e98263          	beq	s3,t5,8000149c <_ftoa+0x5dc>
    8000145c:	00500593          	li	a1,5
    80001460:	02b98663          	beq	s3,a1,8000148c <_ftoa+0x5cc>
    80001464:	00600493          	li	s1,6
    80001468:	00998a63          	beq	s3,s1,8000147c <_ftoa+0x5bc>
    8000146c:	00130313          	addi	t1,t1,1
    80001470:	00610cb3          	add	s9,sp,t1
    80001474:	ff4c8fa3          	sb	s4,-1(s9)
    80001478:	e55302e3          	beq	t1,s5,800012bc <_ftoa+0x3fc>
    8000147c:	00130313          	addi	t1,t1,1
    80001480:	00610eb3          	add	t4,sp,t1
    80001484:	ff4e8fa3          	sb	s4,-1(t4)
    80001488:	e3530ae3          	beq	t1,s5,800012bc <_ftoa+0x3fc>
    8000148c:	00130313          	addi	t1,t1,1
    80001490:	00610833          	add	a6,sp,t1
    80001494:	ff480fa3          	sb	s4,-1(a6)
    80001498:	e35302e3          	beq	t1,s5,800012bc <_ftoa+0x3fc>
    8000149c:	00130313          	addi	t1,t1,1
    800014a0:	00610733          	add	a4,sp,t1
    800014a4:	ff470fa3          	sb	s4,-1(a4)
    800014a8:	e1530ae3          	beq	t1,s5,800012bc <_ftoa+0x3fc>
    800014ac:	00130313          	addi	t1,t1,1
    800014b0:	006106b3          	add	a3,sp,t1
    800014b4:	ff468fa3          	sb	s4,-1(a3)
    800014b8:	e15302e3          	beq	t1,s5,800012bc <_ftoa+0x3fc>
    800014bc:	00130313          	addi	t1,t1,1
    800014c0:	00610633          	add	a2,sp,t1
    800014c4:	ff460fa3          	sb	s4,-1(a2)
    800014c8:	df530ae3          	beq	t1,s5,800012bc <_ftoa+0x3fc>
    800014cc:	00130313          	addi	t1,t1,1
    800014d0:	006100b3          	add	ra,sp,t1
    800014d4:	ff408fa3          	sb	s4,-1(ra)
    800014d8:	00030913          	mv	s2,t1
    800014dc:	ddc300e3          	beq	t1,t3,8000129c <_ftoa+0x3dc>
    800014e0:	dd530ee3          	beq	t1,s5,800012bc <_ftoa+0x3fc>
    800014e4:	00130313          	addi	t1,t1,1
    800014e8:	00610eb3          	add	t4,sp,t1
    800014ec:	ff4e8fa3          	sb	s4,-1(t4)
    800014f0:	dd5306e3          	beq	t1,s5,800012bc <_ftoa+0x3fc>
    800014f4:	00290313          	addi	t1,s2,2
    800014f8:	00610833          	add	a6,sp,t1
    800014fc:	ff480fa3          	sb	s4,-1(a6)
    80001500:	db530ee3          	beq	t1,s5,800012bc <_ftoa+0x3fc>
    80001504:	00390313          	addi	t1,s2,3
    80001508:	00610733          	add	a4,sp,t1
    8000150c:	ff470fa3          	sb	s4,-1(a4)
    80001510:	db5306e3          	beq	t1,s5,800012bc <_ftoa+0x3fc>
    80001514:	00490313          	addi	t1,s2,4
    80001518:	006106b3          	add	a3,sp,t1
    8000151c:	ff468fa3          	sb	s4,-1(a3)
    80001520:	d9530ee3          	beq	t1,s5,800012bc <_ftoa+0x3fc>
    80001524:	00590313          	addi	t1,s2,5
    80001528:	00610633          	add	a2,sp,t1
    8000152c:	ff460fa3          	sb	s4,-1(a2)
    80001530:	d95306e3          	beq	t1,s5,800012bc <_ftoa+0x3fc>
    80001534:	00690313          	addi	t1,s2,6
    80001538:	006100b3          	add	ra,sp,t1
    8000153c:	ff408fa3          	sb	s4,-1(ra)
    80001540:	d7530ee3          	beq	t1,s5,800012bc <_ftoa+0x3fc>
    80001544:	00790313          	addi	t1,s2,7
    80001548:	00610933          	add	s2,sp,t1
    8000154c:	ff490fa3          	sb	s4,-1(s2)
    80001550:	f7531ee3          	bne	t1,s5,800014cc <_ftoa+0x60c>
    80001554:	d69ff06f          	j	800012bc <_ftoa+0x3fc>
    80001558:	00002717          	auipc	a4,0x2
    8000155c:	b8070713          	addi	a4,a4,-1152 # 800030d8 <__am_mainargs+0xb>
    80001560:	00400513          	li	a0,4
    80001564:	dc5ff06f          	j	80001328 <_ftoa+0x468>
    80001568:	0aa1f553          	fsub.d	fa0,ft3,fa0
    8000156c:	00100513          	li	a0,1
    80001570:	9f1ff06f          	j	80000f60 <_ftoa+0xa0>
    80001574:	001f7593          	andi	a1,t5,1
    80001578:	b20584e3          	beqz	a1,800010a0 <_ftoa+0x1e0>
    8000157c:	001f0f1b          	addiw	t5,t5,1
    80001580:	b21ff06f          	j	800010a0 <_ftoa+0x1e0>
    80001584:	00040693          	mv	a3,s0
    80001588:	07013403          	ld	s0,112(sp)
    8000158c:	07813083          	ld	ra,120(sp)
    80001590:	06813483          	ld	s1,104(sp)
    80001594:	06013903          	ld	s2,96(sp)
    80001598:	05813983          	ld	s3,88(sp)
    8000159c:	05013a03          	ld	s4,80(sp)
    800015a0:	04813a83          	ld	s5,72(sp)
    800015a4:	04013b03          	ld	s6,64(sp)
    800015a8:	03813b83          	ld	s7,56(sp)
    800015ac:	03013c03          	ld	s8,48(sp)
    800015b0:	02813c83          	ld	s9,40(sp)
    800015b4:	02013d03          	ld	s10,32(sp)
    800015b8:	00088813          	mv	a6,a7
    800015bc:	00038613          	mv	a2,t2
    800015c0:	00028593          	mv	a1,t0
    800015c4:	000f8513          	mv	a0,t6
    800015c8:	08010113          	addi	sp,sp,128
    800015cc:	1ec0006f          	j	800017b8 <_etoa>
    800015d0:	00078813          	mv	a6,a5
    800015d4:	00002717          	auipc	a4,0x2
    800015d8:	b1470713          	addi	a4,a4,-1260 # 800030e8 <__am_mainargs+0x1b>
    800015dc:	00400793          	li	a5,4
    800015e0:	b91fe06f          	j	80000170 <_out_rev>
    800015e4:	0048f993          	andi	s3,a7,4
    800015e8:	18099c63          	bnez	s3,80001780 <_ftoa+0x8c0>
    800015ec:	0088fa13          	andi	s4,a7,8
    800015f0:	cc0a06e3          	beqz	s4,800012bc <_ftoa+0x3fc>
    800015f4:	02010a93          	addi	s5,sp,32
    800015f8:	006a8b33          	add	s6,s5,t1
    800015fc:	02000b93          	li	s7,32
    80001600:	ff7b0023          	sb	s7,-32(s6)
    80001604:	00130313          	addi	t1,t1,1
    80001608:	cb5ff06f          	j	800012bc <_ftoa+0x3fc>
    8000160c:	02000493          	li	s1,32
    80001610:	1a9e8063          	beq	t4,s1,800017b0 <_ftoa+0x8f0>
    80001614:	ffe7059b          	addiw	a1,a4,-2
    80001618:	000e8713          	mv	a4,t4
    8000161c:	14008663          	beqz	ra,80001768 <_ftoa+0x8a8>
    80001620:	fffec913          	not	s2,t4
    80001624:	02059613          	slli	a2,a1,0x20
    80001628:	00230713          	addi	a4,t1,2
    8000162c:	02065993          	srli	s3,a2,0x20
    80001630:	00797a13          	andi	s4,s2,7
    80001634:	01370733          	add	a4,a4,s3
    80001638:	03000493          	li	s1,48
    8000163c:	02000c93          	li	s9,32
    80001640:	0a0a0263          	beqz	s4,800016e4 <_ftoa+0x824>
    80001644:	00230e93          	addi	t4,t1,2
    80001648:	01d10333          	add	t1,sp,t4
    8000164c:	fe930fa3          	sb	s1,-1(t1)
    80001650:	10ee8c63          	beq	t4,a4,80001768 <_ftoa+0x8a8>
    80001654:	00100a93          	li	s5,1
    80001658:	095a0663          	beq	s4,s5,800016e4 <_ftoa+0x824>
    8000165c:	00200b13          	li	s6,2
    80001660:	076a0a63          	beq	s4,s6,800016d4 <_ftoa+0x814>
    80001664:	00300b93          	li	s7,3
    80001668:	057a0e63          	beq	s4,s7,800016c4 <_ftoa+0x804>
    8000166c:	00400c13          	li	s8,4
    80001670:	058a0263          	beq	s4,s8,800016b4 <_ftoa+0x7f4>
    80001674:	00500d13          	li	s10,5
    80001678:	03aa0663          	beq	s4,s10,800016a4 <_ftoa+0x7e4>
    8000167c:	00600093          	li	ra,6
    80001680:	001a0a63          	beq	s4,ra,80001694 <_ftoa+0x7d4>
    80001684:	001e8e93          	addi	t4,t4,1
    80001688:	01d10833          	add	a6,sp,t4
    8000168c:	fe980fa3          	sb	s1,-1(a6)
    80001690:	0cee8c63          	beq	t4,a4,80001768 <_ftoa+0x8a8>
    80001694:	001e8e93          	addi	t4,t4,1
    80001698:	01d106b3          	add	a3,sp,t4
    8000169c:	fe968fa3          	sb	s1,-1(a3)
    800016a0:	0cee8463          	beq	t4,a4,80001768 <_ftoa+0x8a8>
    800016a4:	001e8e93          	addi	t4,t4,1
    800016a8:	01d10e33          	add	t3,sp,t4
    800016ac:	fe9e0fa3          	sb	s1,-1(t3)
    800016b0:	0aee8c63          	beq	t4,a4,80001768 <_ftoa+0x8a8>
    800016b4:	001e8e93          	addi	t4,t4,1
    800016b8:	01d105b3          	add	a1,sp,t4
    800016bc:	fe958fa3          	sb	s1,-1(a1)
    800016c0:	0aee8463          	beq	t4,a4,80001768 <_ftoa+0x8a8>
    800016c4:	001e8e93          	addi	t4,t4,1
    800016c8:	01d10933          	add	s2,sp,t4
    800016cc:	fe990fa3          	sb	s1,-1(s2)
    800016d0:	08ee8c63          	beq	t4,a4,80001768 <_ftoa+0x8a8>
    800016d4:	001e8e93          	addi	t4,t4,1
    800016d8:	01d10633          	add	a2,sp,t4
    800016dc:	fe960fa3          	sb	s1,-1(a2)
    800016e0:	08ee8463          	beq	t4,a4,80001768 <_ftoa+0x8a8>
    800016e4:	001e8693          	addi	a3,t4,1
    800016e8:	00d10933          	add	s2,sp,a3
    800016ec:	002e8613          	addi	a2,t4,2
    800016f0:	003e8593          	addi	a1,t4,3
    800016f4:	004e8813          	addi	a6,t4,4
    800016f8:	005e8313          	addi	t1,t4,5
    800016fc:	006e8e13          	addi	t3,t4,6
    80001700:	007e8093          	addi	ra,t4,7
    80001704:	fe990fa3          	sb	s1,-1(s2)
    80001708:	008e8e93          	addi	t4,t4,8
    8000170c:	00c109b3          	add	s3,sp,a2
    80001710:	00b10a33          	add	s4,sp,a1
    80001714:	01010ab3          	add	s5,sp,a6
    80001718:	00610b33          	add	s6,sp,t1
    8000171c:	01c10bb3          	add	s7,sp,t3
    80001720:	00110c33          	add	s8,sp,ra
    80001724:	01d10d33          	add	s10,sp,t4
    80001728:	09968463          	beq	a3,s9,800017b0 <_ftoa+0x8f0>
    8000172c:	02e68e63          	beq	a3,a4,80001768 <_ftoa+0x8a8>
    80001730:	fe998fa3          	sb	s1,-1(s3)
    80001734:	02e60a63          	beq	a2,a4,80001768 <_ftoa+0x8a8>
    80001738:	fe9a0fa3          	sb	s1,-1(s4)
    8000173c:	02e58663          	beq	a1,a4,80001768 <_ftoa+0x8a8>
    80001740:	fe9a8fa3          	sb	s1,-1(s5)
    80001744:	02e80263          	beq	a6,a4,80001768 <_ftoa+0x8a8>
    80001748:	fe9b0fa3          	sb	s1,-1(s6)
    8000174c:	00e30e63          	beq	t1,a4,80001768 <_ftoa+0x8a8>
    80001750:	fe9b8fa3          	sb	s1,-1(s7)
    80001754:	00ee0a63          	beq	t3,a4,80001768 <_ftoa+0x8a8>
    80001758:	fe9c0fa3          	sb	s1,-1(s8)
    8000175c:	00e08663          	beq	ra,a4,80001768 <_ftoa+0x8a8>
    80001760:	fe9d0fa3          	sb	s1,-1(s10)
    80001764:	f8ee90e3          	bne	t4,a4,800016e4 <_ftoa+0x824>
    80001768:	02010493          	addi	s1,sp,32
    8000176c:	00e48cb3          	add	s9,s1,a4
    80001770:	00170313          	addi	t1,a4,1
    80001774:	02e00713          	li	a4,46
    80001778:	feec8023          	sb	a4,-32(s9)
    8000177c:	925ff06f          	j	800010a0 <_ftoa+0x1e0>
    80001780:	02010c13          	addi	s8,sp,32
    80001784:	006c0d33          	add	s10,s8,t1
    80001788:	02b00f13          	li	t5,43
    8000178c:	ffed0023          	sb	t5,-32(s10)
    80001790:	00130313          	addi	t1,t1,1
    80001794:	b29ff06f          	j	800012bc <_ftoa+0x3fc>
    80001798:	001e7993          	andi	s3,t3,1
    8000179c:	8e0984e3          	beqz	s3,80001084 <_ftoa+0x1c4>
    800017a0:	001e0e13          	addi	t3,t3,1
    800017a4:	bf9ff06f          	j	8000139c <_ftoa+0x4dc>
    800017a8:	fff7879b          	addiw	a5,a5,-1
    800017ac:	c55ff06f          	j	80001400 <_ftoa+0x540>
    800017b0:	02000313          	li	t1,32
    800017b4:	c31ff06f          	j	800013e4 <_ftoa+0x524>

Disassembly of section .text._etoa:

00000000800017b8 <_etoa>:
    800017b8:	a2a528d3          	feq.d	a7,fa0,fa0
    800017bc:	f9010113          	addi	sp,sp,-112
    800017c0:	06813023          	sd	s0,96(sp)
    800017c4:	05213823          	sd	s2,80(sp)
    800017c8:	05313423          	sd	s3,72(sp)
    800017cc:	05413023          	sd	s4,64(sp)
    800017d0:	03513c23          	sd	s5,56(sp)
    800017d4:	03613823          	sd	s6,48(sp)
    800017d8:	06113423          	sd	ra,104(sp)
    800017dc:	04913c23          	sd	s1,88(sp)
    800017e0:	03713423          	sd	s7,40(sp)
    800017e4:	03813023          	sd	s8,32(sp)
    800017e8:	01913c23          	sd	s9,24(sp)
    800017ec:	00050993          	mv	s3,a0
    800017f0:	00058a13          	mv	s4,a1
    800017f4:	00060913          	mv	s2,a2
    800017f8:	00068a93          	mv	s5,a3
    800017fc:	00078b13          	mv	s6,a5
    80001800:	00080413          	mv	s0,a6
    80001804:	48088c63          	beqz	a7,80001c9c <_etoa+0x4e4>
    80001808:	00002797          	auipc	a5,0x2
    8000180c:	b207b787          	fld	fa5,-1248(a5) # 80003328 <pow10.0+0x58>
    80001810:	a2a797d3          	flt.d	a5,fa5,fa0
    80001814:	48079463          	bnez	a5,80001c9c <_etoa+0x4e4>
    80001818:	00002797          	auipc	a5,0x2
    8000181c:	b087b007          	fld	ft0,-1272(a5) # 80003320 <pow10.0+0x50>
    80001820:	a20510d3          	flt.d	ra,fa0,ft0
    80001824:	46009c63          	bnez	ra,80001c9c <_etoa+0x4e4>
    80001828:	f20000d3          	fmv.d.x	ft1,zero
    8000182c:	e20506d3          	fmv.x.d	a3,fa0
    80001830:	a21512d3          	flt.d	t0,fa0,ft1
    80001834:	00028663          	beqz	t0,80001840 <_etoa+0x88>
    80001838:	22a51153          	fneg.d	ft2,fa0
    8000183c:	e20106d3          	fmv.x.d	a3,ft2
    80001840:	40047613          	andi	a2,s0,1024
    80001844:	00061463          	bnez	a2,8000184c <_etoa+0x94>
    80001848:	00600713          	li	a4,6
    8000184c:	00002597          	auipc	a1,0x2
    80001850:	afc5b707          	fld	fa4,-1284(a1) # 80003348 <pow10.0+0x78>
    80001854:	00002597          	auipc	a1,0x2
    80001858:	afc5b187          	fld	ft3,-1284(a1) # 80003350 <pow10.0+0x80>
    8000185c:	3ff00593          	li	a1,1023
    80001860:	0346d313          	srli	t1,a3,0x34
    80001864:	00c69513          	slli	a0,a3,0xc
    80001868:	03459b93          	slli	s7,a1,0x34
    8000186c:	7ff37393          	andi	t2,t1,2047
    80001870:	00c55813          	srli	a6,a0,0xc
    80001874:	01786c33          	or	s8,a6,s7
    80001878:	c013849b          	addiw	s1,t2,-1023
    8000187c:	f20c0253          	fmv.d.x	ft4,s8
    80001880:	d2048653          	fcvt.d.w	fa2,s1
    80001884:	00002597          	auipc	a1,0x2
    80001888:	ad45b687          	fld	fa3,-1324(a1) # 80003358 <pow10.0+0x88>
    8000188c:	0ad273d3          	fsub.d	ft7,ft4,fa3
    80001890:	1ae67343          	fmadd.d	ft6,fa2,fa4,ft3
    80001894:	00002797          	auipc	a5,0x2
    80001898:	acc7b807          	fld	fa6,-1332(a5) # 80003360 <pow10.0+0x90>
    8000189c:	00002797          	auipc	a5,0x2
    800018a0:	acc7b587          	fld	fa1,-1332(a5) # 80003368 <pow10.0+0x98>
    800018a4:	00002797          	auipc	a5,0x2
    800018a8:	a9c7b287          	fld	ft5,-1380(a5) # 80003340 <pow10.0+0x70>
    800018ac:	00002797          	auipc	a5,0x2
    800018b0:	ac47b887          	fld	fa7,-1340(a5) # 80003370 <pow10.0+0xa0>
    800018b4:	00002797          	auipc	a5,0x2
    800018b8:	ac47be07          	fld	ft8,-1340(a5) # 80003378 <pow10.0+0xa8>
    800018bc:	00002797          	auipc	a5,0x2
    800018c0:	ac47be87          	fld	ft9,-1340(a5) # 80003380 <pow10.0+0xb0>
    800018c4:	3303ff43          	fmadd.d	ft10,ft7,fa6,ft6
    800018c8:	00002797          	auipc	a5,0x2
    800018cc:	ac07bf87          	fld	ft11,-1344(a5) # 80003388 <pow10.0+0xb8>
    800018d0:	00002797          	auipc	a5,0x2
    800018d4:	ac07b007          	fld	ft0,-1344(a5) # 80003390 <pow10.0+0xc0>
    800018d8:	00002797          	auipc	a5,0x2
    800018dc:	ac07b107          	fld	ft2,-1344(a5) # 80003398 <pow10.0+0xc8>
    800018e0:	00002797          	auipc	a5,0x2
    800018e4:	ac07b087          	fld	ft1,-1344(a5) # 800033a0 <pow10.0+0xd0>
    800018e8:	c20f1cd3          	fcvt.w.d	s9,ft10,rtz
    800018ec:	d20c87d3          	fcvt.d.w	fa5,s9
    800018f0:	000c8c1b          	sext.w	s8,s9
    800018f4:	2ab7f643          	fmadd.d	fa2,fa5,fa1,ft5
    800018f8:	c2061e53          	fcvt.w.d	t3,fa2,rtz
    800018fc:	d20e0753          	fcvt.d.w	fa4,t3
    80001900:	3ffe0e9b          	addiw	t4,t3,1023
    80001904:	034e9f13          	slli	t5,t4,0x34
    80001908:	131771d3          	fmul.d	ft3,fa4,fa7
    8000190c:	1bc7f347          	fmsub.d	ft6,fa5,ft8,ft3
    80001910:	126376d3          	fmul.d	fa3,ft6,ft6
    80001914:	0a617253          	fsub.d	ft4,ft2,ft6
    80001918:	026373d3          	fadd.d	ft7,ft6,ft6
    8000191c:	f20f0153          	fmv.d.x	ft2,t5
    80001920:	1bd6f853          	fdiv.d	fa6,fa3,ft9
    80001924:	03f875d3          	fadd.d	fa1,fa6,ft11
    80001928:	1ab6f2d3          	fdiv.d	ft5,fa3,fa1
    8000192c:	0202f8d3          	fadd.d	fa7,ft5,ft0
    80001930:	1b16fe53          	fdiv.d	ft8,fa3,fa7
    80001934:	024e7ed3          	fadd.d	ft9,ft8,ft4
    80001938:	1bd3ff53          	fdiv.d	ft10,ft7,ft9
    8000193c:	021f7053          	fadd.d	ft0,ft10,ft1
    80001940:	f20680d3          	fmv.d.x	ft1,a3
    80001944:	122077d3          	fmul.d	fa5,ft0,ft2
    80001948:	a2f09fd3          	flt.d	t6,ft1,fa5
    8000194c:	000f8663          	beqz	t6,80001958 <_etoa+0x1a0>
    80001950:	1bf7f7d3          	fdiv.d	fa5,fa5,ft11
    80001954:	fffc8c1b          	addiw	s8,s9,-1
    80001958:	063c089b          	addiw	a7,s8,99
    8000195c:	00b45793          	srli	a5,s0,0xb
    80001960:	0c600093          	li	ra,198
    80001964:	0110b2b3          	sltu	t0,ra,a7
    80001968:	0017f313          	andi	t1,a5,1
    8000196c:	00428c93          	addi	s9,t0,4
    80001970:	04030463          	beqz	t1,800019b8 <_etoa+0x200>
    80001974:	f2068653          	fmv.d.x	fa2,a3
    80001978:	00002797          	auipc	a5,0x2
    8000197c:	a307bf87          	fld	ft11,-1488(a5) # 800033a8 <pow10.0+0xd8>
    80001980:	a2cf83d3          	fle.d	t2,ft11,fa2
    80001984:	36038a63          	beqz	t2,80001cf8 <_etoa+0x540>
    80001988:	00002797          	auipc	a5,0x2
    8000198c:	a287b707          	fld	fa4,-1496(a5) # 800033b0 <pow10.0+0xe0>
    80001990:	a2e614d3          	flt.d	s1,fa2,fa4
    80001994:	36048263          	beqz	s1,80001cf8 <_etoa+0x540>
    80001998:	0007061b          	sext.w	a2,a4
    8000199c:	00000713          	li	a4,0
    800019a0:	00cc5663          	bge	s8,a2,800019ac <_etoa+0x1f4>
    800019a4:	4186073b          	subw	a4,a2,s8
    800019a8:	fff7071b          	addiw	a4,a4,-1
    800019ac:	40046413          	ori	s0,s0,1024
    800019b0:	00000c93          	li	s9,0
    800019b4:	00000c13          	li	s8,0
    800019b8:	00000793          	li	a5,0
    800019bc:	016cf463          	bgeu	s9,s6,800019c4 <_etoa+0x20c>
    800019c0:	419b07bb          	subw	a5,s6,s9
    800019c4:	00247b93          	andi	s7,s0,2
    800019c8:	000b8863          	beqz	s7,800019d8 <_etoa+0x220>
    800019cc:	001cb513          	seqz	a0,s9
    800019d0:	40a00833          	neg	a6,a0
    800019d4:	0107f7b3          	and	a5,a5,a6
    800019d8:	300c1863          	bnez	s8,80001ce8 <_etoa+0x530>
    800019dc:	f20006d3          	fmv.d.x	fa3,zero
    800019e0:	a2d515d3          	flt.d	a1,fa0,fa3
    800019e4:	00058863          	beqz	a1,800019f4 <_etoa+0x23c>
    800019e8:	f2068553          	fmv.d.x	fa0,a3
    800019ec:	22a51253          	fneg.d	ft4,fa0
    800019f0:	e20206d3          	fmv.x.d	a3,ft4
    800019f4:	f2068553          	fmv.d.x	fa0,a3
    800019f8:	fffffe37          	lui	t3,0xfffff
    800019fc:	7ffe0e93          	addi	t4,t3,2047 # fffffffffffff7ff <_pmem_end+0xffffffff77fff7ff>
    80001a00:	01d47833          	and	a6,s0,t4
    80001a04:	000a8693          	mv	a3,s5
    80001a08:	00090613          	mv	a2,s2
    80001a0c:	000a0593          	mv	a1,s4
    80001a10:	00098513          	mv	a0,s3
    80001a14:	cacff0ef          	jal	ra,80000ec0 <_ftoa>
    80001a18:	00050493          	mv	s1,a0
    80001a1c:	240c8463          	beqz	s9,80001c64 <_etoa+0x4ac>
    80001a20:	02047f13          	andi	t5,s0,32
    80001a24:	04500513          	li	a0,69
    80001a28:	000f1463          	bnez	t5,80001a30 <_etoa+0x278>
    80001a2c:	06500513          	li	a0,101
    80001a30:	00048613          	mv	a2,s1
    80001a34:	000a8693          	mv	a3,s5
    80001a38:	000a0593          	mv	a1,s4
    80001a3c:	000980e7          	jalr	s3
    80001a40:	41fc5f9b          	sraiw	t6,s8,0x1f
    80001a44:	01fc42b3          	xor	t0,s8,t6
    80001a48:	fffc889b          	addiw	a7,s9,-1
    80001a4c:	00500413          	li	s0,5
    80001a50:	00148613          	addi	a2,s1,1
    80001a54:	01113023          	sd	a7,0(sp)
    80001a58:	00813423          	sd	s0,8(sp)
    80001a5c:	00000893          	li	a7,0
    80001a60:	00a00813          	li	a6,10
    80001a64:	01fc579b          	srliw	a5,s8,0x1f
    80001a68:	41f2873b          	subw	a4,t0,t6
    80001a6c:	000a8693          	mv	a3,s5
    80001a70:	000a0593          	mv	a1,s4
    80001a74:	00098513          	mv	a0,s3
    80001a78:	ce9fe0ef          	jal	ra,80000760 <_ntoa_long>
    80001a7c:	00050493          	mv	s1,a0
    80001a80:	1e0b8263          	beqz	s7,80001c64 <_etoa+0x4ac>
    80001a84:	020b1b13          	slli	s6,s6,0x20
    80001a88:	41250933          	sub	s2,a0,s2
    80001a8c:	020b5c93          	srli	s9,s6,0x20
    80001a90:	1d997a63          	bgeu	s2,s9,80001c64 <_etoa+0x4ac>
    80001a94:	fff94793          	not	a5,s2
    80001a98:	00050613          	mv	a2,a0
    80001a9c:	019780b3          	add	ra,a5,s9
    80001aa0:	00190913          	addi	s2,s2,1
    80001aa4:	000a8693          	mv	a3,s5
    80001aa8:	000a0593          	mv	a1,s4
    80001aac:	02000513          	li	a0,32
    80001ab0:	0070fc13          	andi	s8,ra,7
    80001ab4:	00148493          	addi	s1,s1,1
    80001ab8:	000980e7          	jalr	s3
    80001abc:	1b997463          	bgeu	s2,s9,80001c64 <_etoa+0x4ac>
    80001ac0:	0e0c0c63          	beqz	s8,80001bb8 <_etoa+0x400>
    80001ac4:	00100313          	li	t1,1
    80001ac8:	0c6c0863          	beq	s8,t1,80001b98 <_etoa+0x3e0>
    80001acc:	00200393          	li	t2,2
    80001ad0:	0a7c0663          	beq	s8,t2,80001b7c <_etoa+0x3c4>
    80001ad4:	00300613          	li	a2,3
    80001ad8:	08cc0463          	beq	s8,a2,80001b60 <_etoa+0x3a8>
    80001adc:	00400713          	li	a4,4
    80001ae0:	06ec0263          	beq	s8,a4,80001b44 <_etoa+0x38c>
    80001ae4:	048c0263          	beq	s8,s0,80001b28 <_etoa+0x370>
    80001ae8:	00600b93          	li	s7,6
    80001aec:	037c0063          	beq	s8,s7,80001b0c <_etoa+0x354>
    80001af0:	00048613          	mv	a2,s1
    80001af4:	000a8693          	mv	a3,s5
    80001af8:	000a0593          	mv	a1,s4
    80001afc:	02000513          	li	a0,32
    80001b00:	00148493          	addi	s1,s1,1
    80001b04:	000980e7          	jalr	s3
    80001b08:	00190913          	addi	s2,s2,1
    80001b0c:	00048613          	mv	a2,s1
    80001b10:	000a8693          	mv	a3,s5
    80001b14:	000a0593          	mv	a1,s4
    80001b18:	02000513          	li	a0,32
    80001b1c:	00148493          	addi	s1,s1,1
    80001b20:	000980e7          	jalr	s3
    80001b24:	00190913          	addi	s2,s2,1
    80001b28:	00048613          	mv	a2,s1
    80001b2c:	000a8693          	mv	a3,s5
    80001b30:	000a0593          	mv	a1,s4
    80001b34:	02000513          	li	a0,32
    80001b38:	00148493          	addi	s1,s1,1
    80001b3c:	000980e7          	jalr	s3
    80001b40:	00190913          	addi	s2,s2,1
    80001b44:	00048613          	mv	a2,s1
    80001b48:	000a8693          	mv	a3,s5
    80001b4c:	000a0593          	mv	a1,s4
    80001b50:	02000513          	li	a0,32
    80001b54:	00148493          	addi	s1,s1,1
    80001b58:	000980e7          	jalr	s3
    80001b5c:	00190913          	addi	s2,s2,1
    80001b60:	00048613          	mv	a2,s1
    80001b64:	000a8693          	mv	a3,s5
    80001b68:	000a0593          	mv	a1,s4
    80001b6c:	02000513          	li	a0,32
    80001b70:	00148493          	addi	s1,s1,1
    80001b74:	000980e7          	jalr	s3
    80001b78:	00190913          	addi	s2,s2,1
    80001b7c:	00048613          	mv	a2,s1
    80001b80:	000a8693          	mv	a3,s5
    80001b84:	000a0593          	mv	a1,s4
    80001b88:	02000513          	li	a0,32
    80001b8c:	00148493          	addi	s1,s1,1
    80001b90:	000980e7          	jalr	s3
    80001b94:	00190913          	addi	s2,s2,1
    80001b98:	00048613          	mv	a2,s1
    80001b9c:	00190913          	addi	s2,s2,1
    80001ba0:	000a8693          	mv	a3,s5
    80001ba4:	000a0593          	mv	a1,s4
    80001ba8:	02000513          	li	a0,32
    80001bac:	00148493          	addi	s1,s1,1
    80001bb0:	000980e7          	jalr	s3
    80001bb4:	0b997863          	bgeu	s2,s9,80001c64 <_etoa+0x4ac>
    80001bb8:	00048613          	mv	a2,s1
    80001bbc:	000a8693          	mv	a3,s5
    80001bc0:	000a0593          	mv	a1,s4
    80001bc4:	02000513          	li	a0,32
    80001bc8:	000980e7          	jalr	s3
    80001bcc:	00148613          	addi	a2,s1,1
    80001bd0:	000a8693          	mv	a3,s5
    80001bd4:	000a0593          	mv	a1,s4
    80001bd8:	02000513          	li	a0,32
    80001bdc:	000980e7          	jalr	s3
    80001be0:	00248613          	addi	a2,s1,2
    80001be4:	000a8693          	mv	a3,s5
    80001be8:	000a0593          	mv	a1,s4
    80001bec:	02000513          	li	a0,32
    80001bf0:	000980e7          	jalr	s3
    80001bf4:	00348613          	addi	a2,s1,3
    80001bf8:	000a8693          	mv	a3,s5
    80001bfc:	000a0593          	mv	a1,s4
    80001c00:	02000513          	li	a0,32
    80001c04:	000980e7          	jalr	s3
    80001c08:	00448613          	addi	a2,s1,4
    80001c0c:	000a8693          	mv	a3,s5
    80001c10:	000a0593          	mv	a1,s4
    80001c14:	02000513          	li	a0,32
    80001c18:	000980e7          	jalr	s3
    80001c1c:	00548613          	addi	a2,s1,5
    80001c20:	000a8693          	mv	a3,s5
    80001c24:	000a0593          	mv	a1,s4
    80001c28:	02000513          	li	a0,32
    80001c2c:	000980e7          	jalr	s3
    80001c30:	00648613          	addi	a2,s1,6
    80001c34:	000a8693          	mv	a3,s5
    80001c38:	000a0593          	mv	a1,s4
    80001c3c:	02000513          	li	a0,32
    80001c40:	000980e7          	jalr	s3
    80001c44:	00748613          	addi	a2,s1,7
    80001c48:	00890913          	addi	s2,s2,8
    80001c4c:	000a8693          	mv	a3,s5
    80001c50:	000a0593          	mv	a1,s4
    80001c54:	02000513          	li	a0,32
    80001c58:	00848493          	addi	s1,s1,8
    80001c5c:	000980e7          	jalr	s3
    80001c60:	f5996ce3          	bltu	s2,s9,80001bb8 <_etoa+0x400>
    80001c64:	06813083          	ld	ra,104(sp)
    80001c68:	06013403          	ld	s0,96(sp)
    80001c6c:	05013903          	ld	s2,80(sp)
    80001c70:	04813983          	ld	s3,72(sp)
    80001c74:	04013a03          	ld	s4,64(sp)
    80001c78:	03813a83          	ld	s5,56(sp)
    80001c7c:	03013b03          	ld	s6,48(sp)
    80001c80:	02813b83          	ld	s7,40(sp)
    80001c84:	02013c03          	ld	s8,32(sp)
    80001c88:	01813c83          	ld	s9,24(sp)
    80001c8c:	00048513          	mv	a0,s1
    80001c90:	05813483          	ld	s1,88(sp)
    80001c94:	07010113          	addi	sp,sp,112
    80001c98:	00008067          	ret
    80001c9c:	00040813          	mv	a6,s0
    80001ca0:	06013403          	ld	s0,96(sp)
    80001ca4:	06813083          	ld	ra,104(sp)
    80001ca8:	05813483          	ld	s1,88(sp)
    80001cac:	02813b83          	ld	s7,40(sp)
    80001cb0:	02013c03          	ld	s8,32(sp)
    80001cb4:	01813c83          	ld	s9,24(sp)
    80001cb8:	000b0793          	mv	a5,s6
    80001cbc:	000a8693          	mv	a3,s5
    80001cc0:	03013b03          	ld	s6,48(sp)
    80001cc4:	03813a83          	ld	s5,56(sp)
    80001cc8:	00090613          	mv	a2,s2
    80001ccc:	000a0593          	mv	a1,s4
    80001cd0:	05013903          	ld	s2,80(sp)
    80001cd4:	04013a03          	ld	s4,64(sp)
    80001cd8:	00098513          	mv	a0,s3
    80001cdc:	04813983          	ld	s3,72(sp)
    80001ce0:	07010113          	addi	sp,sp,112
    80001ce4:	9dcff06f          	j	80000ec0 <_ftoa>
    80001ce8:	f20681d3          	fmv.d.x	ft3,a3
    80001cec:	1af1f353          	fdiv.d	ft6,ft3,fa5
    80001cf0:	e20306d3          	fmv.x.d	a3,ft6
    80001cf4:	ce9ff06f          	j	800019dc <_etoa+0x224>
    80001cf8:	cc0700e3          	beqz	a4,800019b8 <_etoa+0x200>
    80001cfc:	ca060ee3          	beqz	a2,800019b8 <_etoa+0x200>
    80001d00:	fff7071b          	addiw	a4,a4,-1
    80001d04:	cb5ff06f          	j	800019b8 <_etoa+0x200>

Disassembly of section .text._vsnprintf:

0000000080001d08 <_vsnprintf>:
    80001d08:	f5010113          	addi	sp,sp,-176
    80001d0c:	08913c23          	sd	s1,152(sp)
    80001d10:	09213823          	sd	s2,144(sp)
    80001d14:	09313423          	sd	s3,136(sp)
    80001d18:	09413023          	sd	s4,128(sp)
    80001d1c:	07613823          	sd	s6,112(sp)
    80001d20:	0a113423          	sd	ra,168(sp)
    80001d24:	0a813023          	sd	s0,160(sp)
    80001d28:	07513c23          	sd	s5,120(sp)
    80001d2c:	07713423          	sd	s7,104(sp)
    80001d30:	07813023          	sd	s8,96(sp)
    80001d34:	05913c23          	sd	s9,88(sp)
    80001d38:	05a13823          	sd	s10,80(sp)
    80001d3c:	05b13423          	sd	s11,72(sp)
    80001d40:	00058913          	mv	s2,a1
    80001d44:	00060493          	mv	s1,a2
    80001d48:	00068b13          	mv	s6,a3
    80001d4c:	00070a13          	mv	s4,a4
    80001d50:	ffffe997          	auipc	s3,0xffffe
    80001d54:	41c98993          	addi	s3,s3,1052 # 8000016c <_out_null>
    80001d58:	00058463          	beqz	a1,80001d60 <_vsnprintf+0x58>
    80001d5c:	00050993          	mv	s3,a0
    80001d60:	000b4503          	lbu	a0,0(s6)
    80001d64:	00000c13          	li	s8,0
    80001d68:	4c050ee3          	beqz	a0,80002a44 <_vsnprintf+0xd3c>
    80001d6c:	000017b7          	lui	a5,0x1
    80001d70:	000102b7          	lui	t0,0x10
    80001d74:	80078093          	addi	ra,a5,-2048 # 800 <_start-0x7ffff800>
    80001d78:	fff28313          	addi	t1,t0,-1 # ffff <_start-0x7fff0001>
    80001d7c:	00001b97          	auipc	s7,0x1
    80001d80:	374b8b93          	addi	s7,s7,884 # 800030f0 <__am_mainargs+0x23>
    80001d84:	00113823          	sd	ra,16(sp)
    80001d88:	00613c23          	sd	t1,24(sp)
    80001d8c:	00001a97          	auipc	s5,0x1
    80001d90:	3a8a8a93          	addi	s5,s5,936 # 80003134 <__am_mainargs+0x67>
    80001d94:	0200006f          	j	80001db4 <_vsnprintf+0xac>
    80001d98:	000c0613          	mv	a2,s8
    80001d9c:	00048693          	mv	a3,s1
    80001da0:	00090593          	mv	a1,s2
    80001da4:	001c0c13          	addi	s8,s8,1
    80001da8:	000980e7          	jalr	s3
    80001dac:	000b4503          	lbu	a0,0(s6)
    80001db0:	1e050863          	beqz	a0,80001fa0 <_vsnprintf+0x298>
    80001db4:	02500393          	li	t2,37
    80001db8:	001b0b13          	addi	s6,s6,1
    80001dbc:	fc751ee3          	bne	a0,t2,80001d98 <_vsnprintf+0x90>
    80001dc0:	00000813          	li	a6,0
    80001dc4:	01000613          	li	a2,16
    80001dc8:	000b4503          	lbu	a0,0(s6)
    80001dcc:	001b0713          	addi	a4,s6,1
    80001dd0:	00070313          	mv	t1,a4
    80001dd4:	fe05041b          	addiw	s0,a0,-32
    80001dd8:	0ff47593          	andi	a1,s0,255
    80001ddc:	00b66c63          	bltu	a2,a1,80001df4 <_vsnprintf+0xec>
    80001de0:	00259893          	slli	a7,a1,0x2
    80001de4:	01788cb3          	add	s9,a7,s7
    80001de8:	000cad03          	lw	s10,0(s9)
    80001dec:	017d0db3          	add	s11,s10,s7
    80001df0:	000d8067          	jr	s11
    80001df4:	fd050e9b          	addiw	t4,a0,-48
    80001df8:	0ffeff13          	andi	t5,t4,255
    80001dfc:	00900f93          	li	t6,9
    80001e00:	0deffa63          	bgeu	t6,t5,80001ed4 <_vsnprintf+0x1cc>
    80001e04:	02a00793          	li	a5,42
    80001e08:	22f50463          	beq	a0,a5,80002030 <_vsnprintf+0x328>
    80001e0c:	000b0313          	mv	t1,s6
    80001e10:	00000413          	li	s0,0
    80001e14:	00070b13          	mv	s6,a4
    80001e18:	02e00293          	li	t0,46
    80001e1c:	00000893          	li	a7,0
    80001e20:	1e550063          	beq	a0,t0,80002000 <_vsnprintf+0x2f8>
    80001e24:	f9850c9b          	addiw	s9,a0,-104
    80001e28:	0ffcfd93          	andi	s11,s9,255
    80001e2c:	01200f13          	li	t5,18
    80001e30:	07bf6c63          	bltu	t5,s11,80001ea8 <_vsnprintf+0x1a0>
    80001e34:	002d9f93          	slli	t6,s11,0x2
    80001e38:	015f87b3          	add	a5,t6,s5
    80001e3c:	0007a083          	lw	ra,0(a5)
    80001e40:	015083b3          	add	t2,ra,s5
    80001e44:	00038067          	jr	t2
    80001e48:	00186813          	ori	a6,a6,1
    80001e4c:	0008081b          	sext.w	a6,a6
    80001e50:	00070b13          	mv	s6,a4
    80001e54:	f75ff06f          	j	80001dc8 <_vsnprintf+0xc0>
    80001e58:	00286513          	ori	a0,a6,2
    80001e5c:	0005081b          	sext.w	a6,a0
    80001e60:	00070b13          	mv	s6,a4
    80001e64:	f65ff06f          	j	80001dc8 <_vsnprintf+0xc0>
    80001e68:	00486693          	ori	a3,a6,4
    80001e6c:	0006881b          	sext.w	a6,a3
    80001e70:	00070b13          	mv	s6,a4
    80001e74:	f55ff06f          	j	80001dc8 <_vsnprintf+0xc0>
    80001e78:	01086b13          	ori	s6,a6,16
    80001e7c:	000b081b          	sext.w	a6,s6
    80001e80:	00070b13          	mv	s6,a4
    80001e84:	f45ff06f          	j	80001dc8 <_vsnprintf+0xc0>
    80001e88:	00886e13          	ori	t3,a6,8
    80001e8c:	000e081b          	sext.w	a6,t3
    80001e90:	00070b13          	mv	s6,a4
    80001e94:	f35ff06f          	j	80001dc8 <_vsnprintf+0xc0>
    80001e98:	00134503          	lbu	a0,1(t1)
    80001e9c:	10086313          	ori	t1,a6,256
    80001ea0:	0003081b          	sext.w	a6,t1
    80001ea4:	001b0b13          	addi	s6,s6,1
    80001ea8:	fdb5069b          	addiw	a3,a0,-37
    80001eac:	0ff6f293          	andi	t0,a3,255
    80001eb0:	05300593          	li	a1,83
    80001eb4:	ee55e2e3          	bltu	a1,t0,80001d98 <_vsnprintf+0x90>
    80001eb8:	00001e97          	auipc	t4,0x1
    80001ebc:	2c8e8e93          	addi	t4,t4,712 # 80003180 <__am_mainargs+0xb3>
    80001ec0:	00229e13          	slli	t3,t0,0x2
    80001ec4:	01de0cb3          	add	s9,t3,t4
    80001ec8:	000cad83          	lw	s11,0(s9)
    80001ecc:	01dd8f33          	add	t5,s11,t4
    80001ed0:	000f0067          	jr	t5
    80001ed4:	00000413          	li	s0,0
    80001ed8:	00900293          	li	t0,9
    80001edc:	0024131b          	slliw	t1,s0,0x2
    80001ee0:	008303bb          	addw	t2,t1,s0
    80001ee4:	0013961b          	slliw	a2,t2,0x1
    80001ee8:	00a6043b          	addw	s0,a2,a0
    80001eec:	00074503          	lbu	a0,0(a4)
    80001ef0:	000b0593          	mv	a1,s6
    80001ef4:	00070c93          	mv	s9,a4
    80001ef8:	fd05089b          	addiw	a7,a0,-48
    80001efc:	0ff8fd13          	andi	s10,a7,255
    80001f00:	fd04041b          	addiw	s0,s0,-48
    80001f04:	15a2e463          	bltu	t0,s10,8000204c <_vsnprintf+0x344>
    80001f08:	0024159b          	slliw	a1,s0,0x2
    80001f0c:	00858dbb          	addw	s11,a1,s0
    80001f10:	00170713          	addi	a4,a4,1
    80001f14:	001d969b          	slliw	a3,s11,0x1
    80001f18:	00a68b3b          	addw	s6,a3,a0
    80001f1c:	00074503          	lbu	a0,0(a4)
    80001f20:	00070e13          	mv	t3,a4
    80001f24:	000c8593          	mv	a1,s9
    80001f28:	fd050e9b          	addiw	t4,a0,-48
    80001f2c:	0ffeff13          	andi	t5,t4,255
    80001f30:	fd0b041b          	addiw	s0,s6,-48
    80001f34:	11e2ec63          	bltu	t0,t5,8000204c <_vsnprintf+0x344>
    80001f38:	00241f9b          	slliw	t6,s0,0x2
    80001f3c:	008f87bb          	addw	a5,t6,s0
    80001f40:	00170713          	addi	a4,a4,1
    80001f44:	0017909b          	slliw	ra,a5,0x1
    80001f48:	00a083bb          	addw	t2,ra,a0
    80001f4c:	00074503          	lbu	a0,0(a4)
    80001f50:	000e0593          	mv	a1,t3
    80001f54:	00070313          	mv	t1,a4
    80001f58:	fd05061b          	addiw	a2,a0,-48
    80001f5c:	0ff67c93          	andi	s9,a2,255
    80001f60:	fd03841b          	addiw	s0,t2,-48
    80001f64:	0f92e463          	bltu	t0,s9,8000204c <_vsnprintf+0x344>
    80001f68:	0024171b          	slliw	a4,s0,0x2
    80001f6c:	0087043b          	addw	s0,a4,s0
    80001f70:	0014189b          	slliw	a7,s0,0x1
    80001f74:	00a88d3b          	addw	s10,a7,a0
    80001f78:	002e4503          	lbu	a0,2(t3)
    80001f7c:	002e0713          	addi	a4,t3,2
    80001f80:	00030593          	mv	a1,t1
    80001f84:	fd050d9b          	addiw	s11,a0,-48
    80001f88:	0ffdf693          	andi	a3,s11,255
    80001f8c:	00070b13          	mv	s6,a4
    80001f90:	fd0d041b          	addiw	s0,s10,-48
    80001f94:	0ad2ec63          	bltu	t0,a3,8000204c <_vsnprintf+0x344>
    80001f98:	003e0713          	addi	a4,t3,3
    80001f9c:	f41ff06f          	j	80001edc <_vsnprintf+0x1d4>
    80001fa0:	000c0b9b          	sext.w	s7,s8
    80001fa4:	009c6463          	bltu	s8,s1,80001fac <_vsnprintf+0x2a4>
    80001fa8:	fff48c13          	addi	s8,s1,-1
    80001fac:	00048693          	mv	a3,s1
    80001fb0:	000c0613          	mv	a2,s8
    80001fb4:	00090593          	mv	a1,s2
    80001fb8:	00000513          	li	a0,0
    80001fbc:	000980e7          	jalr	s3
    80001fc0:	0a813083          	ld	ra,168(sp)
    80001fc4:	0a013403          	ld	s0,160(sp)
    80001fc8:	09813483          	ld	s1,152(sp)
    80001fcc:	09013903          	ld	s2,144(sp)
    80001fd0:	08813983          	ld	s3,136(sp)
    80001fd4:	08013a03          	ld	s4,128(sp)
    80001fd8:	07813a83          	ld	s5,120(sp)
    80001fdc:	07013b03          	ld	s6,112(sp)
    80001fe0:	06013c03          	ld	s8,96(sp)
    80001fe4:	05813c83          	ld	s9,88(sp)
    80001fe8:	05013d03          	ld	s10,80(sp)
    80001fec:	04813d83          	ld	s11,72(sp)
    80001ff0:	000b8513          	mv	a0,s7
    80001ff4:	06813b83          	ld	s7,104(sp)
    80001ff8:	0b010113          	addi	sp,sp,176
    80001ffc:	00008067          	ret
    80002000:	00134503          	lbu	a0,1(t1)
    80002004:	40086813          	ori	a6,a6,1024
    80002008:	00900e13          	li	t3,9
    8000200c:	fd050e9b          	addiw	t4,a0,-48
    80002010:	0ffeff13          	andi	t5,t4,255
    80002014:	0008081b          	sext.w	a6,a6
    80002018:	5bee7863          	bgeu	t3,t5,800025c8 <_vsnprintf+0x8c0>
    8000201c:	02a00f93          	li	t6,42
    80002020:	67f50663          	beq	a0,t6,8000268c <_vsnprintf+0x984>
    80002024:	000b0313          	mv	t1,s6
    80002028:	001b0b13          	addi	s6,s6,1
    8000202c:	df9ff06f          	j	80001e24 <_vsnprintf+0x11c>
    80002030:	000a2703          	lw	a4,0(s4)
    80002034:	008a0a13          	addi	s4,s4,8
    80002038:	0007041b          	sext.w	s0,a4
    8000203c:	00074e63          	bltz	a4,80002058 <_vsnprintf+0x350>
    80002040:	001b4503          	lbu	a0,1(s6)
    80002044:	002b0b13          	addi	s6,s6,2
    80002048:	dd1ff06f          	j	80001e18 <_vsnprintf+0x110>
    8000204c:	00070313          	mv	t1,a4
    80002050:	00258b13          	addi	s6,a1,2
    80002054:	dc5ff06f          	j	80001e18 <_vsnprintf+0x110>
    80002058:	00286093          	ori	ra,a6,2
    8000205c:	001b4503          	lbu	a0,1(s6)
    80002060:	0000881b          	sext.w	a6,ra
    80002064:	40e0043b          	negw	s0,a4
    80002068:	002b0b13          	addi	s6,s6,2
    8000206c:	dadff06f          	j	80001e18 <_vsnprintf+0x110>
    80002070:	07800f13          	li	t5,120
    80002074:	008a0c93          	addi	s9,s4,8
    80002078:	6be508e3          	beq	a0,t5,80002f28 <_vsnprintf+0x1220>
    8000207c:	05800313          	li	t1,88
    80002080:	1c6508e3          	beq	a0,t1,80002a50 <_vsnprintf+0xd48>
    80002084:	06f00f93          	li	t6,111
    80002088:	71f50ae3          	beq	a0,t6,80002f9c <_vsnprintf+0x1294>
    8000208c:	06200d93          	li	s11,98
    80002090:	77b50ae3          	beq	a0,s11,80003004 <_vsnprintf+0x12fc>
    80002094:	fef87793          	andi	a5,a6,-17
    80002098:	06900393          	li	t2,105
    8000209c:	00080613          	mv	a2,a6
    800020a0:	0007869b          	sext.w	a3,a5
    800020a4:	40087813          	andi	a6,a6,1024
    800020a8:	78751ae3          	bne	a0,t2,8000303c <_vsnprintf+0x1334>
    800020ac:	68081ae3          	bnez	a6,80002f40 <_vsnprintf+0x1238>
    800020b0:	20067d13          	andi	s10,a2,512
    800020b4:	00a00293          	li	t0,10
    800020b8:	620d18e3          	bnez	s10,80002ee8 <_vsnprintf+0x11e0>
    800020bc:	1006f093          	andi	ra,a3,256
    800020c0:	00068e13          	mv	t3,a3
    800020c4:	6e009ee3          	bnez	ra,80002fc0 <_vsnprintf+0x12b8>
    800020c8:	0406f713          	andi	a4,a3,64
    800020cc:	000a2e83          	lw	t4,0(s4)
    800020d0:	680710e3          	bnez	a4,80002f50 <_vsnprintf+0x1248>
    800020d4:	080e7d13          	andi	s10,t3,128
    800020d8:	720d0ae3          	beqz	s10,8000300c <_vsnprintf+0x1304>
    800020dc:	010e9f9b          	slliw	t6,t4,0x10
    800020e0:	410fde9b          	sraiw	t4,t6,0x10
    800020e4:	40fedd9b          	sraiw	s11,t4,0xf
    800020e8:	01bec7b3          	xor	a5,t4,s11
    800020ec:	41b7853b          	subw	a0,a5,s11
    800020f0:	03051393          	slli	t2,a0,0x30
    800020f4:	0303d713          	srli	a4,t2,0x30
    800020f8:	000c0613          	mv	a2,s8
    800020fc:	00d13423          	sd	a3,8(sp)
    80002100:	00813023          	sd	s0,0(sp)
    80002104:	00028813          	mv	a6,t0
    80002108:	01fed79b          	srliw	a5,t4,0x1f
    8000210c:	00048693          	mv	a3,s1
    80002110:	00090593          	mv	a1,s2
    80002114:	00098513          	mv	a0,s3
    80002118:	e48fe0ef          	jal	ra,80000760 <_ntoa_long>
    8000211c:	00050c13          	mv	s8,a0
    80002120:	000c8a13          	mv	s4,s9
    80002124:	c89ff06f          	j	80001dac <_vsnprintf+0xa4>
    80002128:	00134503          	lbu	a0,1(t1)
    8000212c:	06c00613          	li	a2,108
    80002130:	d6c516e3          	bne	a0,a2,80001e9c <_vsnprintf+0x194>
    80002134:	30086813          	ori	a6,a6,768
    80002138:	00234503          	lbu	a0,2(t1)
    8000213c:	0008081b          	sext.w	a6,a6
    80002140:	00330b13          	addi	s6,t1,3
    80002144:	d65ff06f          	j	80001ea8 <_vsnprintf+0x1a0>
    80002148:	00134503          	lbu	a0,1(t1)
    8000214c:	06800713          	li	a4,104
    80002150:	0ee500e3          	beq	a0,a4,80002a30 <_vsnprintf+0xd28>
    80002154:	08086d13          	ori	s10,a6,128
    80002158:	000d081b          	sext.w	a6,s10
    8000215c:	001b0b13          	addi	s6,s6,1
    80002160:	d49ff06f          	j	80001ea8 <_vsnprintf+0x1a0>
    80002164:	04600c93          	li	s9,70
    80002168:	59950e63          	beq	a0,s9,80002704 <_vsnprintf+0x9fc>
    8000216c:	000a3507          	fld	fa0,0(s4)
    80002170:	000c0613          	mv	a2,s8
    80002174:	00040793          	mv	a5,s0
    80002178:	00088713          	mv	a4,a7
    8000217c:	00048693          	mv	a3,s1
    80002180:	00090593          	mv	a1,s2
    80002184:	00098513          	mv	a0,s3
    80002188:	d39fe0ef          	jal	ra,80000ec0 <_ftoa>
    8000218c:	008a0a13          	addi	s4,s4,8
    80002190:	00050c13          	mv	s8,a0
    80002194:	c19ff06f          	j	80001dac <_vsnprintf+0xa4>
    80002198:	001c0d13          	addi	s10,s8,1
    8000219c:	00287613          	andi	a2,a6,2
    800021a0:	008a0c93          	addi	s9,s4,8
    800021a4:	000d0d93          	mv	s11,s10
    800021a8:	34060ae3          	beqz	a2,80002cfc <_vsnprintf+0xff4>
    800021ac:	000a4503          	lbu	a0,0(s4)
    800021b0:	00048693          	mv	a3,s1
    800021b4:	000c0613          	mv	a2,s8
    800021b8:	00090593          	mv	a1,s2
    800021bc:	000980e7          	jalr	s3
    800021c0:	00100713          	li	a4,1
    800021c4:	5a8778e3          	bgeu	a4,s0,80002f74 <_vsnprintf+0x126c>
    800021c8:	ffe4029b          	addiw	t0,s0,-2
    800021cc:	02029413          	slli	s0,t0,0x20
    800021d0:	002c0593          	addi	a1,s8,2
    800021d4:	02045093          	srli	ra,s0,0x20
    800021d8:	00158c33          	add	s8,a1,ra
    800021dc:	41bc0e33          	sub	t3,s8,s11
    800021e0:	007e7e93          	andi	t4,t3,7
    800021e4:	0c0e8e63          	beqz	t4,800022c0 <_vsnprintf+0x5b8>
    800021e8:	0aee8e63          	beq	t4,a4,800022a4 <_vsnprintf+0x59c>
    800021ec:	00200893          	li	a7,2
    800021f0:	091e8e63          	beq	t4,a7,8000228c <_vsnprintf+0x584>
    800021f4:	00300f13          	li	t5,3
    800021f8:	07ee8e63          	beq	t4,t5,80002274 <_vsnprintf+0x56c>
    800021fc:	00400313          	li	t1,4
    80002200:	046e8e63          	beq	t4,t1,8000225c <_vsnprintf+0x554>
    80002204:	00500813          	li	a6,5
    80002208:	030e8e63          	beq	t4,a6,80002244 <_vsnprintf+0x53c>
    8000220c:	00600f93          	li	t6,6
    80002210:	01fe8e63          	beq	t4,t6,8000222c <_vsnprintf+0x524>
    80002214:	00048693          	mv	a3,s1
    80002218:	000d0613          	mv	a2,s10
    8000221c:	00090593          	mv	a1,s2
    80002220:	02000513          	li	a0,32
    80002224:	001d8d93          	addi	s11,s11,1
    80002228:	000980e7          	jalr	s3
    8000222c:	000d8613          	mv	a2,s11
    80002230:	00048693          	mv	a3,s1
    80002234:	00090593          	mv	a1,s2
    80002238:	02000513          	li	a0,32
    8000223c:	001d8d93          	addi	s11,s11,1
    80002240:	000980e7          	jalr	s3
    80002244:	000d8613          	mv	a2,s11
    80002248:	00048693          	mv	a3,s1
    8000224c:	00090593          	mv	a1,s2
    80002250:	02000513          	li	a0,32
    80002254:	001d8d93          	addi	s11,s11,1
    80002258:	000980e7          	jalr	s3
    8000225c:	000d8613          	mv	a2,s11
    80002260:	00048693          	mv	a3,s1
    80002264:	00090593          	mv	a1,s2
    80002268:	02000513          	li	a0,32
    8000226c:	001d8d93          	addi	s11,s11,1
    80002270:	000980e7          	jalr	s3
    80002274:	000d8613          	mv	a2,s11
    80002278:	00048693          	mv	a3,s1
    8000227c:	00090593          	mv	a1,s2
    80002280:	02000513          	li	a0,32
    80002284:	001d8d93          	addi	s11,s11,1
    80002288:	000980e7          	jalr	s3
    8000228c:	000d8613          	mv	a2,s11
    80002290:	00048693          	mv	a3,s1
    80002294:	00090593          	mv	a1,s2
    80002298:	02000513          	li	a0,32
    8000229c:	001d8d93          	addi	s11,s11,1
    800022a0:	000980e7          	jalr	s3
    800022a4:	000d8613          	mv	a2,s11
    800022a8:	00048693          	mv	a3,s1
    800022ac:	001d8d93          	addi	s11,s11,1
    800022b0:	00090593          	mv	a1,s2
    800022b4:	02000513          	li	a0,32
    800022b8:	000980e7          	jalr	s3
    800022bc:	e78d82e3          	beq	s11,s8,80002120 <_vsnprintf+0x418>
    800022c0:	000d8613          	mv	a2,s11
    800022c4:	00048693          	mv	a3,s1
    800022c8:	00090593          	mv	a1,s2
    800022cc:	02000513          	li	a0,32
    800022d0:	000980e7          	jalr	s3
    800022d4:	001d8613          	addi	a2,s11,1
    800022d8:	00048693          	mv	a3,s1
    800022dc:	00090593          	mv	a1,s2
    800022e0:	02000513          	li	a0,32
    800022e4:	000980e7          	jalr	s3
    800022e8:	002d8613          	addi	a2,s11,2
    800022ec:	00048693          	mv	a3,s1
    800022f0:	00090593          	mv	a1,s2
    800022f4:	02000513          	li	a0,32
    800022f8:	000980e7          	jalr	s3
    800022fc:	003d8613          	addi	a2,s11,3
    80002300:	00048693          	mv	a3,s1
    80002304:	00090593          	mv	a1,s2
    80002308:	02000513          	li	a0,32
    8000230c:	000980e7          	jalr	s3
    80002310:	004d8613          	addi	a2,s11,4
    80002314:	00048693          	mv	a3,s1
    80002318:	00090593          	mv	a1,s2
    8000231c:	02000513          	li	a0,32
    80002320:	000980e7          	jalr	s3
    80002324:	005d8613          	addi	a2,s11,5
    80002328:	00048693          	mv	a3,s1
    8000232c:	00090593          	mv	a1,s2
    80002330:	02000513          	li	a0,32
    80002334:	000980e7          	jalr	s3
    80002338:	006d8613          	addi	a2,s11,6
    8000233c:	00048693          	mv	a3,s1
    80002340:	00090593          	mv	a1,s2
    80002344:	02000513          	li	a0,32
    80002348:	000980e7          	jalr	s3
    8000234c:	007d8613          	addi	a2,s11,7
    80002350:	00048693          	mv	a3,s1
    80002354:	008d8d93          	addi	s11,s11,8
    80002358:	00090593          	mv	a1,s2
    8000235c:	02000513          	li	a0,32
    80002360:	000980e7          	jalr	s3
    80002364:	f58d9ee3          	bne	s11,s8,800022c0 <_vsnprintf+0x5b8>
    80002368:	db9ff06f          	j	80002120 <_vsnprintf+0x418>
    8000236c:	000c0613          	mv	a2,s8
    80002370:	00048693          	mv	a3,s1
    80002374:	00090593          	mv	a1,s2
    80002378:	02500513          	li	a0,37
    8000237c:	001c0c13          	addi	s8,s8,1
    80002380:	000980e7          	jalr	s3
    80002384:	a29ff06f          	j	80001dac <_vsnprintf+0xa4>
    80002388:	000a3d03          	ld	s10,0(s4)
    8000238c:	008a0a13          	addi	s4,s4,8
    80002390:	03413823          	sd	s4,48(sp)
    80002394:	000d4503          	lbu	a0,0(s10)
    80002398:	30089c63          	bnez	a7,800026b0 <_vsnprintf+0x9a8>
    8000239c:	ffe00093          	li	ra,-2
    800023a0:	46050ee3          	beqz	a0,8000301c <_vsnprintf+0x1314>
    800023a4:	00108393          	addi	t2,ra,1
    800023a8:	0073f613          	andi	a2,t2,7
    800023ac:	007d0333          	add	t1,s10,t2
    800023b0:	000d0d93          	mv	s11,s10
    800023b4:	08060063          	beqz	a2,80002434 <_vsnprintf+0x72c>
    800023b8:	00100713          	li	a4,1
    800023bc:	06e60463          	beq	a2,a4,80002424 <_vsnprintf+0x71c>
    800023c0:	00200693          	li	a3,2
    800023c4:	04d60a63          	beq	a2,a3,80002418 <_vsnprintf+0x710>
    800023c8:	00300293          	li	t0,3
    800023cc:	04560063          	beq	a2,t0,8000240c <_vsnprintf+0x704>
    800023d0:	00400593          	li	a1,4
    800023d4:	02b60663          	beq	a2,a1,80002400 <_vsnprintf+0x6f8>
    800023d8:	00500e13          	li	t3,5
    800023dc:	01c60c63          	beq	a2,t3,800023f4 <_vsnprintf+0x6ec>
    800023e0:	00600e93          	li	t4,6
    800023e4:	37d61ce3          	bne	a2,t4,80002f5c <_vsnprintf+0x1254>
    800023e8:	001dcf03          	lbu	t5,1(s11)
    800023ec:	001d8d93          	addi	s11,s11,1
    800023f0:	0a0f0463          	beqz	t5,80002498 <_vsnprintf+0x790>
    800023f4:	001dca03          	lbu	s4,1(s11)
    800023f8:	001d8d93          	addi	s11,s11,1
    800023fc:	080a0e63          	beqz	s4,80002498 <_vsnprintf+0x790>
    80002400:	001dcf83          	lbu	t6,1(s11)
    80002404:	001d8d93          	addi	s11,s11,1
    80002408:	080f8863          	beqz	t6,80002498 <_vsnprintf+0x790>
    8000240c:	001dc783          	lbu	a5,1(s11)
    80002410:	001d8d93          	addi	s11,s11,1
    80002414:	08078263          	beqz	a5,80002498 <_vsnprintf+0x790>
    80002418:	001dc083          	lbu	ra,1(s11)
    8000241c:	001d8d93          	addi	s11,s11,1
    80002420:	06008c63          	beqz	ra,80002498 <_vsnprintf+0x790>
    80002424:	001dc383          	lbu	t2,1(s11)
    80002428:	001d8d93          	addi	s11,s11,1
    8000242c:	06038663          	beqz	t2,80002498 <_vsnprintf+0x790>
    80002430:	066d8463          	beq	s11,t1,80002498 <_vsnprintf+0x790>
    80002434:	001dc603          	lbu	a2,1(s11)
    80002438:	001d8d93          	addi	s11,s11,1
    8000243c:	000d8713          	mv	a4,s11
    80002440:	04060c63          	beqz	a2,80002498 <_vsnprintf+0x790>
    80002444:	001dc683          	lbu	a3,1(s11)
    80002448:	001d8d93          	addi	s11,s11,1
    8000244c:	04068663          	beqz	a3,80002498 <_vsnprintf+0x790>
    80002450:	00274283          	lbu	t0,2(a4)
    80002454:	00270d93          	addi	s11,a4,2
    80002458:	04028063          	beqz	t0,80002498 <_vsnprintf+0x790>
    8000245c:	00374583          	lbu	a1,3(a4)
    80002460:	00370d93          	addi	s11,a4,3
    80002464:	02058a63          	beqz	a1,80002498 <_vsnprintf+0x790>
    80002468:	00474e03          	lbu	t3,4(a4)
    8000246c:	00470d93          	addi	s11,a4,4
    80002470:	020e0463          	beqz	t3,80002498 <_vsnprintf+0x790>
    80002474:	00574e83          	lbu	t4,5(a4)
    80002478:	00570d93          	addi	s11,a4,5
    8000247c:	000e8e63          	beqz	t4,80002498 <_vsnprintf+0x790>
    80002480:	00674c83          	lbu	s9,6(a4)
    80002484:	00670d93          	addi	s11,a4,6
    80002488:	000c8863          	beqz	s9,80002498 <_vsnprintf+0x790>
    8000248c:	00774f03          	lbu	t5,7(a4)
    80002490:	00770d93          	addi	s11,a4,7
    80002494:	f80f1ee3          	bnez	t5,80002430 <_vsnprintf+0x728>
    80002498:	41ad8dbb          	subw	s11,s11,s10
    8000249c:	40087c93          	andi	s9,a6,1024
    800024a0:	000c8a63          	beqz	s9,800024b4 <_vsnprintf+0x7ac>
    800024a4:	00088313          	mv	t1,a7
    800024a8:	011df463          	bgeu	s11,a7,800024b0 <_vsnprintf+0x7a8>
    800024ac:	000d8313          	mv	t1,s11
    800024b0:	00030d9b          	sext.w	s11,t1
    800024b4:	00287813          	andi	a6,a6,2
    800024b8:	03013423          	sd	a6,40(sp)
    800024bc:	60080a63          	beqz	a6,80002ad0 <_vsnprintf+0xdc8>
    800024c0:	2e050c63          	beqz	a0,800027b8 <_vsnprintf+0xab0>
    800024c4:	4c0c8663          	beqz	s9,80002990 <_vsnprintf+0xc88>
    800024c8:	02089093          	slli	ra,a7,0x20
    800024cc:	0200d613          	srli	a2,ra,0x20
    800024d0:	018606b3          	add	a3,a2,s8
    800024d4:	00367713          	andi	a4,a2,3
    800024d8:	02d13023          	sd	a3,32(sp)
    800024dc:	000c0a13          	mv	s4,s8
    800024e0:	2c070263          	beqz	a4,800027a4 <_vsnprintf+0xa9c>
    800024e4:	00090593          	mv	a1,s2
    800024e8:	02e13c23          	sd	a4,56(sp)
    800024ec:	00048693          	mv	a3,s1
    800024f0:	000c0613          	mv	a2,s8
    800024f4:	000980e7          	jalr	s3
    800024f8:	001c0c93          	addi	s9,s8,1
    800024fc:	418c82b3          	sub	t0,s9,s8
    80002500:	005d05b3          	add	a1,s10,t0
    80002504:	0005c503          	lbu	a0,0(a1)
    80002508:	06050663          	beqz	a0,80002574 <_vsnprintf+0x86c>
    8000250c:	03813e83          	ld	t4,56(sp)
    80002510:	00100e13          	li	t3,1
    80002514:	000c8a13          	mv	s4,s9
    80002518:	29ce8663          	beq	t4,t3,800027a4 <_vsnprintf+0xa9c>
    8000251c:	00200893          	li	a7,2
    80002520:	031e8663          	beq	t4,a7,8000254c <_vsnprintf+0x844>
    80002524:	000a0613          	mv	a2,s4
    80002528:	00048693          	mv	a3,s1
    8000252c:	00090593          	mv	a1,s2
    80002530:	002c0c93          	addi	s9,s8,2
    80002534:	000980e7          	jalr	s3
    80002538:	418c8f33          	sub	t5,s9,s8
    8000253c:	01ed0a33          	add	s4,s10,t5
    80002540:	000a4503          	lbu	a0,0(s4)
    80002544:	000c8a13          	mv	s4,s9
    80002548:	02050663          	beqz	a0,80002574 <_vsnprintf+0x86c>
    8000254c:	000a0613          	mv	a2,s4
    80002550:	00048693          	mv	a3,s1
    80002554:	00090593          	mv	a1,s2
    80002558:	000980e7          	jalr	s3
    8000255c:	001c8c93          	addi	s9,s9,1
    80002560:	418c8333          	sub	t1,s9,s8
    80002564:	006d0833          	add	a6,s10,t1
    80002568:	00084503          	lbu	a0,0(a6)
    8000256c:	000c8a13          	mv	s4,s9
    80002570:	22051a63          	bnez	a0,800027a4 <_vsnprintf+0xa9c>
    80002574:	000c8c13          	mv	s8,s9
    80002578:	02813d03          	ld	s10,40(sp)
    8000257c:	220d1e63          	bnez	s10,800027b8 <_vsnprintf+0xab0>
    80002580:	03013a03          	ld	s4,48(sp)
    80002584:	829ff06f          	j	80001dac <_vsnprintf+0xa4>
    80002588:	000a3703          	ld	a4,0(s4)
    8000258c:	02186793          	ori	a5,a6,33
    80002590:	0007839b          	sext.w	t2,a5
    80002594:	01000693          	li	a3,16
    80002598:	000c0613          	mv	a2,s8
    8000259c:	00d13023          	sd	a3,0(sp)
    800025a0:	00713423          	sd	t2,8(sp)
    800025a4:	01000813          	li	a6,16
    800025a8:	00000793          	li	a5,0
    800025ac:	00048693          	mv	a3,s1
    800025b0:	00090593          	mv	a1,s2
    800025b4:	00098513          	mv	a0,s3
    800025b8:	9a8fe0ef          	jal	ra,80000760 <_ntoa_long>
    800025bc:	008a0a13          	addi	s4,s4,8
    800025c0:	00050c13          	mv	s8,a0
    800025c4:	fe8ff06f          	j	80001dac <_vsnprintf+0xa4>
    800025c8:	00900c93          	li	s9,9
    800025cc:	0028961b          	slliw	a2,a7,0x2
    800025d0:	0116073b          	addw	a4,a2,a7
    800025d4:	000b0593          	mv	a1,s6
    800025d8:	0017189b          	slliw	a7,a4,0x1
    800025dc:	001b0b13          	addi	s6,s6,1
    800025e0:	00a88d3b          	addw	s10,a7,a0
    800025e4:	000b4503          	lbu	a0,0(s6)
    800025e8:	000b0d93          	mv	s11,s6
    800025ec:	fd0d089b          	addiw	a7,s10,-48
    800025f0:	fd05069b          	addiw	a3,a0,-48
    800025f4:	0ff6f293          	andi	t0,a3,255
    800025f8:	085ce463          	bltu	s9,t0,80002680 <_vsnprintf+0x978>
    800025fc:	0028959b          	slliw	a1,a7,0x2
    80002600:	01158e3b          	addw	t3,a1,a7
    80002604:	001e1e9b          	slliw	t4,t3,0x1
    80002608:	000b0593          	mv	a1,s6
    8000260c:	001b0b13          	addi	s6,s6,1
    80002610:	00ae8f3b          	addw	t5,t4,a0
    80002614:	000b4503          	lbu	a0,0(s6)
    80002618:	fd0f089b          	addiw	a7,t5,-48
    8000261c:	fd050f9b          	addiw	t6,a0,-48
    80002620:	0ffff793          	andi	a5,t6,255
    80002624:	04fcee63          	bltu	s9,a5,80002680 <_vsnprintf+0x978>
    80002628:	0028909b          	slliw	ra,a7,0x2
    8000262c:	011083bb          	addw	t2,ra,a7
    80002630:	0013931b          	slliw	t1,t2,0x1
    80002634:	00a3063b          	addw	a2,t1,a0
    80002638:	002dc503          	lbu	a0,2(s11)
    8000263c:	000b0593          	mv	a1,s6
    80002640:	fd06089b          	addiw	a7,a2,-48
    80002644:	fd050b1b          	addiw	s6,a0,-48
    80002648:	0ffb7713          	andi	a4,s6,255
    8000264c:	002d8b13          	addi	s6,s11,2
    80002650:	02ece863          	bltu	s9,a4,80002680 <_vsnprintf+0x978>
    80002654:	00289d1b          	slliw	s10,a7,0x2
    80002658:	011d08bb          	addw	a7,s10,a7
    8000265c:	0018969b          	slliw	a3,a7,0x1
    80002660:	00a682bb          	addw	t0,a3,a0
    80002664:	003dc503          	lbu	a0,3(s11)
    80002668:	000b0593          	mv	a1,s6
    8000266c:	fd02889b          	addiw	a7,t0,-48
    80002670:	fd050e1b          	addiw	t3,a0,-48
    80002674:	0ffe7e93          	andi	t4,t3,255
    80002678:	003d8b13          	addi	s6,s11,3
    8000267c:	f5dcf8e3          	bgeu	s9,t4,800025cc <_vsnprintf+0x8c4>
    80002680:	000b0313          	mv	t1,s6
    80002684:	00258b13          	addi	s6,a1,2
    80002688:	f9cff06f          	j	80001e24 <_vsnprintf+0x11c>
    8000268c:	000a2783          	lw	a5,0(s4)
    80002690:	00234503          	lbu	a0,2(t1)
    80002694:	00330b13          	addi	s6,t1,3
    80002698:	fff7c093          	not	ra,a5
    8000269c:	43f0d393          	srai	t2,ra,0x3f
    800026a0:	0077f8b3          	and	a7,a5,t2
    800026a4:	008a0a13          	addi	s4,s4,8
    800026a8:	00230313          	addi	t1,t1,2
    800026ac:	f78ff06f          	j	80001e24 <_vsnprintf+0x11c>
    800026b0:	02089f93          	slli	t6,a7,0x20
    800026b4:	020fd793          	srli	a5,t6,0x20
    800026b8:	160502e3          	beqz	a0,8000301c <_vsnprintf+0x1314>
    800026bc:	fff78093          	addi	ra,a5,-1
    800026c0:	ce5ff06f          	j	800023a4 <_vsnprintf+0x69c>
    800026c4:	0df57613          	andi	a2,a0,223
    800026c8:	04700713          	li	a4,71
    800026cc:	2ae60063          	beq	a2,a4,8000296c <_vsnprintf+0xc64>
    800026d0:	04500e93          	li	t4,69
    800026d4:	2bd50863          	beq	a0,t4,80002984 <_vsnprintf+0xc7c>
    800026d8:	000a3507          	fld	fa0,0(s4)
    800026dc:	000c0613          	mv	a2,s8
    800026e0:	00040793          	mv	a5,s0
    800026e4:	00088713          	mv	a4,a7
    800026e8:	00048693          	mv	a3,s1
    800026ec:	00090593          	mv	a1,s2
    800026f0:	00098513          	mv	a0,s3
    800026f4:	8c4ff0ef          	jal	ra,800017b8 <_etoa>
    800026f8:	008a0a13          	addi	s4,s4,8
    800026fc:	00050c13          	mv	s8,a0
    80002700:	eacff06f          	j	80001dac <_vsnprintf+0xa4>
    80002704:	02086293          	ori	t0,a6,32
    80002708:	0002881b          	sext.w	a6,t0
    8000270c:	a61ff06f          	j	8000216c <_vsnprintf+0x464>
    80002710:	00048693          	mv	a3,s1
    80002714:	000a0613          	mv	a2,s4
    80002718:	00090593          	mv	a1,s2
    8000271c:	000980e7          	jalr	s3
    80002720:	001a0c93          	addi	s9,s4,1
    80002724:	418c8533          	sub	a0,s9,s8
    80002728:	00ad07b3          	add	a5,s10,a0
    8000272c:	0007c503          	lbu	a0,0(a5)
    80002730:	e40502e3          	beqz	a0,80002574 <_vsnprintf+0x86c>
    80002734:	000c8613          	mv	a2,s9
    80002738:	00048693          	mv	a3,s1
    8000273c:	00090593          	mv	a1,s2
    80002740:	000980e7          	jalr	s3
    80002744:	002a0c93          	addi	s9,s4,2
    80002748:	418c83b3          	sub	t2,s9,s8
    8000274c:	007d0633          	add	a2,s10,t2
    80002750:	00064503          	lbu	a0,0(a2)
    80002754:	e20500e3          	beqz	a0,80002574 <_vsnprintf+0x86c>
    80002758:	00048693          	mv	a3,s1
    8000275c:	002a0613          	addi	a2,s4,2
    80002760:	00090593          	mv	a1,s2
    80002764:	000980e7          	jalr	s3
    80002768:	003a0c93          	addi	s9,s4,3
    8000276c:	418c8733          	sub	a4,s9,s8
    80002770:	00ed06b3          	add	a3,s10,a4
    80002774:	0006c503          	lbu	a0,0(a3)
    80002778:	de050ee3          	beqz	a0,80002574 <_vsnprintf+0x86c>
    8000277c:	00090593          	mv	a1,s2
    80002780:	00048693          	mv	a3,s1
    80002784:	003a0613          	addi	a2,s4,3
    80002788:	000980e7          	jalr	s3
    8000278c:	004a0c93          	addi	s9,s4,4
    80002790:	418c82b3          	sub	t0,s9,s8
    80002794:	005d05b3          	add	a1,s10,t0
    80002798:	0005c503          	lbu	a0,0(a1)
    8000279c:	dc050ce3          	beqz	a0,80002574 <_vsnprintf+0x86c>
    800027a0:	000c8a13          	mv	s4,s9
    800027a4:	02013f83          	ld	t6,32(sp)
    800027a8:	f74f94e3          	bne	t6,s4,80002710 <_vsnprintf+0xa08>
    800027ac:	02813d03          	ld	s10,40(sp)
    800027b0:	000f8c13          	mv	s8,t6
    800027b4:	dc0d06e3          	beqz	s10,80002580 <_vsnprintf+0x878>
    800027b8:	000c0a13          	mv	s4,s8
    800027bc:	dc8df2e3          	bgeu	s11,s0,80002580 <_vsnprintf+0x878>
    800027c0:	fff4041b          	addiw	s0,s0,-1
    800027c4:	41b40dbb          	subw	s11,s0,s11
    800027c8:	020d9c93          	slli	s9,s11,0x20
    800027cc:	020cd093          	srli	ra,s9,0x20
    800027d0:	001c0c13          	addi	s8,s8,1
    800027d4:	01808c33          	add	s8,ra,s8
    800027d8:	414c0e33          	sub	t3,s8,s4
    800027dc:	007e7e93          	andi	t4,t3,7
    800027e0:	0e0e8063          	beqz	t4,800028c0 <_vsnprintf+0xbb8>
    800027e4:	00100893          	li	a7,1
    800027e8:	0b1e8e63          	beq	t4,a7,800028a4 <_vsnprintf+0xb9c>
    800027ec:	00200f13          	li	t5,2
    800027f0:	09ee8e63          	beq	t4,t5,8000288c <_vsnprintf+0xb84>
    800027f4:	00300313          	li	t1,3
    800027f8:	066e8e63          	beq	t4,t1,80002874 <_vsnprintf+0xb6c>
    800027fc:	00400813          	li	a6,4
    80002800:	050e8e63          	beq	t4,a6,8000285c <_vsnprintf+0xb54>
    80002804:	00500f93          	li	t6,5
    80002808:	03fe8e63          	beq	t4,t6,80002844 <_vsnprintf+0xb3c>
    8000280c:	00600513          	li	a0,6
    80002810:	00ae8e63          	beq	t4,a0,8000282c <_vsnprintf+0xb24>
    80002814:	000a0613          	mv	a2,s4
    80002818:	00048693          	mv	a3,s1
    8000281c:	00090593          	mv	a1,s2
    80002820:	02000513          	li	a0,32
    80002824:	001a0a13          	addi	s4,s4,1
    80002828:	000980e7          	jalr	s3
    8000282c:	000a0613          	mv	a2,s4
    80002830:	00048693          	mv	a3,s1
    80002834:	00090593          	mv	a1,s2
    80002838:	02000513          	li	a0,32
    8000283c:	001a0a13          	addi	s4,s4,1
    80002840:	000980e7          	jalr	s3
    80002844:	000a0613          	mv	a2,s4
    80002848:	00048693          	mv	a3,s1
    8000284c:	00090593          	mv	a1,s2
    80002850:	02000513          	li	a0,32
    80002854:	001a0a13          	addi	s4,s4,1
    80002858:	000980e7          	jalr	s3
    8000285c:	000a0613          	mv	a2,s4
    80002860:	00048693          	mv	a3,s1
    80002864:	00090593          	mv	a1,s2
    80002868:	02000513          	li	a0,32
    8000286c:	001a0a13          	addi	s4,s4,1
    80002870:	000980e7          	jalr	s3
    80002874:	000a0613          	mv	a2,s4
    80002878:	00048693          	mv	a3,s1
    8000287c:	00090593          	mv	a1,s2
    80002880:	02000513          	li	a0,32
    80002884:	001a0a13          	addi	s4,s4,1
    80002888:	000980e7          	jalr	s3
    8000288c:	000a0613          	mv	a2,s4
    80002890:	00048693          	mv	a3,s1
    80002894:	00090593          	mv	a1,s2
    80002898:	02000513          	li	a0,32
    8000289c:	001a0a13          	addi	s4,s4,1
    800028a0:	000980e7          	jalr	s3
    800028a4:	000a0613          	mv	a2,s4
    800028a8:	00048693          	mv	a3,s1
    800028ac:	001a0a13          	addi	s4,s4,1
    800028b0:	00090593          	mv	a1,s2
    800028b4:	02000513          	li	a0,32
    800028b8:	000980e7          	jalr	s3
    800028bc:	cd8a02e3          	beq	s4,s8,80002580 <_vsnprintf+0x878>
    800028c0:	000a0613          	mv	a2,s4
    800028c4:	00048693          	mv	a3,s1
    800028c8:	00090593          	mv	a1,s2
    800028cc:	02000513          	li	a0,32
    800028d0:	000980e7          	jalr	s3
    800028d4:	001a0613          	addi	a2,s4,1
    800028d8:	00048693          	mv	a3,s1
    800028dc:	00090593          	mv	a1,s2
    800028e0:	02000513          	li	a0,32
    800028e4:	000980e7          	jalr	s3
    800028e8:	002a0613          	addi	a2,s4,2
    800028ec:	00048693          	mv	a3,s1
    800028f0:	00090593          	mv	a1,s2
    800028f4:	02000513          	li	a0,32
    800028f8:	000980e7          	jalr	s3
    800028fc:	003a0613          	addi	a2,s4,3
    80002900:	00048693          	mv	a3,s1
    80002904:	00090593          	mv	a1,s2
    80002908:	02000513          	li	a0,32
    8000290c:	000980e7          	jalr	s3
    80002910:	004a0613          	addi	a2,s4,4
    80002914:	00048693          	mv	a3,s1
    80002918:	00090593          	mv	a1,s2
    8000291c:	02000513          	li	a0,32
    80002920:	000980e7          	jalr	s3
    80002924:	005a0613          	addi	a2,s4,5
    80002928:	00048693          	mv	a3,s1
    8000292c:	00090593          	mv	a1,s2
    80002930:	02000513          	li	a0,32
    80002934:	000980e7          	jalr	s3
    80002938:	006a0613          	addi	a2,s4,6
    8000293c:	00048693          	mv	a3,s1
    80002940:	00090593          	mv	a1,s2
    80002944:	02000513          	li	a0,32
    80002948:	000980e7          	jalr	s3
    8000294c:	007a0613          	addi	a2,s4,7
    80002950:	00048693          	mv	a3,s1
    80002954:	008a0a13          	addi	s4,s4,8
    80002958:	00090593          	mv	a1,s2
    8000295c:	02000513          	li	a0,32
    80002960:	000980e7          	jalr	s3
    80002964:	f58a1ee3          	bne	s4,s8,800028c0 <_vsnprintf+0xbb8>
    80002968:	c19ff06f          	j	80002580 <_vsnprintf+0x878>
    8000296c:	01013d03          	ld	s10,16(sp)
    80002970:	0fd57f13          	andi	t5,a0,253
    80002974:	04500313          	li	t1,69
    80002978:	01a86833          	or	a6,a6,s10
    8000297c:	0008081b          	sext.w	a6,a6
    80002980:	d46f1ce3          	bne	t5,t1,800026d8 <_vsnprintf+0x9d0>
    80002984:	02086f93          	ori	t6,a6,32
    80002988:	000f881b          	sext.w	a6,t6
    8000298c:	d4dff06f          	j	800026d8 <_vsnprintf+0x9d0>
    80002990:	000c0c93          	mv	s9,s8
    80002994:	000c8613          	mv	a2,s9
    80002998:	00048693          	mv	a3,s1
    8000299c:	00090593          	mv	a1,s2
    800029a0:	000980e7          	jalr	s3
    800029a4:	001c8c93          	addi	s9,s9,1
    800029a8:	418c88b3          	sub	a7,s9,s8
    800029ac:	011d0f33          	add	t5,s10,a7
    800029b0:	000f4503          	lbu	a0,0(t5)
    800029b4:	000c8a13          	mv	s4,s9
    800029b8:	ba050ee3          	beqz	a0,80002574 <_vsnprintf+0x86c>
    800029bc:	00048693          	mv	a3,s1
    800029c0:	000a0613          	mv	a2,s4
    800029c4:	00090593          	mv	a1,s2
    800029c8:	000980e7          	jalr	s3
    800029cc:	001c8c93          	addi	s9,s9,1
    800029d0:	418c8333          	sub	t1,s9,s8
    800029d4:	006d0833          	add	a6,s10,t1
    800029d8:	00084503          	lbu	a0,0(a6)
    800029dc:	b8050ce3          	beqz	a0,80002574 <_vsnprintf+0x86c>
    800029e0:	000c8613          	mv	a2,s9
    800029e4:	00048693          	mv	a3,s1
    800029e8:	00090593          	mv	a1,s2
    800029ec:	000980e7          	jalr	s3
    800029f0:	002a0c93          	addi	s9,s4,2
    800029f4:	418c8533          	sub	a0,s9,s8
    800029f8:	00ad0fb3          	add	t6,s10,a0
    800029fc:	000fc503          	lbu	a0,0(t6)
    80002a00:	b6050ae3          	beqz	a0,80002574 <_vsnprintf+0x86c>
    80002a04:	000c8613          	mv	a2,s9
    80002a08:	00048693          	mv	a3,s1
    80002a0c:	00090593          	mv	a1,s2
    80002a10:	000980e7          	jalr	s3
    80002a14:	003a0c93          	addi	s9,s4,3
    80002a18:	418c87b3          	sub	a5,s9,s8
    80002a1c:	00fd03b3          	add	t2,s10,a5
    80002a20:	0003c503          	lbu	a0,0(t2)
    80002a24:	f60518e3          	bnez	a0,80002994 <_vsnprintf+0xc8c>
    80002a28:	000c8c13          	mv	s8,s9
    80002a2c:	b4dff06f          	j	80002578 <_vsnprintf+0x870>
    80002a30:	0c086b13          	ori	s6,a6,192
    80002a34:	000b081b          	sext.w	a6,s6
    80002a38:	00234503          	lbu	a0,2(t1)
    80002a3c:	00330b13          	addi	s6,t1,3
    80002a40:	c68ff06f          	j	80001ea8 <_vsnprintf+0x1a0>
    80002a44:	00000b93          	li	s7,0
    80002a48:	d69c6263          	bltu	s8,s1,80001fac <_vsnprintf+0x2a4>
    80002a4c:	d5cff06f          	j	80001fa8 <_vsnprintf+0x2a0>
    80002a50:	ff387713          	andi	a4,a6,-13
    80002a54:	00070e1b          	sext.w	t3,a4
    80002a58:	40087e93          	andi	t4,a6,1024
    80002a5c:	020e6693          	ori	a3,t3,32
    80002a60:	01000293          	li	t0,16
    80002a64:	4e0e8263          	beqz	t4,80002f48 <_vsnprintf+0x1240>
    80002a68:	ffe6ff93          	andi	t6,a3,-2
    80002a6c:	000f869b          	sext.w	a3,t6
    80002a70:	06900d93          	li	s11,105
    80002a74:	2006fd13          	andi	s10,a3,512
    80002a78:	e5b50063          	beq	a0,s11,800020b8 <_vsnprintf+0x3b0>
    80002a7c:	06400793          	li	a5,100
    80002a80:	e2f50c63          	beq	a0,a5,800020b8 <_vsnprintf+0x3b0>
    80002a84:	4e0d1e63          	bnez	s10,80002f80 <_vsnprintf+0x1278>
    80002a88:	1006f513          	andi	a0,a3,256
    80002a8c:	00068393          	mv	t2,a3
    80002a90:	54051c63          	bnez	a0,80002fe8 <_vsnprintf+0x12e0>
    80002a94:	0406f613          	andi	a2,a3,64
    80002a98:	4c061a63          	bnez	a2,80002f6c <_vsnprintf+0x1264>
    80002a9c:	0803f813          	andi	a6,t2,128
    80002aa0:	000a2583          	lw	a1,0(s4)
    80002aa4:	00080663          	beqz	a6,80002ab0 <_vsnprintf+0xda8>
    80002aa8:	01813a03          	ld	s4,24(sp)
    80002aac:	00ba75b3          	and	a1,s4,a1
    80002ab0:	000c0613          	mv	a2,s8
    80002ab4:	02059c13          	slli	s8,a1,0x20
    80002ab8:	00d13423          	sd	a3,8(sp)
    80002abc:	00813023          	sd	s0,0(sp)
    80002ac0:	00028813          	mv	a6,t0
    80002ac4:	00000793          	li	a5,0
    80002ac8:	020c5713          	srli	a4,s8,0x20
    80002acc:	e40ff06f          	j	8000210c <_vsnprintf+0x404>
    80002ad0:	001d8a1b          	addiw	s4,s11,1
    80002ad4:	548dfe63          	bgeu	s11,s0,80003030 <_vsnprintf+0x1328>
    80002ad8:	fff4051b          	addiw	a0,s0,-1
    80002adc:	41b50fbb          	subw	t6,a0,s11
    80002ae0:	020f9793          	slli	a5,t6,0x20
    80002ae4:	0207d093          	srli	ra,a5,0x20
    80002ae8:	001c0d93          	addi	s11,s8,1
    80002aec:	0070f393          	andi	t2,ra,7
    80002af0:	01b08a33          	add	s4,ra,s11
    80002af4:	1c038863          	beqz	t2,80002cc4 <_vsnprintf+0xfbc>
    80002af8:	000c0613          	mv	a2,s8
    80002afc:	03113023          	sd	a7,32(sp)
    80002b00:	02713c23          	sd	t2,56(sp)
    80002b04:	00048693          	mv	a3,s1
    80002b08:	00090593          	mv	a1,s2
    80002b0c:	02000513          	li	a0,32
    80002b10:	000980e7          	jalr	s3
    80002b14:	03813703          	ld	a4,56(sp)
    80002b18:	00100613          	li	a2,1
    80002b1c:	000d8c13          	mv	s8,s11
    80002b20:	02013883          	ld	a7,32(sp)
    80002b24:	001d8d93          	addi	s11,s11,1
    80002b28:	18c70e63          	beq	a4,a2,80002cc4 <_vsnprintf+0xfbc>
    80002b2c:	00200693          	li	a3,2
    80002b30:	0cd70a63          	beq	a4,a3,80002c04 <_vsnprintf+0xefc>
    80002b34:	00300293          	li	t0,3
    80002b38:	0a570463          	beq	a4,t0,80002be0 <_vsnprintf+0xed8>
    80002b3c:	00400593          	li	a1,4
    80002b40:	06b70e63          	beq	a4,a1,80002bbc <_vsnprintf+0xeb4>
    80002b44:	00500e13          	li	t3,5
    80002b48:	05c70863          	beq	a4,t3,80002b98 <_vsnprintf+0xe90>
    80002b4c:	00600e93          	li	t4,6
    80002b50:	03d70263          	beq	a4,t4,80002b74 <_vsnprintf+0xe6c>
    80002b54:	000c0613          	mv	a2,s8
    80002b58:	00048693          	mv	a3,s1
    80002b5c:	00090593          	mv	a1,s2
    80002b60:	02000513          	li	a0,32
    80002b64:	000980e7          	jalr	s3
    80002b68:	02013883          	ld	a7,32(sp)
    80002b6c:	000d8c13          	mv	s8,s11
    80002b70:	001d8d93          	addi	s11,s11,1
    80002b74:	03113023          	sd	a7,32(sp)
    80002b78:	000c0613          	mv	a2,s8
    80002b7c:	00048693          	mv	a3,s1
    80002b80:	00090593          	mv	a1,s2
    80002b84:	02000513          	li	a0,32
    80002b88:	000980e7          	jalr	s3
    80002b8c:	02013883          	ld	a7,32(sp)
    80002b90:	000d8c13          	mv	s8,s11
    80002b94:	001d8d93          	addi	s11,s11,1
    80002b98:	03113023          	sd	a7,32(sp)
    80002b9c:	000c0613          	mv	a2,s8
    80002ba0:	00048693          	mv	a3,s1
    80002ba4:	00090593          	mv	a1,s2
    80002ba8:	02000513          	li	a0,32
    80002bac:	000980e7          	jalr	s3
    80002bb0:	02013883          	ld	a7,32(sp)
    80002bb4:	000d8c13          	mv	s8,s11
    80002bb8:	001d8d93          	addi	s11,s11,1
    80002bbc:	03113023          	sd	a7,32(sp)
    80002bc0:	000c0613          	mv	a2,s8
    80002bc4:	00048693          	mv	a3,s1
    80002bc8:	00090593          	mv	a1,s2
    80002bcc:	02000513          	li	a0,32
    80002bd0:	000980e7          	jalr	s3
    80002bd4:	02013883          	ld	a7,32(sp)
    80002bd8:	000d8c13          	mv	s8,s11
    80002bdc:	001d8d93          	addi	s11,s11,1
    80002be0:	03113023          	sd	a7,32(sp)
    80002be4:	000c0613          	mv	a2,s8
    80002be8:	00048693          	mv	a3,s1
    80002bec:	00090593          	mv	a1,s2
    80002bf0:	02000513          	li	a0,32
    80002bf4:	000980e7          	jalr	s3
    80002bf8:	02013883          	ld	a7,32(sp)
    80002bfc:	000d8c13          	mv	s8,s11
    80002c00:	001d8d93          	addi	s11,s11,1
    80002c04:	03113023          	sd	a7,32(sp)
    80002c08:	000c0613          	mv	a2,s8
    80002c0c:	00048693          	mv	a3,s1
    80002c10:	00090593          	mv	a1,s2
    80002c14:	02000513          	li	a0,32
    80002c18:	000980e7          	jalr	s3
    80002c1c:	000d8c13          	mv	s8,s11
    80002c20:	02013883          	ld	a7,32(sp)
    80002c24:	001d8d93          	addi	s11,s11,1
    80002c28:	09c0006f          	j	80002cc4 <_vsnprintf+0xfbc>
    80002c2c:	000d8613          	mv	a2,s11
    80002c30:	00048693          	mv	a3,s1
    80002c34:	00090593          	mv	a1,s2
    80002c38:	02000513          	li	a0,32
    80002c3c:	000980e7          	jalr	s3
    80002c40:	001d8613          	addi	a2,s11,1
    80002c44:	00048693          	mv	a3,s1
    80002c48:	00090593          	mv	a1,s2
    80002c4c:	02000513          	li	a0,32
    80002c50:	000980e7          	jalr	s3
    80002c54:	002d8613          	addi	a2,s11,2
    80002c58:	00048693          	mv	a3,s1
    80002c5c:	00090593          	mv	a1,s2
    80002c60:	02000513          	li	a0,32
    80002c64:	000980e7          	jalr	s3
    80002c68:	003d8613          	addi	a2,s11,3
    80002c6c:	00048693          	mv	a3,s1
    80002c70:	00090593          	mv	a1,s2
    80002c74:	02000513          	li	a0,32
    80002c78:	000980e7          	jalr	s3
    80002c7c:	004d8613          	addi	a2,s11,4
    80002c80:	00048693          	mv	a3,s1
    80002c84:	00090593          	mv	a1,s2
    80002c88:	02000513          	li	a0,32
    80002c8c:	000980e7          	jalr	s3
    80002c90:	005d8613          	addi	a2,s11,5
    80002c94:	00048693          	mv	a3,s1
    80002c98:	00090593          	mv	a1,s2
    80002c9c:	02000513          	li	a0,32
    80002ca0:	000980e7          	jalr	s3
    80002ca4:	006d8613          	addi	a2,s11,6
    80002ca8:	00048693          	mv	a3,s1
    80002cac:	00090593          	mv	a1,s2
    80002cb0:	02000513          	li	a0,32
    80002cb4:	000980e7          	jalr	s3
    80002cb8:	02013883          	ld	a7,32(sp)
    80002cbc:	007d8c13          	addi	s8,s11,7
    80002cc0:	008d8d93          	addi	s11,s11,8
    80002cc4:	03113023          	sd	a7,32(sp)
    80002cc8:	000c0613          	mv	a2,s8
    80002ccc:	00048693          	mv	a3,s1
    80002cd0:	00090593          	mv	a1,s2
    80002cd4:	02000513          	li	a0,32
    80002cd8:	000980e7          	jalr	s3
    80002cdc:	02013883          	ld	a7,32(sp)
    80002ce0:	000d8c13          	mv	s8,s11
    80002ce4:	f54d94e3          	bne	s11,s4,80002c2c <_vsnprintf+0xf24>
    80002ce8:	000d4503          	lbu	a0,0(s10)
    80002cec:	00140d9b          	addiw	s11,s0,1
    80002cf0:	fc051a63          	bnez	a0,800024c4 <_vsnprintf+0x7bc>
    80002cf4:	03013a03          	ld	s4,48(sp)
    80002cf8:	8b4ff06f          	j	80001dac <_vsnprintf+0xa4>
    80002cfc:	00100513          	li	a0,1
    80002d00:	32857263          	bgeu	a0,s0,80003024 <_vsnprintf+0x131c>
    80002d04:	ffe4079b          	addiw	a5,s0,-2
    80002d08:	02079393          	slli	t2,a5,0x20
    80002d0c:	0203d693          	srli	a3,t2,0x20
    80002d10:	0076f613          	andi	a2,a3,7
    80002d14:	01a68433          	add	s0,a3,s10
    80002d18:	18060c63          	beqz	a2,80002eb0 <_vsnprintf+0x11a8>
    80002d1c:	02c13023          	sd	a2,32(sp)
    80002d20:	00048693          	mv	a3,s1
    80002d24:	000c0613          	mv	a2,s8
    80002d28:	00090593          	mv	a1,s2
    80002d2c:	02000513          	li	a0,32
    80002d30:	000980e7          	jalr	s3
    80002d34:	02013283          	ld	t0,32(sp)
    80002d38:	00100713          	li	a4,1
    80002d3c:	000d0c13          	mv	s8,s10
    80002d40:	001d0d13          	addi	s10,s10,1
    80002d44:	16e28663          	beq	t0,a4,80002eb0 <_vsnprintf+0x11a8>
    80002d48:	00200593          	li	a1,2
    80002d4c:	0ab28863          	beq	t0,a1,80002dfc <_vsnprintf+0x10f4>
    80002d50:	00300093          	li	ra,3
    80002d54:	08128663          	beq	t0,ra,80002de0 <_vsnprintf+0x10d8>
    80002d58:	00400e13          	li	t3,4
    80002d5c:	07c28463          	beq	t0,t3,80002dc4 <_vsnprintf+0x10bc>
    80002d60:	00500e93          	li	t4,5
    80002d64:	05d28263          	beq	t0,t4,80002da8 <_vsnprintf+0x10a0>
    80002d68:	00600893          	li	a7,6
    80002d6c:	03128063          	beq	t0,a7,80002d8c <_vsnprintf+0x1084>
    80002d70:	00048693          	mv	a3,s1
    80002d74:	000d8613          	mv	a2,s11
    80002d78:	00090593          	mv	a1,s2
    80002d7c:	02000513          	li	a0,32
    80002d80:	000d0c13          	mv	s8,s10
    80002d84:	000980e7          	jalr	s3
    80002d88:	001d0d13          	addi	s10,s10,1
    80002d8c:	000c0613          	mv	a2,s8
    80002d90:	00048693          	mv	a3,s1
    80002d94:	00090593          	mv	a1,s2
    80002d98:	02000513          	li	a0,32
    80002d9c:	000d0c13          	mv	s8,s10
    80002da0:	000980e7          	jalr	s3
    80002da4:	001d0d13          	addi	s10,s10,1
    80002da8:	000c0613          	mv	a2,s8
    80002dac:	00048693          	mv	a3,s1
    80002db0:	00090593          	mv	a1,s2
    80002db4:	02000513          	li	a0,32
    80002db8:	000d0c13          	mv	s8,s10
    80002dbc:	000980e7          	jalr	s3
    80002dc0:	001d0d13          	addi	s10,s10,1
    80002dc4:	000c0613          	mv	a2,s8
    80002dc8:	00048693          	mv	a3,s1
    80002dcc:	00090593          	mv	a1,s2
    80002dd0:	02000513          	li	a0,32
    80002dd4:	000d0c13          	mv	s8,s10
    80002dd8:	000980e7          	jalr	s3
    80002ddc:	001d0d13          	addi	s10,s10,1
    80002de0:	000c0613          	mv	a2,s8
    80002de4:	00048693          	mv	a3,s1
    80002de8:	00090593          	mv	a1,s2
    80002dec:	02000513          	li	a0,32
    80002df0:	000d0c13          	mv	s8,s10
    80002df4:	000980e7          	jalr	s3
    80002df8:	001d0d13          	addi	s10,s10,1
    80002dfc:	000c0613          	mv	a2,s8
    80002e00:	00048693          	mv	a3,s1
    80002e04:	00090593          	mv	a1,s2
    80002e08:	02000513          	li	a0,32
    80002e0c:	000d0c13          	mv	s8,s10
    80002e10:	000980e7          	jalr	s3
    80002e14:	001d0d13          	addi	s10,s10,1
    80002e18:	0980006f          	j	80002eb0 <_vsnprintf+0x11a8>
    80002e1c:	000d0613          	mv	a2,s10
    80002e20:	00048693          	mv	a3,s1
    80002e24:	00090593          	mv	a1,s2
    80002e28:	02000513          	li	a0,32
    80002e2c:	000980e7          	jalr	s3
    80002e30:	001d0613          	addi	a2,s10,1
    80002e34:	00048693          	mv	a3,s1
    80002e38:	00090593          	mv	a1,s2
    80002e3c:	02000513          	li	a0,32
    80002e40:	000980e7          	jalr	s3
    80002e44:	002d0613          	addi	a2,s10,2
    80002e48:	00048693          	mv	a3,s1
    80002e4c:	00090593          	mv	a1,s2
    80002e50:	02000513          	li	a0,32
    80002e54:	000980e7          	jalr	s3
    80002e58:	003d0613          	addi	a2,s10,3
    80002e5c:	00048693          	mv	a3,s1
    80002e60:	00090593          	mv	a1,s2
    80002e64:	02000513          	li	a0,32
    80002e68:	000980e7          	jalr	s3
    80002e6c:	004d0613          	addi	a2,s10,4
    80002e70:	00048693          	mv	a3,s1
    80002e74:	00090593          	mv	a1,s2
    80002e78:	02000513          	li	a0,32
    80002e7c:	000980e7          	jalr	s3
    80002e80:	005d0613          	addi	a2,s10,5
    80002e84:	00048693          	mv	a3,s1
    80002e88:	00090593          	mv	a1,s2
    80002e8c:	02000513          	li	a0,32
    80002e90:	000980e7          	jalr	s3
    80002e94:	006d0613          	addi	a2,s10,6
    80002e98:	00048693          	mv	a3,s1
    80002e9c:	00090593          	mv	a1,s2
    80002ea0:	02000513          	li	a0,32
    80002ea4:	007d0c13          	addi	s8,s10,7
    80002ea8:	000980e7          	jalr	s3
    80002eac:	008d0d13          	addi	s10,s10,8
    80002eb0:	00048693          	mv	a3,s1
    80002eb4:	000c0613          	mv	a2,s8
    80002eb8:	00090593          	mv	a1,s2
    80002ebc:	02000513          	li	a0,32
    80002ec0:	000980e7          	jalr	s3
    80002ec4:	f48d1ce3          	bne	s10,s0,80002e1c <_vsnprintf+0x1114>
    80002ec8:	00140c13          	addi	s8,s0,1
    80002ecc:	000a4503          	lbu	a0,0(s4)
    80002ed0:	00048693          	mv	a3,s1
    80002ed4:	00040613          	mv	a2,s0
    80002ed8:	00090593          	mv	a1,s2
    80002edc:	000980e7          	jalr	s3
    80002ee0:	000c8a13          	mv	s4,s9
    80002ee4:	ec9fe06f          	j	80001dac <_vsnprintf+0xa4>
    80002ee8:	000a3083          	ld	ra,0(s4)
    80002eec:	000c0613          	mv	a2,s8
    80002ef0:	00d13423          	sd	a3,8(sp)
    80002ef4:	43f0dc13          	srai	s8,ra,0x3f
    80002ef8:	001c4e33          	xor	t3,s8,ra
    80002efc:	00813023          	sd	s0,0(sp)
    80002f00:	00028813          	mv	a6,t0
    80002f04:	03f0d793          	srli	a5,ra,0x3f
    80002f08:	418e0733          	sub	a4,t3,s8
    80002f0c:	00048693          	mv	a3,s1
    80002f10:	00090593          	mv	a1,s2
    80002f14:	00098513          	mv	a0,s3
    80002f18:	849fd0ef          	jal	ra,80000760 <_ntoa_long>
    80002f1c:	00050c13          	mv	s8,a0
    80002f20:	000c8a13          	mv	s4,s9
    80002f24:	e89fe06f          	j	80001dac <_vsnprintf+0xa4>
    80002f28:	40087f13          	andi	t5,a6,1024
    80002f2c:	01000293          	li	t0,16
    80002f30:	ff387313          	andi	t1,a6,-13
    80002f34:	0003069b          	sext.w	a3,t1
    80002f38:	b20f0ce3          	beqz	t5,80002a70 <_vsnprintf+0xd68>
    80002f3c:	b2dff06f          	j	80002a68 <_vsnprintf+0xd60>
    80002f40:	00a00293          	li	t0,10
    80002f44:	b25ff06f          	j	80002a68 <_vsnprintf+0xd60>
    80002f48:	20087d13          	andi	s10,a6,512
    80002f4c:	b39ff06f          	j	80002a84 <_vsnprintf+0xd7c>
    80002f50:	0ffefe93          	andi	t4,t4,255
    80002f54:	000e8713          	mv	a4,t4
    80002f58:	9a0ff06f          	j	800020f8 <_vsnprintf+0x3f0>
    80002f5c:	001d4c83          	lbu	s9,1(s10)
    80002f60:	001d0d93          	addi	s11,s10,1
    80002f64:	c80c9263          	bnez	s9,800023e8 <_vsnprintf+0x6e0>
    80002f68:	d30ff06f          	j	80002498 <_vsnprintf+0x790>
    80002f6c:	000a4583          	lbu	a1,0(s4)
    80002f70:	b41ff06f          	j	80002ab0 <_vsnprintf+0xda8>
    80002f74:	000d0c13          	mv	s8,s10
    80002f78:	000c8a13          	mv	s4,s9
    80002f7c:	e31fe06f          	j	80001dac <_vsnprintf+0xa4>
    80002f80:	000a3703          	ld	a4,0(s4)
    80002f84:	000c0613          	mv	a2,s8
    80002f88:	00d13423          	sd	a3,8(sp)
    80002f8c:	00813023          	sd	s0,0(sp)
    80002f90:	00028813          	mv	a6,t0
    80002f94:	00000793          	li	a5,0
    80002f98:	f75ff06f          	j	80002f0c <_vsnprintf+0x1204>
    80002f9c:	00800293          	li	t0,8
    80002fa0:	00080693          	mv	a3,a6
    80002fa4:	06400593          	li	a1,100
    80002fa8:	00068093          	mv	ra,a3
    80002fac:	4006ff13          	andi	t5,a3,1024
    80002fb0:	08b51a63          	bne	a0,a1,80003044 <_vsnprintf+0x133c>
    80002fb4:	2000fd13          	andi	s10,ra,512
    80002fb8:	900f0063          	beqz	t5,800020b8 <_vsnprintf+0x3b0>
    80002fbc:	aadff06f          	j	80002a68 <_vsnprintf+0xd60>
    80002fc0:	000a3a03          	ld	s4,0(s4)
    80002fc4:	00d13423          	sd	a3,8(sp)
    80002fc8:	000c0613          	mv	a2,s8
    80002fcc:	43fa5593          	srai	a1,s4,0x3f
    80002fd0:	0145c6b3          	xor	a3,a1,s4
    80002fd4:	00813023          	sd	s0,0(sp)
    80002fd8:	00028813          	mv	a6,t0
    80002fdc:	03fa5793          	srli	a5,s4,0x3f
    80002fe0:	40b68733          	sub	a4,a3,a1
    80002fe4:	928ff06f          	j	8000210c <_vsnprintf+0x404>
    80002fe8:	000a3703          	ld	a4,0(s4)
    80002fec:	000c0613          	mv	a2,s8
    80002ff0:	00d13423          	sd	a3,8(sp)
    80002ff4:	00813023          	sd	s0,0(sp)
    80002ff8:	00028813          	mv	a6,t0
    80002ffc:	00000793          	li	a5,0
    80003000:	90cff06f          	j	8000210c <_vsnprintf+0x404>
    80003004:	00200293          	li	t0,2
    80003008:	f99ff06f          	j	80002fa0 <_vsnprintf+0x1298>
    8000300c:	41fedf1b          	sraiw	t5,t4,0x1f
    80003010:	01eec333          	xor	t1,t4,t5
    80003014:	41e3073b          	subw	a4,t1,t5
    80003018:	8e0ff06f          	j	800020f8 <_vsnprintf+0x3f0>
    8000301c:	00000d93          	li	s11,0
    80003020:	c7cff06f          	j	8000249c <_vsnprintf+0x794>
    80003024:	000c0413          	mv	s0,s8
    80003028:	000d0c13          	mv	s8,s10
    8000302c:	ea1ff06f          	j	80002ecc <_vsnprintf+0x11c4>
    80003030:	000a0d93          	mv	s11,s4
    80003034:	c8051863          	bnez	a0,800024c4 <_vsnprintf+0x7bc>
    80003038:	cbdff06f          	j	80002cf4 <_vsnprintf+0xfec>
    8000303c:	00a00293          	li	t0,10
    80003040:	f65ff06f          	j	80002fa4 <_vsnprintf+0x129c>
    80003044:	00068813          	mv	a6,a3
    80003048:	ee9ff06f          	j	80002f30 <_vsnprintf+0x1228>

Disassembly of section .text.printf_:

000000008000304c <printf_>:
    8000304c:	fa010113          	addi	sp,sp,-96
    80003050:	02810313          	addi	t1,sp,40
    80003054:	02b13423          	sd	a1,40(sp)
    80003058:	02c13823          	sd	a2,48(sp)
    8000305c:	02d13c23          	sd	a3,56(sp)
    80003060:	04e13023          	sd	a4,64(sp)
    80003064:	00050693          	mv	a3,a0
    80003068:	00010593          	mv	a1,sp
    8000306c:	00030713          	mv	a4,t1
    80003070:	fff00613          	li	a2,-1
    80003074:	ffffe517          	auipc	a0,0xffffe
    80003078:	e4050513          	addi	a0,a0,-448 # 80000eb4 <_out_char>
    8000307c:	00113c23          	sd	ra,24(sp)
    80003080:	04f13423          	sd	a5,72(sp)
    80003084:	05013823          	sd	a6,80(sp)
    80003088:	05113c23          	sd	a7,88(sp)
    8000308c:	00613423          	sd	t1,8(sp)
    80003090:	c79fe0ef          	jal	ra,80001d08 <_vsnprintf>
    80003094:	01813083          	ld	ra,24(sp)
    80003098:	06010113          	addi	sp,sp,96
    8000309c:	00008067          	ret
