
/nfs/home/fuwenyi/xiaohe/nexus-am/apps/jtag/build/jtag-riscv64-nutshell.elf：     文件格式 elf64-littleriscv


Disassembly of section .text:

0000000080000000 <_start>:
    80000000:	00000413          	li	s0,0
    80000004:	00006117          	auipc	sp,0x6
    80000008:	ffc10113          	add	sp,sp,-4 # 80006000 <_stack_top+0x4000>
    8000000c:	f14022f3          	csrr	t0,mhartid
    80000010:	00029463          	bnez	t0,80000018 <setup_stack1>

0000000080000014 <to_main>:
    80000014:	08c000ef          	jal	800000a0 <_trm_init>

0000000080000018 <setup_stack1>:
    80000018:	0000a117          	auipc	sp,0xa
    8000001c:	fe810113          	add	sp,sp,-24 # 8000a000 <_end>
    80000020:	ff5ff06f          	j	80000014 <to_main>

Disassembly of section .text.startup:

0000000080000024 <main>:
    80000024:	fe010113          	add	sp,sp,-32
    80000028:	00813823          	sd	s0,16(sp)
    8000002c:	00913423          	sd	s1,8(sp)
    80000030:	01213023          	sd	s2,0(sp)
    80000034:	00113c23          	sd	ra,24(sp)
    80000038:	00000413          	li	s0,0
    8000003c:	00002917          	auipc	s2,0x2
    80000040:	8a490913          	add	s2,s2,-1884 # 800018e0 <printf_+0x54>
    80000044:	0c800493          	li	s1,200
    80000048:	00040593          	mv	a1,s0
    8000004c:	00090513          	mv	a0,s2
    80000050:	0014041b          	addw	s0,s0,1
    80000054:	039010ef          	jal	8000188c <printf_>
    80000058:	fe9418e3          	bne	s0,s1,80000048 <main+0x24>
    8000005c:	01813083          	ld	ra,24(sp)
    80000060:	01013403          	ld	s0,16(sp)
    80000064:	00813483          	ld	s1,8(sp)
    80000068:	00013903          	ld	s2,0(sp)
    8000006c:	00000513          	li	a0,0
    80000070:	02010113          	add	sp,sp,32
    80000074:	00008067          	ret

Disassembly of section .text._putc:

0000000080000078 <_putc>:
    80000078:	0640006f          	j	800000dc <__am_uartlite_putchar>

Disassembly of section .text._halt:

000000008000007c <_halt>:
    8000007c:	ff010113          	add	sp,sp,-16
    80000080:	00113423          	sd	ra,8(sp)
    80000084:	00050593          	mv	a1,a0
    80000088:	00050513          	mv	a0,a0
    8000008c:	0005006b          	.word	0x0005006b
    80000090:	00002517          	auipc	a0,0x2
    80000094:	86850513          	add	a0,a0,-1944 # 800018f8 <printf_+0x6c>
    80000098:	7f4010ef          	jal	8000188c <printf_>
    8000009c:	0000006f          	j	8000009c <_halt+0x20>

Disassembly of section .text._trm_init:

00000000800000a0 <_trm_init>:
    800000a0:	ff010113          	add	sp,sp,-16
    800000a4:	00113423          	sd	ra,8(sp)
    800000a8:	f14027f3          	csrr	a5,mhartid
    800000ac:	0007879b          	sext.w	a5,a5
    800000b0:	00078a63          	beqz	a5,800000c4 <_trm_init+0x24>
    800000b4:	00002517          	auipc	a0,0x2
    800000b8:	85950513          	add	a0,a0,-1959 # 8000190d <__am_mainargs>
    800000bc:	f69ff0ef          	jal	80000024 <main>
    800000c0:	fbdff0ef          	jal	8000007c <_halt>
    800000c4:	008000ef          	jal	800000cc <__am_init_uartlite>
    800000c8:	fedff06f          	j	800000b4 <_trm_init+0x14>

Disassembly of section .text.__am_init_uartlite:

00000000800000cc <__am_init_uartlite>:
    800000cc:	406007b7          	lui	a5,0x40600
    800000d0:	00300713          	li	a4,3
    800000d4:	00e78623          	sb	a4,12(a5) # 4060000c <_start-0x3f9ffff4>
    800000d8:	00008067          	ret

Disassembly of section .text.__am_uartlite_putchar:

00000000800000dc <__am_uartlite_putchar>:
    800000dc:	00a00793          	li	a5,10
    800000e0:	00f50e63          	beq	a0,a5,800000fc <__am_uartlite_putchar+0x20>
    800000e4:	40600737          	lui	a4,0x40600
    800000e8:	00874783          	lbu	a5,8(a4) # 40600008 <_start-0x3f9ffff8>
    800000ec:	0087f793          	and	a5,a5,8
    800000f0:	fe079ce3          	bnez	a5,800000e8 <__am_uartlite_putchar+0xc>
    800000f4:	00a70223          	sb	a0,4(a4)
    800000f8:	00008067          	ret
    800000fc:	40600737          	lui	a4,0x40600
    80000100:	00874783          	lbu	a5,8(a4) # 40600008 <_start-0x3f9ffff8>
    80000104:	0087f793          	and	a5,a5,8
    80000108:	fe079ce3          	bnez	a5,80000100 <__am_uartlite_putchar+0x24>
    8000010c:	00d00793          	li	a5,13
    80000110:	00f70223          	sb	a5,4(a4)
    80000114:	fd1ff06f          	j	800000e4 <__am_uartlite_putchar+0x8>

Disassembly of section .text._out_null:

0000000080000118 <_out_null>:
    80000118:	00008067          	ret

Disassembly of section .text._out_rev:

000000008000011c <_out_rev>:
    8000011c:	fa010113          	add	sp,sp,-96
    80000120:	04913423          	sd	s1,72(sp)
    80000124:	05213023          	sd	s2,64(sp)
    80000128:	03313c23          	sd	s3,56(sp)
    8000012c:	03413823          	sd	s4,48(sp)
    80000130:	03513423          	sd	s5,40(sp)
    80000134:	03613023          	sd	s6,32(sp)
    80000138:	00060a93          	mv	s5,a2
    8000013c:	01813823          	sd	s8,16(sp)
    80000140:	01913423          	sd	s9,8(sp)
    80000144:	01a13023          	sd	s10,0(sp)
    80000148:	04113c23          	sd	ra,88(sp)
    8000014c:	04813823          	sd	s0,80(sp)
    80000150:	01713c23          	sd	s7,24(sp)
    80000154:	0038f613          	and	a2,a7,3
    80000158:	00088c93          	mv	s9,a7
    8000015c:	00050913          	mv	s2,a0
    80000160:	00058993          	mv	s3,a1
    80000164:	00068a13          	mv	s4,a3
    80000168:	00070b13          	mv	s6,a4
    8000016c:	00078d13          	mv	s10,a5
    80000170:	00080c13          	mv	s8,a6
    80000174:	000a8493          	mv	s1,s5
    80000178:	02061c63          	bnez	a2,800001b0 <_out_rev+0x94>
    8000017c:	02081793          	sll	a5,a6,0x20
    80000180:	0207d793          	srl	a5,a5,0x20
    80000184:	41a784b3          	sub	s1,a5,s10
    80000188:	015484b3          	add	s1,s1,s5
    8000018c:	000a8413          	mv	s0,s5
    80000190:	0cfd7063          	bgeu	s10,a5,80000250 <_out_rev+0x134>
    80000194:	00040613          	mv	a2,s0
    80000198:	000a0693          	mv	a3,s4
    8000019c:	00140413          	add	s0,s0,1
    800001a0:	00098593          	mv	a1,s3
    800001a4:	02000513          	li	a0,32
    800001a8:	000900e7          	jalr	s2
    800001ac:	fe9414e3          	bne	s0,s1,80000194 <_out_rev+0x78>
    800001b0:	01ab0433          	add	s0,s6,s10
    800001b4:	00940bb3          	add	s7,s0,s1
    800001b8:	020d0263          	beqz	s10,800001dc <_out_rev+0xc0>
    800001bc:	fff44503          	lbu	a0,-1(s0)
    800001c0:	408b8633          	sub	a2,s7,s0
    800001c4:	000a0693          	mv	a3,s4
    800001c8:	fff40413          	add	s0,s0,-1
    800001cc:	00098593          	mv	a1,s3
    800001d0:	000900e7          	jalr	s2
    800001d4:	fe8b14e3          	bne	s6,s0,800001bc <_out_rev+0xa0>
    800001d8:	01a484b3          	add	s1,s1,s10
    800001dc:	002cfc93          	and	s9,s9,2
    800001e0:	020c8a63          	beqz	s9,80000214 <_out_rev+0xf8>
    800001e4:	020c1c13          	sll	s8,s8,0x20
    800001e8:	41548ab3          	sub	s5,s1,s5
    800001ec:	020c5c13          	srl	s8,s8,0x20
    800001f0:	038af263          	bgeu	s5,s8,80000214 <_out_rev+0xf8>
    800001f4:	00048613          	mv	a2,s1
    800001f8:	001a8a93          	add	s5,s5,1
    800001fc:	000a0693          	mv	a3,s4
    80000200:	00098593          	mv	a1,s3
    80000204:	02000513          	li	a0,32
    80000208:	00148493          	add	s1,s1,1
    8000020c:	000900e7          	jalr	s2
    80000210:	ff8ae2e3          	bltu	s5,s8,800001f4 <_out_rev+0xd8>
    80000214:	05813083          	ld	ra,88(sp)
    80000218:	05013403          	ld	s0,80(sp)
    8000021c:	04013903          	ld	s2,64(sp)
    80000220:	03813983          	ld	s3,56(sp)
    80000224:	03013a03          	ld	s4,48(sp)
    80000228:	02813a83          	ld	s5,40(sp)
    8000022c:	02013b03          	ld	s6,32(sp)
    80000230:	01813b83          	ld	s7,24(sp)
    80000234:	01013c03          	ld	s8,16(sp)
    80000238:	00813c83          	ld	s9,8(sp)
    8000023c:	00013d03          	ld	s10,0(sp)
    80000240:	00048513          	mv	a0,s1
    80000244:	04813483          	ld	s1,72(sp)
    80000248:	06010113          	add	sp,sp,96
    8000024c:	00008067          	ret
    80000250:	000a8493          	mv	s1,s5
    80000254:	f5dff06f          	j	800001b0 <_out_rev+0x94>

Disassembly of section .text._ntoa_long:

0000000080000258 <_ntoa_long>:
    80000258:	fb010113          	add	sp,sp,-80
    8000025c:	04813023          	sd	s0,64(sp)
    80000260:	05812403          	lw	s0,88(sp)
    80000264:	02913c23          	sd	s1,56(sp)
    80000268:	03213823          	sd	s2,48(sp)
    8000026c:	03313423          	sd	s3,40(sp)
    80000270:	04113423          	sd	ra,72(sp)
    80000274:	00080e93          	mv	t4,a6
    80000278:	00070e13          	mv	t3,a4
    8000027c:	05012803          	lw	a6,80(sp)
    80000280:	00078493          	mv	s1,a5
    80000284:	40047993          	and	s3,s0,1024
    80000288:	01047913          	and	s2,s0,16
    8000028c:	00071a63          	bnez	a4,800002a0 <_ntoa_long+0x48>
    80000290:	00040913          	mv	s2,s0
    80000294:	fef47413          	and	s0,s0,-17
    80000298:	0a099e63          	bnez	s3,80000354 <_ntoa_long+0xfc>
    8000029c:	00000913          	li	s2,0
    800002a0:	02047793          	and	a5,s0,32
    800002a4:	06100293          	li	t0,97
    800002a8:	12079c63          	bnez	a5,800003e0 <_ntoa_long+0x188>
    800002ac:	00000793          	li	a5,0
    800002b0:	00010713          	mv	a4,sp
    800002b4:	00900393          	li	t2,9
    800002b8:	ff62829b          	addw	t0,t0,-10
    800002bc:	02000093          	li	ra,32
    800002c0:	00c0006f          	j	800002cc <_ntoa_long+0x74>
    800002c4:	02178c63          	beq	a5,ra,800002fc <_ntoa_long+0xa4>
    800002c8:	00030e13          	mv	t3,t1
    800002cc:	03de7f33          	remu	t5,t3,t4
    800002d0:	0fff7313          	zext.b	t1,t5
    800002d4:	03030f9b          	addw	t6,t1,48
    800002d8:	0062833b          	addw	t1,t0,t1
    800002dc:	0ff37313          	zext.b	t1,t1
    800002e0:	01e3e463          	bltu	t2,t5,800002e8 <_ntoa_long+0x90>
    800002e4:	0ffff313          	zext.b	t1,t6
    800002e8:	00178793          	add	a5,a5,1
    800002ec:	00f70f33          	add	t5,a4,a5
    800002f0:	fe6f0fa3          	sb	t1,-1(t5)
    800002f4:	03de5333          	divu	t1,t3,t4
    800002f8:	fdde76e3          	bgeu	t3,t4,800002c4 <_ntoa_long+0x6c>
    800002fc:	00247313          	and	t1,s0,2
    80000300:	000e839b          	sext.w	t2,t4
    80000304:	06030263          	beqz	t1,80000368 <_ntoa_long+0x110>
    80000308:	12090063          	beqz	s2,80000428 <_ntoa_long+0x1d0>
    8000030c:	16099e63          	bnez	s3,80000488 <_ntoa_long+0x230>
    80000310:	0c079c63          	bnez	a5,800003e8 <_ntoa_long+0x190>
    80000314:	01000793          	li	a5,16
    80000318:	2cfe8063          	beq	t4,a5,800005d8 <_ntoa_long+0x380>
    8000031c:	00200793          	li	a5,2
    80000320:	2cf38663          	beq	t2,a5,800005ec <_ntoa_long+0x394>
    80000324:	03000793          	li	a5,48
    80000328:	00f10023          	sb	a5,0(sp)
    8000032c:	00100e13          	li	t3,1
    80000330:	18049e63          	bnez	s1,800004cc <_ntoa_long+0x274>
    80000334:	00447793          	and	a5,s0,4
    80000338:	22078663          	beqz	a5,80000564 <_ntoa_long+0x30c>
    8000033c:	020e0793          	add	a5,t3,32
    80000340:	002788b3          	add	a7,a5,sp
    80000344:	02b00313          	li	t1,43
    80000348:	001e0793          	add	a5,t3,1
    8000034c:	fe688023          	sb	t1,-32(a7)
    80000350:	0e40006f          	j	80000434 <_ntoa_long+0x1dc>
    80000354:	00297913          	and	s2,s2,2
    80000358:	18091663          	bnez	s2,800004e4 <_ntoa_long+0x28c>
    8000035c:	000e839b          	sext.w	t2,t4
    80000360:	00000793          	li	a5,0
    80000364:	00010713          	mv	a4,sp
    80000368:	02089e13          	sll	t3,a7,0x20
    8000036c:	020e5e13          	srl	t3,t3,0x20
    80000370:	0e081463          	bnez	a6,80000458 <_ntoa_long+0x200>
    80000374:	f9c7fae3          	bgeu	a5,t3,80000308 <_ntoa_long+0xb0>
    80000378:	02000313          	li	t1,32
    8000037c:	00147293          	and	t0,s0,1
    80000380:	26678e63          	beq	a5,t1,800005fc <_ntoa_long+0x3a4>
    80000384:	03000f13          	li	t5,48
    80000388:	02000f93          	li	t6,32
    8000038c:	0080006f          	j	80000394 <_ntoa_long+0x13c>
    80000390:	11f78e63          	beq	a5,t6,800004ac <_ntoa_long+0x254>
    80000394:	00178793          	add	a5,a5,1
    80000398:	00f70333          	add	t1,a4,a5
    8000039c:	ffe30fa3          	sb	t5,-1(t1)
    800003a0:	ffc7e8e3          	bltu	a5,t3,80000390 <_ntoa_long+0x138>
    800003a4:	f60282e3          	beqz	t0,80000308 <_ntoa_long+0xb0>
    800003a8:	02081f13          	sll	t5,a6,0x20
    800003ac:	020f5f13          	srl	t5,t5,0x20
    800003b0:	f5e7fce3          	bgeu	a5,t5,80000308 <_ntoa_long+0xb0>
    800003b4:	02000313          	li	t1,32
    800003b8:	03000f93          	li	t6,48
    800003bc:	02000293          	li	t0,32
    800003c0:	00679663          	bne	a5,t1,800003cc <_ntoa_long+0x174>
    800003c4:	0f00006f          	j	800004b4 <_ntoa_long+0x25c>
    800003c8:	18578a63          	beq	a5,t0,8000055c <_ntoa_long+0x304>
    800003cc:	00178793          	add	a5,a5,1
    800003d0:	00f70333          	add	t1,a4,a5
    800003d4:	fff30fa3          	sb	t6,-1(t1)
    800003d8:	ffe798e3          	bne	a5,t5,800003c8 <_ntoa_long+0x170>
    800003dc:	f2dff06f          	j	80000308 <_ntoa_long+0xb0>
    800003e0:	04100293          	li	t0,65
    800003e4:	ec9ff06f          	j	800002ac <_ntoa_long+0x54>
    800003e8:	02089e13          	sll	t3,a7,0x20
    800003ec:	020e5e13          	srl	t3,t3,0x20
    800003f0:	00fe0863          	beq	t3,a5,80000400 <_ntoa_long+0x1a8>
    800003f4:	02081893          	sll	a7,a6,0x20
    800003f8:	0208d893          	srl	a7,a7,0x20
    800003fc:	08f89663          	bne	a7,a5,80000488 <_ntoa_long+0x230>
    80000400:	fff78893          	add	a7,a5,-1
    80000404:	1a088263          	beqz	a7,800005a8 <_ntoa_long+0x350>
    80000408:	01000313          	li	t1,16
    8000040c:	1e6e8e63          	beq	t4,t1,80000608 <_ntoa_long+0x3b0>
    80000410:	00200313          	li	t1,2
    80000414:	12638663          	beq	t2,t1,80000540 <_ntoa_long+0x2e8>
    80000418:	02088893          	add	a7,a7,32
    8000041c:	002888b3          	add	a7,a7,sp
    80000420:	03000313          	li	t1,48
    80000424:	fe688023          	sb	t1,-32(a7)
    80000428:	02000893          	li	a7,32
    8000042c:	00078e13          	mv	t3,a5
    80000430:	f11790e3          	bne	a5,a7,80000330 <_ntoa_long+0xd8>
    80000434:	00040893          	mv	a7,s0
    80000438:	ce5ff0ef          	jal	8000011c <_out_rev>
    8000043c:	04813083          	ld	ra,72(sp)
    80000440:	04013403          	ld	s0,64(sp)
    80000444:	03813483          	ld	s1,56(sp)
    80000448:	03013903          	ld	s2,48(sp)
    8000044c:	02813983          	ld	s3,40(sp)
    80000450:	05010113          	add	sp,sp,80
    80000454:	00008067          	ret
    80000458:	00147293          	and	t0,s0,1
    8000045c:	00040313          	mv	t1,s0
    80000460:	08028863          	beqz	t0,800004f0 <_ntoa_long+0x298>
    80000464:	0e049863          	bnez	s1,80000554 <_ntoa_long+0x2fc>
    80000468:	00c37313          	and	t1,t1,12
    8000046c:	0e031463          	bnez	t1,80000554 <_ntoa_long+0x2fc>
    80000470:	f3c7fce3          	bgeu	a5,t3,800003a8 <_ntoa_long+0x150>
    80000474:	02000313          	li	t1,32
    80000478:	f06796e3          	bne	a5,t1,80000384 <_ntoa_long+0x12c>
    8000047c:	0307ec63          	bltu	a5,a6,800004b4 <_ntoa_long+0x25c>
    80000480:	fa090ae3          	beqz	s2,80000434 <_ntoa_long+0x1dc>
    80000484:	e80986e3          	beqz	s3,80000310 <_ntoa_long+0xb8>
    80000488:	01000893          	li	a7,16
    8000048c:	071e8e63          	beq	t4,a7,80000508 <_ntoa_long+0x2b0>
    80000490:	00200893          	li	a7,2
    80000494:	09138e63          	beq	t2,a7,80000530 <_ntoa_long+0x2d8>
    80000498:	02000893          	li	a7,32
    8000049c:	f9178ce3          	beq	a5,a7,80000434 <_ntoa_long+0x1dc>
    800004a0:	00078893          	mv	a7,a5
    800004a4:	00178793          	add	a5,a5,1
    800004a8:	f71ff06f          	j	80000418 <_ntoa_long+0x1c0>
    800004ac:	1a028263          	beqz	t0,80000650 <_ntoa_long+0x3f8>
    800004b0:	0b07f663          	bgeu	a5,a6,8000055c <_ntoa_long+0x304>
    800004b4:	02000793          	li	a5,32
    800004b8:	f6090ee3          	beqz	s2,80000434 <_ntoa_long+0x1dc>
    800004bc:	18099063          	bnez	s3,8000063c <_ntoa_long+0x3e4>
    800004c0:	f2fe1ae3          	bne	t3,a5,800003f4 <_ntoa_long+0x19c>
    800004c4:	01f00893          	li	a7,31
    800004c8:	f41ff06f          	j	80000408 <_ntoa_long+0x1b0>
    800004cc:	020e0793          	add	a5,t3,32
    800004d0:	002788b3          	add	a7,a5,sp
    800004d4:	02d00313          	li	t1,45
    800004d8:	001e0793          	add	a5,t3,1
    800004dc:	fe688023          	sb	t1,-32(a7)
    800004e0:	f55ff06f          	j	80000434 <_ntoa_long+0x1dc>
    800004e4:	00010713          	mv	a4,sp
    800004e8:	e40486e3          	beqz	s1,80000334 <_ntoa_long+0xdc>
    800004ec:	fe1ff06f          	j	800004cc <_ntoa_long+0x274>
    800004f0:	e1c7fce3          	bgeu	a5,t3,80000308 <_ntoa_long+0xb0>
    800004f4:	02000313          	li	t1,32
    800004f8:	e86796e3          	bne	a5,t1,80000384 <_ntoa_long+0x12c>
    800004fc:	f2090ce3          	beqz	s2,80000434 <_ntoa_long+0x1dc>
    80000500:	f80994e3          	bnez	s3,80000488 <_ntoa_long+0x230>
    80000504:	eedff06f          	j	800003f0 <_ntoa_long+0x198>
    80000508:	02047893          	and	a7,s0,32
    8000050c:	06088e63          	beqz	a7,80000588 <_ntoa_long+0x330>
    80000510:	02000893          	li	a7,32
    80000514:	f31780e3          	beq	a5,a7,80000434 <_ntoa_long+0x1dc>
    80000518:	02078893          	add	a7,a5,32
    8000051c:	002888b3          	add	a7,a7,sp
    80000520:	05800313          	li	t1,88
    80000524:	fe688023          	sb	t1,-32(a7)
    80000528:	00178793          	add	a5,a5,1
    8000052c:	f6dff06f          	j	80000498 <_ntoa_long+0x240>
    80000530:	02000893          	li	a7,32
    80000534:	f11780e3          	beq	a5,a7,80000434 <_ntoa_long+0x1dc>
    80000538:	00078893          	mv	a7,a5
    8000053c:	00178793          	add	a5,a5,1
    80000540:	02088893          	add	a7,a7,32
    80000544:	002888b3          	add	a7,a7,sp
    80000548:	06200313          	li	t1,98
    8000054c:	fe688023          	sb	t1,-32(a7)
    80000550:	f49ff06f          	j	80000498 <_ntoa_long+0x240>
    80000554:	fff8081b          	addw	a6,a6,-1
    80000558:	f19ff06f          	j	80000470 <_ntoa_long+0x218>
    8000055c:	02000793          	li	a5,32
    80000560:	f9dff06f          	j	800004fc <_ntoa_long+0x2a4>
    80000564:	00847893          	and	a7,s0,8
    80000568:	000e0793          	mv	a5,t3
    8000056c:	ec0884e3          	beqz	a7,80000434 <_ntoa_long+0x1dc>
    80000570:	020e0893          	add	a7,t3,32
    80000574:	00288e33          	add	t3,a7,sp
    80000578:	02000893          	li	a7,32
    8000057c:	00178793          	add	a5,a5,1
    80000580:	ff1e0023          	sb	a7,-32(t3)
    80000584:	eb1ff06f          	j	80000434 <_ntoa_long+0x1dc>
    80000588:	02000893          	li	a7,32
    8000058c:	eb1784e3          	beq	a5,a7,80000434 <_ntoa_long+0x1dc>
    80000590:	02078893          	add	a7,a5,32
    80000594:	002888b3          	add	a7,a7,sp
    80000598:	07800313          	li	t1,120
    8000059c:	fe688023          	sb	t1,-32(a7)
    800005a0:	00178793          	add	a5,a5,1
    800005a4:	ef5ff06f          	j	80000498 <_ntoa_long+0x240>
    800005a8:	01000793          	li	a5,16
    800005ac:	d6fe98e3          	bne	t4,a5,8000031c <_ntoa_long+0xc4>
    800005b0:	02047893          	and	a7,s0,32
    800005b4:	07800793          	li	a5,120
    800005b8:	00088463          	beqz	a7,800005c0 <_ntoa_long+0x368>
    800005bc:	05800793          	li	a5,88
    800005c0:	00f10023          	sb	a5,0(sp)
    800005c4:	03000793          	li	a5,48
    800005c8:	00f100a3          	sb	a5,1(sp)
    800005cc:	00200e13          	li	t3,2
    800005d0:	d60482e3          	beqz	s1,80000334 <_ntoa_long+0xdc>
    800005d4:	ef9ff06f          	j	800004cc <_ntoa_long+0x274>
    800005d8:	02047793          	and	a5,s0,32
    800005dc:	00078c63          	beqz	a5,800005f4 <_ntoa_long+0x39c>
    800005e0:	05800793          	li	a5,88
    800005e4:	00f10023          	sb	a5,0(sp)
    800005e8:	fddff06f          	j	800005c4 <_ntoa_long+0x36c>
    800005ec:	06200793          	li	a5,98
    800005f0:	fd1ff06f          	j	800005c0 <_ntoa_long+0x368>
    800005f4:	07800793          	li	a5,120
    800005f8:	fc9ff06f          	j	800005c0 <_ntoa_long+0x368>
    800005fc:	f00280e3          	beqz	t0,800004fc <_ntoa_long+0x2a4>
    80000600:	e80912e3          	bnez	s2,80000484 <_ntoa_long+0x22c>
    80000604:	e31ff06f          	j	80000434 <_ntoa_long+0x1dc>
    80000608:	ffe78793          	add	a5,a5,-2
    8000060c:	02078793          	add	a5,a5,32
    80000610:	02047313          	and	t1,s0,32
    80000614:	002787b3          	add	a5,a5,sp
    80000618:	00031a63          	bnez	t1,8000062c <_ntoa_long+0x3d4>
    8000061c:	07800313          	li	t1,120
    80000620:	fe678023          	sb	t1,-32(a5)
    80000624:	00088793          	mv	a5,a7
    80000628:	e79ff06f          	j	800004a0 <_ntoa_long+0x248>
    8000062c:	05800313          	li	t1,88
    80000630:	fe678023          	sb	t1,-32(a5)
    80000634:	00088793          	mv	a5,a7
    80000638:	e69ff06f          	j	800004a0 <_ntoa_long+0x248>
    8000063c:	01000893          	li	a7,16
    80000640:	ed1e84e3          	beq	t4,a7,80000508 <_ntoa_long+0x2b0>
    80000644:	00200893          	li	a7,2
    80000648:	e51398e3          	bne	t2,a7,80000498 <_ntoa_long+0x240>
    8000064c:	de9ff06f          	j	80000434 <_ntoa_long+0x1dc>
    80000650:	de0902e3          	beqz	s2,80000434 <_ntoa_long+0x1dc>
    80000654:	fe0994e3          	bnez	s3,8000063c <_ntoa_long+0x3e4>
    80000658:	d8f89ee3          	bne	a7,a5,800003f4 <_ntoa_long+0x19c>
    8000065c:	01f00893          	li	a7,31
    80000660:	da9ff06f          	j	80000408 <_ntoa_long+0x1b0>

Disassembly of section .text._out_char:

0000000080000664 <_out_char>:
    80000664:	00051463          	bnez	a0,8000066c <_out_char+0x8>
    80000668:	00008067          	ret
    8000066c:	a0dff06f          	j	80000078 <_putc>

Disassembly of section .text._ftoa:

0000000080000670 <_ftoa>:
    80000670:	a2a52353          	feq.d	t1,fa0,fa0
    80000674:	00080893          	mv	a7,a6
    80000678:	20030063          	beqz	t1,80000878 <_ftoa+0x208>
    8000067c:	00001817          	auipc	a6,0x1
    80000680:	4b483787          	fld	fa5,1204(a6) # 80001b30 <pow10.0+0x60>
    80000684:	a2f51853          	flt.d	a6,fa0,fa5
    80000688:	26081263          	bnez	a6,800008ec <_ftoa+0x27c>
    8000068c:	fc010113          	add	sp,sp,-64
    80000690:	02913423          	sd	s1,40(sp)
    80000694:	00068493          	mv	s1,a3
    80000698:	00001697          	auipc	a3,0x1
    8000069c:	4a06b787          	fld	fa5,1184(a3) # 80001b38 <pow10.0+0x68>
    800006a0:	a2a796d3          	flt.d	a3,fa5,fa0
    800006a4:	02813823          	sd	s0,48(sp)
    800006a8:	02113c23          	sd	ra,56(sp)
    800006ac:	03213023          	sd	s2,32(sp)
    800006b0:	00050293          	mv	t0,a0
    800006b4:	00058393          	mv	t2,a1
    800006b8:	00060413          	mv	s0,a2
    800006bc:	16069c63          	bnez	a3,80000834 <_ftoa+0x1c4>
    800006c0:	00001697          	auipc	a3,0x1
    800006c4:	4606b787          	fld	fa5,1120(a3) # 80001b20 <pow10.0+0x50>
    800006c8:	a2a796d3          	flt.d	a3,fa5,fa0
    800006cc:	1e069a63          	bnez	a3,800008c0 <_ftoa+0x250>
    800006d0:	00001697          	auipc	a3,0x1
    800006d4:	4706b707          	fld	fa4,1136(a3) # 80001b40 <pow10.0+0x70>
    800006d8:	a2e516d3          	flt.d	a3,fa0,fa4
    800006dc:	1e069263          	bnez	a3,800008c0 <_ftoa+0x250>
    800006e0:	f2000753          	fmv.d.x	fa4,zero
    800006e4:	00000593          	li	a1,0
    800006e8:	a2e516d3          	flt.d	a3,fa0,fa4
    800006ec:	1c069463          	bnez	a3,800008b4 <_ftoa+0x244>
    800006f0:	4008f693          	and	a3,a7,1024
    800006f4:	18068c63          	beqz	a3,8000088c <_ftoa+0x21c>
    800006f8:	00900693          	li	a3,9
    800006fc:	38e6fa63          	bgeu	a3,a4,80000a90 <_ftoa+0x420>
    80000700:	ff77031b          	addw	t1,a4,-9
    80000704:	02031313          	sll	t1,t1,0x20
    80000708:	02035313          	srl	t1,t1,0x20
    8000070c:	00000e13          	li	t3,0
    80000710:	00010f13          	mv	t5,sp
    80000714:	03000613          	li	a2,48
    80000718:	02000693          	li	a3,32
    8000071c:	001e0e13          	add	t3,t3,1
    80000720:	01cf0eb3          	add	t4,t5,t3
    80000724:	fece8fa3          	sb	a2,-1(t4)
    80000728:	41c70fbb          	subw	t6,a4,t3
    8000072c:	2cde0863          	beq	t3,a3,800009fc <_ftoa+0x38c>
    80000730:	fe6e16e3          	bne	t3,t1,8000071c <_ftoa+0xac>
    80000734:	22f78753          	fmv.d	fa4,fa5
    80000738:	c20516d3          	fcvt.w.d	a3,fa0,rtz
    8000073c:	00001717          	auipc	a4,0x1
    80000740:	40c73687          	fld	fa3,1036(a4) # 80001b48 <pow10.0+0x78>
    80000744:	d20687d3          	fcvt.d.w	fa5,a3
    80000748:	00068e1b          	sext.w	t3,a3
    8000074c:	0af577d3          	fsub.d	fa5,fa0,fa5
    80000750:	12e7f7d3          	fmul.d	fa5,fa5,fa4
    80000754:	c2379753          	fcvt.lu.d	a4,fa5,rtz
    80000758:	d2377653          	fcvt.d.lu	fa2,a4
    8000075c:	0ac7f7d3          	fsub.d	fa5,fa5,fa2
    80000760:	a2f69653          	flt.d	a2,fa3,fa5
    80000764:	22060e63          	beqz	a2,800009a0 <_ftoa+0x330>
    80000768:	00170713          	add	a4,a4,1
    8000076c:	d23777d3          	fcvt.d.lu	fa5,a4
    80000770:	a2f70653          	fle.d	a2,fa4,fa5
    80000774:	00060663          	beqz	a2,80000780 <_ftoa+0x110>
    80000778:	00168e1b          	addw	t3,a3,1
    8000077c:	00000713          	li	a4,0
    80000780:	1c0f9a63          	bnez	t6,80000954 <_ftoa+0x2e4>
    80000784:	d20e07d3          	fcvt.d.w	fa5,t3
    80000788:	0af57553          	fsub.d	fa0,fa0,fa5
    8000078c:	a2d51753          	flt.d	a4,fa0,fa3
    80000790:	00070663          	beqz	a4,8000079c <_ftoa+0x12c>
    80000794:	a2a69753          	flt.d	a4,fa3,fa0
    80000798:	00070863          	beqz	a4,800007a8 <_ftoa+0x138>
    8000079c:	001e7713          	and	a4,t3,1
    800007a0:	00070463          	beqz	a4,800007a8 <_ftoa+0x138>
    800007a4:	001e0e1b          	addw	t3,t3,1
    800007a8:	02000613          	li	a2,32
    800007ac:	00a00713          	li	a4,10
    800007b0:	14c30863          	beq	t1,a2,80000900 <_ftoa+0x290>
    800007b4:	02ee6ebb          	remw	t4,t3,a4
    800007b8:	00130313          	add	t1,t1,1
    800007bc:	006f06b3          	add	a3,t5,t1
    800007c0:	02ee4e3b          	divw	t3,t3,a4
    800007c4:	030e8e9b          	addw	t4,t4,48
    800007c8:	ffd68fa3          	sb	t4,-1(a3)
    800007cc:	fe0e12e3          	bnez	t3,800007b0 <_ftoa+0x140>
    800007d0:	0038f713          	and	a4,a7,3
    800007d4:	00100693          	li	a3,1
    800007d8:	2ed70063          	beq	a4,a3,80000ab8 <_ftoa+0x448>
    800007dc:	02000713          	li	a4,32
    800007e0:	00e30e63          	beq	t1,a4,800007fc <_ftoa+0x18c>
    800007e4:	22058663          	beqz	a1,80000a10 <_ftoa+0x3a0>
    800007e8:	02030713          	add	a4,t1,32
    800007ec:	00270733          	add	a4,a4,sp
    800007f0:	02d00693          	li	a3,45
    800007f4:	fed70023          	sb	a3,-32(a4)
    800007f8:	00130313          	add	t1,t1,1
    800007fc:	00078813          	mv	a6,a5
    80000800:	00048693          	mv	a3,s1
    80000804:	00040613          	mv	a2,s0
    80000808:	00030793          	mv	a5,t1
    8000080c:	000f0713          	mv	a4,t5
    80000810:	00038593          	mv	a1,t2
    80000814:	00028513          	mv	a0,t0
    80000818:	905ff0ef          	jal	8000011c <_out_rev>
    8000081c:	03813083          	ld	ra,56(sp)
    80000820:	03013403          	ld	s0,48(sp)
    80000824:	02813483          	ld	s1,40(sp)
    80000828:	02013903          	ld	s2,32(sp)
    8000082c:	04010113          	add	sp,sp,64
    80000830:	00008067          	ret
    80000834:	0048f713          	and	a4,a7,4
    80000838:	06071663          	bnez	a4,800008a4 <_ftoa+0x234>
    8000083c:	00001717          	auipc	a4,0x1
    80000840:	0dc70713          	add	a4,a4,220 # 80001918 <__am_mainargs+0xb>
    80000844:	00300693          	li	a3,3
    80000848:	00040613          	mv	a2,s0
    8000084c:	03013403          	ld	s0,48(sp)
    80000850:	03813083          	ld	ra,56(sp)
    80000854:	02013903          	ld	s2,32(sp)
    80000858:	00078813          	mv	a6,a5
    8000085c:	00068793          	mv	a5,a3
    80000860:	00048693          	mv	a3,s1
    80000864:	02813483          	ld	s1,40(sp)
    80000868:	00038593          	mv	a1,t2
    8000086c:	00028513          	mv	a0,t0
    80000870:	04010113          	add	sp,sp,64
    80000874:	8a9ff06f          	j	8000011c <_out_rev>
    80000878:	00078813          	mv	a6,a5
    8000087c:	00001717          	auipc	a4,0x1
    80000880:	0a470713          	add	a4,a4,164 # 80001920 <__am_mainargs+0x13>
    80000884:	00300793          	li	a5,3
    80000888:	895ff06f          	j	8000011c <_out_rev>
    8000088c:	00001717          	auipc	a4,0x1
    80000890:	29c73707          	fld	fa4,668(a4) # 80001b28 <pow10.0+0x58>
    80000894:	00600f93          	li	t6,6
    80000898:	00000313          	li	t1,0
    8000089c:	00010f13          	mv	t5,sp
    800008a0:	e99ff06f          	j	80000738 <_ftoa+0xc8>
    800008a4:	00001717          	auipc	a4,0x1
    800008a8:	06c70713          	add	a4,a4,108 # 80001910 <__am_mainargs+0x3>
    800008ac:	00400693          	li	a3,4
    800008b0:	f99ff06f          	j	80000848 <_ftoa+0x1d8>
    800008b4:	0aa77553          	fsub.d	fa0,fa4,fa0
    800008b8:	00100593          	li	a1,1
    800008bc:	e35ff06f          	j	800006f0 <_ftoa+0x80>
    800008c0:	00040613          	mv	a2,s0
    800008c4:	03013403          	ld	s0,48(sp)
    800008c8:	03813083          	ld	ra,56(sp)
    800008cc:	02013903          	ld	s2,32(sp)
    800008d0:	00048693          	mv	a3,s1
    800008d4:	02813483          	ld	s1,40(sp)
    800008d8:	00088813          	mv	a6,a7
    800008dc:	00038593          	mv	a1,t2
    800008e0:	00028513          	mv	a0,t0
    800008e4:	04010113          	add	sp,sp,64
    800008e8:	1d80006f          	j	80000ac0 <_etoa>
    800008ec:	00078813          	mv	a6,a5
    800008f0:	00001717          	auipc	a4,0x1
    800008f4:	03870713          	add	a4,a4,56 # 80001928 <__am_mainargs+0x1b>
    800008f8:	00400793          	li	a5,4
    800008fc:	821ff06f          	j	8000011c <_out_rev>
    80000900:	0038f713          	and	a4,a7,3
    80000904:	00100693          	li	a3,1
    80000908:	eed71ae3          	bne	a4,a3,800007fc <_ftoa+0x18c>
    8000090c:	ee0788e3          	beqz	a5,800007fc <_ftoa+0x18c>
    80000910:	16059663          	bnez	a1,80000a7c <_ftoa+0x40c>
    80000914:	00c8f713          	and	a4,a7,12
    80000918:	16071263          	bnez	a4,80000a7c <_ftoa+0x40c>
    8000091c:	02079613          	sll	a2,a5,0x20
    80000920:	02065613          	srl	a2,a2,0x20
    80000924:	0ec37263          	bgeu	t1,a2,80000a08 <_ftoa+0x398>
    80000928:	02000713          	li	a4,32
    8000092c:	03000693          	li	a3,48
    80000930:	02000513          	li	a0,32
    80000934:	00e30c63          	beq	t1,a4,8000094c <_ftoa+0x2dc>
    80000938:	00130313          	add	t1,t1,1
    8000093c:	006f0733          	add	a4,t5,t1
    80000940:	fed70fa3          	sb	a3,-1(a4)
    80000944:	e8c30ce3          	beq	t1,a2,800007dc <_ftoa+0x16c>
    80000948:	fea318e3          	bne	t1,a0,80000938 <_ftoa+0x2c8>
    8000094c:	02000313          	li	t1,32
    80000950:	eadff06f          	j	800007fc <_ftoa+0x18c>
    80000954:	fe0f809b          	addw	ra,t6,-32
    80000958:	006080bb          	addw	ra,ra,t1
    8000095c:	00a00613          	li	a2,10
    80000960:	00900913          	li	s2,9
    80000964:	0280006f          	j	8000098c <_ftoa+0x31c>
    80000968:	02c776b3          	remu	a3,a4,a2
    8000096c:	ffff881b          	addw	a6,t6,-1
    80000970:	0306869b          	addw	a3,a3,48
    80000974:	fed50fa3          	sb	a3,-1(a0)
    80000978:	02c756b3          	divu	a3,a4,a2
    8000097c:	02e97c63          	bgeu	s2,a4,800009b4 <_ftoa+0x344>
    80000980:	00080f93          	mv	t6,a6
    80000984:	000e8313          	mv	t1,t4
    80000988:	00068713          	mv	a4,a3
    8000098c:	00130e93          	add	t4,t1,1
    80000990:	01df0533          	add	a0,t5,t4
    80000994:	fc1f9ae3          	bne	t6,ra,80000968 <_ftoa+0x2f8>
    80000998:	02000313          	li	t1,32
    8000099c:	e0dff06f          	j	800007a8 <_ftoa+0x138>
    800009a0:	a2d796d3          	flt.d	a3,fa5,fa3
    800009a4:	dc069ee3          	bnez	a3,80000780 <_ftoa+0x110>
    800009a8:	0c071263          	bnez	a4,80000a6c <_ftoa+0x3fc>
    800009ac:	00170713          	add	a4,a4,1
    800009b0:	dd1ff06f          	j	80000780 <_ftoa+0x110>
    800009b4:	02000713          	li	a4,32
    800009b8:	feee80e3          	beq	t4,a4,80000998 <_ftoa+0x328>
    800009bc:	ffef8f9b          	addw	t6,t6,-2
    800009c0:	06080c63          	beqz	a6,80000a38 <_ftoa+0x3c8>
    800009c4:	020f9f93          	sll	t6,t6,0x20
    800009c8:	00230313          	add	t1,t1,2
    800009cc:	020fdf93          	srl	t6,t6,0x20
    800009d0:	01f30333          	add	t1,t1,t6
    800009d4:	03000613          	li	a2,48
    800009d8:	02000693          	li	a3,32
    800009dc:	0080006f          	j	800009e4 <_ftoa+0x374>
    800009e0:	046e8e63          	beq	t4,t1,80000a3c <_ftoa+0x3cc>
    800009e4:	001e8e93          	add	t4,t4,1
    800009e8:	01df0733          	add	a4,t5,t4
    800009ec:	fec70fa3          	sb	a2,-1(a4)
    800009f0:	fede98e3          	bne	t4,a3,800009e0 <_ftoa+0x370>
    800009f4:	02000313          	li	t1,32
    800009f8:	db1ff06f          	j	800007a8 <_ftoa+0x138>
    800009fc:	22f78753          	fmv.d	fa4,fa5
    80000a00:	02000313          	li	t1,32
    80000a04:	d35ff06f          	j	80000738 <_ftoa+0xc8>
    80000a08:	02000713          	li	a4,32
    80000a0c:	dee308e3          	beq	t1,a4,800007fc <_ftoa+0x18c>
    80000a10:	0048f713          	and	a4,a7,4
    80000a14:	04071063          	bnez	a4,80000a54 <_ftoa+0x3e4>
    80000a18:	0088f713          	and	a4,a7,8
    80000a1c:	de0700e3          	beqz	a4,800007fc <_ftoa+0x18c>
    80000a20:	02030713          	add	a4,t1,32
    80000a24:	00270733          	add	a4,a4,sp
    80000a28:	02000693          	li	a3,32
    80000a2c:	fed70023          	sb	a3,-32(a4)
    80000a30:	00130313          	add	t1,t1,1
    80000a34:	dc9ff06f          	j	800007fc <_ftoa+0x18c>
    80000a38:	000e8313          	mv	t1,t4
    80000a3c:	02030713          	add	a4,t1,32
    80000a40:	00270733          	add	a4,a4,sp
    80000a44:	02e00693          	li	a3,46
    80000a48:	00130313          	add	t1,t1,1
    80000a4c:	fed70023          	sb	a3,-32(a4)
    80000a50:	d59ff06f          	j	800007a8 <_ftoa+0x138>
    80000a54:	02030713          	add	a4,t1,32
    80000a58:	00270733          	add	a4,a4,sp
    80000a5c:	02b00693          	li	a3,43
    80000a60:	fed70023          	sb	a3,-32(a4)
    80000a64:	00130313          	add	t1,t1,1
    80000a68:	d95ff06f          	j	800007fc <_ftoa+0x18c>
    80000a6c:	00177693          	and	a3,a4,1
    80000a70:	d00688e3          	beqz	a3,80000780 <_ftoa+0x110>
    80000a74:	00170713          	add	a4,a4,1
    80000a78:	d09ff06f          	j	80000780 <_ftoa+0x110>
    80000a7c:	fff7879b          	addw	a5,a5,-1
    80000a80:	02079613          	sll	a2,a5,0x20
    80000a84:	02065613          	srl	a2,a2,0x20
    80000a88:	eac360e3          	bltu	t1,a2,80000928 <_ftoa+0x2b8>
    80000a8c:	d51ff06f          	j	800007dc <_ftoa+0x16c>
    80000a90:	02071693          	sll	a3,a4,0x20
    80000a94:	01d6d613          	srl	a2,a3,0x1d
    80000a98:	00001697          	auipc	a3,0x1
    80000a9c:	03868693          	add	a3,a3,56 # 80001ad0 <pow10.0>
    80000aa0:	00c686b3          	add	a3,a3,a2
    80000aa4:	0006b707          	fld	fa4,0(a3)
    80000aa8:	00070f93          	mv	t6,a4
    80000aac:	00000313          	li	t1,0
    80000ab0:	00010f13          	mv	t5,sp
    80000ab4:	c85ff06f          	j	80000738 <_ftoa+0xc8>
    80000ab8:	d20782e3          	beqz	a5,800007dc <_ftoa+0x16c>
    80000abc:	e55ff06f          	j	80000910 <_ftoa+0x2a0>

Disassembly of section .text._etoa:

0000000080000ac0 <_etoa>:
    80000ac0:	a2a528d3          	feq.d	a7,fa0,fa0
    80000ac4:	f9010113          	add	sp,sp,-112
    80000ac8:	06813023          	sd	s0,96(sp)
    80000acc:	05213823          	sd	s2,80(sp)
    80000ad0:	05313423          	sd	s3,72(sp)
    80000ad4:	05413023          	sd	s4,64(sp)
    80000ad8:	03513c23          	sd	s5,56(sp)
    80000adc:	03613823          	sd	s6,48(sp)
    80000ae0:	06113423          	sd	ra,104(sp)
    80000ae4:	04913c23          	sd	s1,88(sp)
    80000ae8:	03713423          	sd	s7,40(sp)
    80000aec:	03813023          	sd	s8,32(sp)
    80000af0:	01913c23          	sd	s9,24(sp)
    80000af4:	00050a13          	mv	s4,a0
    80000af8:	00058a93          	mv	s5,a1
    80000afc:	00060913          	mv	s2,a2
    80000b00:	00068b13          	mv	s6,a3
    80000b04:	00078993          	mv	s3,a5
    80000b08:	00080413          	mv	s0,a6
    80000b0c:	2e088463          	beqz	a7,80000df4 <_etoa+0x334>
    80000b10:	00001797          	auipc	a5,0x1
    80000b14:	0287b787          	fld	fa5,40(a5) # 80001b38 <pow10.0+0x68>
    80000b18:	a2a797d3          	flt.d	a5,fa5,fa0
    80000b1c:	2c079c63          	bnez	a5,80000df4 <_etoa+0x334>
    80000b20:	00001797          	auipc	a5,0x1
    80000b24:	0107b787          	fld	fa5,16(a5) # 80001b30 <pow10.0+0x60>
    80000b28:	a2f517d3          	flt.d	a5,fa0,fa5
    80000b2c:	2c079463          	bnez	a5,80000df4 <_etoa+0x334>
    80000b30:	f20007d3          	fmv.d.x	fa5,zero
    80000b34:	e20506d3          	fmv.x.d	a3,fa0
    80000b38:	a2f517d3          	flt.d	a5,fa0,fa5
    80000b3c:	00078663          	beqz	a5,80000b48 <_etoa+0x88>
    80000b40:	22a517d3          	fneg.d	fa5,fa0
    80000b44:	e20786d3          	fmv.x.d	a3,fa5
    80000b48:	40047593          	and	a1,s0,1024
    80000b4c:	00059463          	bnez	a1,80000b54 <_etoa+0x94>
    80000b50:	00600713          	li	a4,6
    80000b54:	0346d793          	srl	a5,a3,0x34
    80000b58:	7ff7f793          	and	a5,a5,2047
    80000b5c:	00001617          	auipc	a2,0x1
    80000b60:	ff463687          	fld	fa3,-12(a2) # 80001b50 <pow10.0+0x80>
    80000b64:	00001617          	auipc	a2,0x1
    80000b68:	ff463707          	fld	fa4,-12(a2) # 80001b58 <pow10.0+0x88>
    80000b6c:	c017879b          	addw	a5,a5,-1023
    80000b70:	d2078653          	fcvt.d.w	fa2,a5
    80000b74:	3ff00613          	li	a2,1023
    80000b78:	00c69793          	sll	a5,a3,0xc
    80000b7c:	03461613          	sll	a2,a2,0x34
    80000b80:	00c7d793          	srl	a5,a5,0xc
    80000b84:	00c7e7b3          	or	a5,a5,a2
    80000b88:	72d67643          	fmadd.d	fa2,fa2,fa3,fa4
    80000b8c:	f2078753          	fmv.d.x	fa4,a5
    80000b90:	00001617          	auipc	a2,0x1
    80000b94:	fd063787          	fld	fa5,-48(a2) # 80001b60 <pow10.0+0x90>
    80000b98:	00001797          	auipc	a5,0x1
    80000b9c:	fd07b587          	fld	fa1,-48(a5) # 80001b68 <pow10.0+0x98>
    80000ba0:	0af777d3          	fsub.d	fa5,fa4,fa5
    80000ba4:	00001797          	auipc	a5,0x1
    80000ba8:	fcc7b687          	fld	fa3,-52(a5) # 80001b70 <pow10.0+0xa0>
    80000bac:	00001797          	auipc	a5,0x1
    80000bb0:	f9c7b207          	fld	ft4,-100(a5) # 80001b48 <pow10.0+0x78>
    80000bb4:	00001797          	auipc	a5,0x1
    80000bb8:	fc47b187          	fld	ft3,-60(a5) # 80001b78 <pow10.0+0xa8>
    80000bbc:	00001797          	auipc	a5,0x1
    80000bc0:	fc47b107          	fld	ft2,-60(a5) # 80001b80 <pow10.0+0xb0>
    80000bc4:	00001797          	auipc	a5,0x1
    80000bc8:	fc47b707          	fld	fa4,-60(a5) # 80001b88 <pow10.0+0xb8>
    80000bcc:	00001797          	auipc	a5,0x1
    80000bd0:	fcc7b087          	fld	ft1,-52(a5) # 80001b98 <pow10.0+0xc8>
    80000bd4:	62b7f7c3          	fmadd.d	fa5,fa5,fa1,fa2
    80000bd8:	00001797          	auipc	a5,0x1
    80000bdc:	fd07b007          	fld	ft0,-48(a5) # 80001ba8 <pow10.0+0xd8>
    80000be0:	00001797          	auipc	a5,0x1
    80000be4:	fb07b587          	fld	fa1,-80(a5) # 80001b90 <pow10.0+0xc0>
    80000be8:	00001797          	auipc	a5,0x1
    80000bec:	fb87b607          	fld	fa2,-72(a5) # 80001ba0 <pow10.0+0xd0>
    80000bf0:	c2079653          	fcvt.w.d	a2,fa5,rtz
    80000bf4:	d20607d3          	fcvt.d.w	fa5,a2
    80000bf8:	00060c1b          	sext.w	s8,a2
    80000bfc:	22d7f6c3          	fmadd.d	fa3,fa5,fa3,ft4
    80000c00:	c20697d3          	fcvt.w.d	a5,fa3,rtz
    80000c04:	d20786d3          	fcvt.d.w	fa3,a5
    80000c08:	3ff7879b          	addw	a5,a5,1023
    80000c0c:	03479793          	sll	a5,a5,0x34
    80000c10:	1236f6d3          	fmul.d	fa3,fa3,ft3
    80000c14:	6a27f7c7          	fmsub.d	fa5,fa5,ft2,fa3
    80000c18:	12f7f6d3          	fmul.d	fa3,fa5,fa5
    80000c1c:	0af67653          	fsub.d	fa2,fa2,fa5
    80000c20:	02f7f7d3          	fadd.d	fa5,fa5,fa5
    80000c24:	1ae6f753          	fdiv.d	fa4,fa3,fa4
    80000c28:	02b77753          	fadd.d	fa4,fa4,fa1
    80000c2c:	1ae6f753          	fdiv.d	fa4,fa3,fa4
    80000c30:	02177753          	fadd.d	fa4,fa4,ft1
    80000c34:	1ae6f6d3          	fdiv.d	fa3,fa3,fa4
    80000c38:	f2078753          	fmv.d.x	fa4,a5
    80000c3c:	02c6f6d3          	fadd.d	fa3,fa3,fa2
    80000c40:	1ad7f7d3          	fdiv.d	fa5,fa5,fa3
    80000c44:	0207f7d3          	fadd.d	fa5,fa5,ft0
    80000c48:	12e7f7d3          	fmul.d	fa5,fa5,fa4
    80000c4c:	f2068753          	fmv.d.x	fa4,a3
    80000c50:	a2f717d3          	flt.d	a5,fa4,fa5
    80000c54:	00078663          	beqz	a5,80000c60 <_etoa+0x1a0>
    80000c58:	1ab7f7d3          	fdiv.d	fa5,fa5,fa1
    80000c5c:	fff60c1b          	addw	s8,a2,-1
    80000c60:	063c0c9b          	addw	s9,s8,99
    80000c64:	00b45793          	srl	a5,s0,0xb
    80000c68:	0c600613          	li	a2,198
    80000c6c:	01963cb3          	sltu	s9,a2,s9
    80000c70:	0017f793          	and	a5,a5,1
    80000c74:	004c8c93          	add	s9,s9,4
    80000c78:	04078463          	beqz	a5,80000cc0 <_etoa+0x200>
    80000c7c:	f20686d3          	fmv.d.x	fa3,a3
    80000c80:	00001797          	auipc	a5,0x1
    80000c84:	f307b707          	fld	fa4,-208(a5) # 80001bb0 <pow10.0+0xe0>
    80000c88:	a2d707d3          	fle.d	a5,fa4,fa3
    80000c8c:	1c078263          	beqz	a5,80000e50 <_etoa+0x390>
    80000c90:	00001797          	auipc	a5,0x1
    80000c94:	e987b707          	fld	fa4,-360(a5) # 80001b28 <pow10.0+0x58>
    80000c98:	a2e697d3          	flt.d	a5,fa3,fa4
    80000c9c:	1a078a63          	beqz	a5,80000e50 <_etoa+0x390>
    80000ca0:	0007079b          	sext.w	a5,a4
    80000ca4:	00000713          	li	a4,0
    80000ca8:	00fc5663          	bge	s8,a5,80000cb4 <_etoa+0x1f4>
    80000cac:	418787bb          	subw	a5,a5,s8
    80000cb0:	fff7871b          	addw	a4,a5,-1
    80000cb4:	40046413          	or	s0,s0,1024
    80000cb8:	00000c93          	li	s9,0
    80000cbc:	00000c13          	li	s8,0
    80000cc0:	00000793          	li	a5,0
    80000cc4:	013cf463          	bgeu	s9,s3,80000ccc <_etoa+0x20c>
    80000cc8:	419987bb          	subw	a5,s3,s9
    80000ccc:	00247b93          	and	s7,s0,2
    80000cd0:	000b8863          	beqz	s7,80000ce0 <_etoa+0x220>
    80000cd4:	001cb613          	seqz	a2,s9
    80000cd8:	40c00633          	neg	a2,a2
    80000cdc:	00c7f7b3          	and	a5,a5,a2
    80000ce0:	160c1063          	bnez	s8,80000e40 <_etoa+0x380>
    80000ce4:	f20007d3          	fmv.d.x	fa5,zero
    80000ce8:	a2f51653          	flt.d	a2,fa0,fa5
    80000cec:	00060863          	beqz	a2,80000cfc <_etoa+0x23c>
    80000cf0:	f20687d3          	fmv.d.x	fa5,a3
    80000cf4:	22f797d3          	fneg.d	fa5,fa5
    80000cf8:	e20786d3          	fmv.x.d	a3,fa5
    80000cfc:	f2068553          	fmv.d.x	fa0,a3
    80000d00:	fffff837          	lui	a6,0xfffff
    80000d04:	7ff80813          	add	a6,a6,2047 # fffffffffffff7ff <_pmem_end+0xffffffff77fff7ff>
    80000d08:	01047833          	and	a6,s0,a6
    80000d0c:	000b0693          	mv	a3,s6
    80000d10:	00090613          	mv	a2,s2
    80000d14:	000a8593          	mv	a1,s5
    80000d18:	000a0513          	mv	a0,s4
    80000d1c:	955ff0ef          	jal	80000670 <_ftoa>
    80000d20:	00050493          	mv	s1,a0
    80000d24:	080c8c63          	beqz	s9,80000dbc <_etoa+0x2fc>
    80000d28:	02047413          	and	s0,s0,32
    80000d2c:	06500513          	li	a0,101
    80000d30:	00040463          	beqz	s0,80000d38 <_etoa+0x278>
    80000d34:	04500513          	li	a0,69
    80000d38:	00048613          	mv	a2,s1
    80000d3c:	000b0693          	mv	a3,s6
    80000d40:	000a8593          	mv	a1,s5
    80000d44:	000a00e7          	jalr	s4
    80000d48:	41fc571b          	sraw	a4,s8,0x1f
    80000d4c:	00ec46b3          	xor	a3,s8,a4
    80000d50:	fffc879b          	addw	a5,s9,-1
    80000d54:	00500593          	li	a1,5
    80000d58:	00148613          	add	a2,s1,1
    80000d5c:	00b13423          	sd	a1,8(sp)
    80000d60:	00f13023          	sd	a5,0(sp)
    80000d64:	40e6873b          	subw	a4,a3,a4
    80000d68:	00000893          	li	a7,0
    80000d6c:	00a00813          	li	a6,10
    80000d70:	01fc579b          	srlw	a5,s8,0x1f
    80000d74:	000b0693          	mv	a3,s6
    80000d78:	000a8593          	mv	a1,s5
    80000d7c:	000a0513          	mv	a0,s4
    80000d80:	cd8ff0ef          	jal	80000258 <_ntoa_long>
    80000d84:	00050493          	mv	s1,a0
    80000d88:	020b8a63          	beqz	s7,80000dbc <_etoa+0x2fc>
    80000d8c:	02099993          	sll	s3,s3,0x20
    80000d90:	41250933          	sub	s2,a0,s2
    80000d94:	0209d993          	srl	s3,s3,0x20
    80000d98:	03397263          	bgeu	s2,s3,80000dbc <_etoa+0x2fc>
    80000d9c:	00048613          	mv	a2,s1
    80000da0:	00190913          	add	s2,s2,1
    80000da4:	000b0693          	mv	a3,s6
    80000da8:	000a8593          	mv	a1,s5
    80000dac:	02000513          	li	a0,32
    80000db0:	00148493          	add	s1,s1,1
    80000db4:	000a00e7          	jalr	s4
    80000db8:	ff3962e3          	bltu	s2,s3,80000d9c <_etoa+0x2dc>
    80000dbc:	06813083          	ld	ra,104(sp)
    80000dc0:	06013403          	ld	s0,96(sp)
    80000dc4:	05013903          	ld	s2,80(sp)
    80000dc8:	04813983          	ld	s3,72(sp)
    80000dcc:	04013a03          	ld	s4,64(sp)
    80000dd0:	03813a83          	ld	s5,56(sp)
    80000dd4:	03013b03          	ld	s6,48(sp)
    80000dd8:	02813b83          	ld	s7,40(sp)
    80000ddc:	02013c03          	ld	s8,32(sp)
    80000de0:	01813c83          	ld	s9,24(sp)
    80000de4:	00048513          	mv	a0,s1
    80000de8:	05813483          	ld	s1,88(sp)
    80000dec:	07010113          	add	sp,sp,112
    80000df0:	00008067          	ret
    80000df4:	00040813          	mv	a6,s0
    80000df8:	06013403          	ld	s0,96(sp)
    80000dfc:	06813083          	ld	ra,104(sp)
    80000e00:	05813483          	ld	s1,88(sp)
    80000e04:	02813b83          	ld	s7,40(sp)
    80000e08:	02013c03          	ld	s8,32(sp)
    80000e0c:	01813c83          	ld	s9,24(sp)
    80000e10:	00098793          	mv	a5,s3
    80000e14:	000b0693          	mv	a3,s6
    80000e18:	04813983          	ld	s3,72(sp)
    80000e1c:	03013b03          	ld	s6,48(sp)
    80000e20:	00090613          	mv	a2,s2
    80000e24:	000a8593          	mv	a1,s5
    80000e28:	05013903          	ld	s2,80(sp)
    80000e2c:	03813a83          	ld	s5,56(sp)
    80000e30:	000a0513          	mv	a0,s4
    80000e34:	04013a03          	ld	s4,64(sp)
    80000e38:	07010113          	add	sp,sp,112
    80000e3c:	835ff06f          	j	80000670 <_ftoa>
    80000e40:	f2068753          	fmv.d.x	fa4,a3
    80000e44:	1af777d3          	fdiv.d	fa5,fa4,fa5
    80000e48:	e20786d3          	fmv.x.d	a3,fa5
    80000e4c:	e99ff06f          	j	80000ce4 <_etoa+0x224>
    80000e50:	e60708e3          	beqz	a4,80000cc0 <_etoa+0x200>
    80000e54:	e60586e3          	beqz	a1,80000cc0 <_etoa+0x200>
    80000e58:	fff7071b          	addw	a4,a4,-1
    80000e5c:	e65ff06f          	j	80000cc0 <_etoa+0x200>

Disassembly of section .text._vsnprintf:

0000000080000e60 <_vsnprintf>:
    80000e60:	f6010113          	add	sp,sp,-160
    80000e64:	08913423          	sd	s1,136(sp)
    80000e68:	09213023          	sd	s2,128(sp)
    80000e6c:	07313c23          	sd	s3,120(sp)
    80000e70:	07513423          	sd	s5,104(sp)
    80000e74:	05813823          	sd	s8,80(sp)
    80000e78:	08113c23          	sd	ra,152(sp)
    80000e7c:	08813823          	sd	s0,144(sp)
    80000e80:	07413823          	sd	s4,112(sp)
    80000e84:	07613023          	sd	s6,96(sp)
    80000e88:	05713c23          	sd	s7,88(sp)
    80000e8c:	05913423          	sd	s9,72(sp)
    80000e90:	05a13023          	sd	s10,64(sp)
    80000e94:	03b13c23          	sd	s11,56(sp)
    80000e98:	00058913          	mv	s2,a1
    80000e9c:	00060493          	mv	s1,a2
    80000ea0:	00068a93          	mv	s5,a3
    80000ea4:	00070c13          	mv	s8,a4
    80000ea8:	fffff997          	auipc	s3,0xfffff
    80000eac:	27098993          	add	s3,s3,624 # 80000118 <_out_null>
    80000eb0:	00058463          	beqz	a1,80000eb8 <_vsnprintf+0x58>
    80000eb4:	00050993          	mv	s3,a0
    80000eb8:	000ac503          	lbu	a0,0(s5)
    80000ebc:	00000b93          	li	s7,0
    80000ec0:	6a050e63          	beqz	a0,8000157c <_vsnprintf+0x71c>
    80000ec4:	000097b7          	lui	a5,0x9
    80000ec8:	04178793          	add	a5,a5,65 # 9041 <_start-0x7fff6fbf>
    80000ecc:	02500a13          	li	s4,37
    80000ed0:	00001b17          	auipc	s6,0x1
    80000ed4:	a60b0b13          	add	s6,s6,-1440 # 80001930 <__am_mainargs+0x23>
    80000ed8:	00f13c23          	sd	a5,24(sp)
    80000edc:	0200006f          	j	80000efc <_vsnprintf+0x9c>
    80000ee0:	000b8613          	mv	a2,s7
    80000ee4:	00048693          	mv	a3,s1
    80000ee8:	00090593          	mv	a1,s2
    80000eec:	001b8b93          	add	s7,s7,1
    80000ef0:	000980e7          	jalr	s3
    80000ef4:	000ac503          	lbu	a0,0(s5)
    80000ef8:	1a050663          	beqz	a0,800010a4 <_vsnprintf+0x244>
    80000efc:	001a8a93          	add	s5,s5,1
    80000f00:	ff4510e3          	bne	a0,s4,80000ee0 <_vsnprintf+0x80>
    80000f04:	00000413          	li	s0,0
    80000f08:	01000713          	li	a4,16
    80000f0c:	000ac503          	lbu	a0,0(s5)
    80000f10:	001a8693          	add	a3,s5,1
    80000f14:	fe05079b          	addw	a5,a0,-32
    80000f18:	0ff7f793          	zext.b	a5,a5
    80000f1c:	00f76c63          	bltu	a4,a5,80000f34 <_vsnprintf+0xd4>
    80000f20:	00279793          	sll	a5,a5,0x2
    80000f24:	016787b3          	add	a5,a5,s6
    80000f28:	0007a783          	lw	a5,0(a5)
    80000f2c:	016787b3          	add	a5,a5,s6
    80000f30:	00078067          	jr	a5
    80000f34:	fd05079b          	addw	a5,a0,-48
    80000f38:	0ff7f793          	zext.b	a5,a5
    80000f3c:	00900713          	li	a4,9
    80000f40:	1cf77263          	bgeu	a4,a5,80001104 <_vsnprintf+0x2a4>
    80000f44:	02a00713          	li	a4,42
    80000f48:	00000d93          	li	s11,0
    80000f4c:	22e50663          	beq	a0,a4,80001178 <_vsnprintf+0x318>
    80000f50:	02e00713          	li	a4,46
    80000f54:	00000c93          	li	s9,0
    80000f58:	1ee50663          	beq	a0,a4,80001144 <_vsnprintf+0x2e4>
    80000f5c:	f985061b          	addw	a2,a0,-104
    80000f60:	0ff67613          	zext.b	a2,a2
    80000f64:	01200713          	li	a4,18
    80000f68:	08c76063          	bltu	a4,a2,80000fe8 <_vsnprintf+0x188>
    80000f6c:	00001797          	auipc	a5,0x1
    80000f70:	a0878793          	add	a5,a5,-1528 # 80001974 <__am_mainargs+0x67>
    80000f74:	00261613          	sll	a2,a2,0x2
    80000f78:	00f60633          	add	a2,a2,a5
    80000f7c:	00062703          	lw	a4,0(a2)
    80000f80:	00f70733          	add	a4,a4,a5
    80000f84:	00070067          	jr	a4
    80000f88:	00146413          	or	s0,s0,1
    80000f8c:	0004041b          	sext.w	s0,s0
    80000f90:	00068a93          	mv	s5,a3
    80000f94:	f79ff06f          	j	80000f0c <_vsnprintf+0xac>
    80000f98:	00246413          	or	s0,s0,2
    80000f9c:	0004041b          	sext.w	s0,s0
    80000fa0:	00068a93          	mv	s5,a3
    80000fa4:	f69ff06f          	j	80000f0c <_vsnprintf+0xac>
    80000fa8:	00446413          	or	s0,s0,4
    80000fac:	0004041b          	sext.w	s0,s0
    80000fb0:	00068a93          	mv	s5,a3
    80000fb4:	f59ff06f          	j	80000f0c <_vsnprintf+0xac>
    80000fb8:	01046413          	or	s0,s0,16
    80000fbc:	0004041b          	sext.w	s0,s0
    80000fc0:	00068a93          	mv	s5,a3
    80000fc4:	f49ff06f          	j	80000f0c <_vsnprintf+0xac>
    80000fc8:	00846413          	or	s0,s0,8
    80000fcc:	0004041b          	sext.w	s0,s0
    80000fd0:	00068a93          	mv	s5,a3
    80000fd4:	f39ff06f          	j	80000f0c <_vsnprintf+0xac>
    80000fd8:	001ac503          	lbu	a0,1(s5)
    80000fdc:	10046413          	or	s0,s0,256
    80000fe0:	0004041b          	sext.w	s0,s0
    80000fe4:	00168693          	add	a3,a3,1
    80000fe8:	06700713          	li	a4,103
    80000fec:	00068a93          	mv	s5,a3
    80000ff0:	02a76c63          	bltu	a4,a0,80001028 <_vsnprintf+0x1c8>
    80000ff4:	02400713          	li	a4,36
    80000ff8:	eea774e3          	bgeu	a4,a0,80000ee0 <_vsnprintf+0x80>
    80000ffc:	fdb5071b          	addw	a4,a0,-37
    80001000:	0ff77713          	zext.b	a4,a4
    80001004:	04200693          	li	a3,66
    80001008:	ece6ece3          	bltu	a3,a4,80000ee0 <_vsnprintf+0x80>
    8000100c:	00001797          	auipc	a5,0x1
    80001010:	9b478793          	add	a5,a5,-1612 # 800019c0 <__am_mainargs+0xb3>
    80001014:	00271713          	sll	a4,a4,0x2
    80001018:	00f70733          	add	a4,a4,a5
    8000101c:	00072703          	lw	a4,0(a4)
    80001020:	00f70733          	add	a4,a4,a5
    80001024:	00070067          	jr	a4
    80001028:	f975071b          	addw	a4,a0,-105
    8000102c:	0ff77713          	zext.b	a4,a4
    80001030:	00f00693          	li	a3,15
    80001034:	eae6e6e3          	bltu	a3,a4,80000ee0 <_vsnprintf+0x80>
    80001038:	01813783          	ld	a5,24(sp)
    8000103c:	00100693          	li	a3,1
    80001040:	00e696b3          	sll	a3,a3,a4
    80001044:	00f6f6b3          	and	a3,a3,a5
    80001048:	4e069263          	bnez	a3,8000152c <_vsnprintf+0x6cc>
    8000104c:	00a00693          	li	a3,10
    80001050:	2ad70063          	beq	a4,a3,800012f0 <_vsnprintf+0x490>
    80001054:	00700793          	li	a5,7
    80001058:	e8f714e3          	bne	a4,a5,80000ee0 <_vsnprintf+0x80>
    8000105c:	02146793          	or	a5,s0,33
    80001060:	000c3703          	ld	a4,0(s8)
    80001064:	0007879b          	sext.w	a5,a5
    80001068:	00f13423          	sd	a5,8(sp)
    8000106c:	01000793          	li	a5,16
    80001070:	000b8613          	mv	a2,s7
    80001074:	00f13023          	sd	a5,0(sp)
    80001078:	000c8893          	mv	a7,s9
    8000107c:	01000813          	li	a6,16
    80001080:	00000793          	li	a5,0
    80001084:	00048693          	mv	a3,s1
    80001088:	00090593          	mv	a1,s2
    8000108c:	00098513          	mv	a0,s3
    80001090:	9c8ff0ef          	jal	80000258 <_ntoa_long>
    80001094:	00050b93          	mv	s7,a0
    80001098:	000ac503          	lbu	a0,0(s5)
    8000109c:	008c0c13          	add	s8,s8,8
    800010a0:	e4051ee3          	bnez	a0,80000efc <_vsnprintf+0x9c>
    800010a4:	000b841b          	sext.w	s0,s7
    800010a8:	009be463          	bltu	s7,s1,800010b0 <_vsnprintf+0x250>
    800010ac:	fff48b93          	add	s7,s1,-1
    800010b0:	00048693          	mv	a3,s1
    800010b4:	000b8613          	mv	a2,s7
    800010b8:	00090593          	mv	a1,s2
    800010bc:	00000513          	li	a0,0
    800010c0:	000980e7          	jalr	s3
    800010c4:	09813083          	ld	ra,152(sp)
    800010c8:	00040513          	mv	a0,s0
    800010cc:	09013403          	ld	s0,144(sp)
    800010d0:	08813483          	ld	s1,136(sp)
    800010d4:	08013903          	ld	s2,128(sp)
    800010d8:	07813983          	ld	s3,120(sp)
    800010dc:	07013a03          	ld	s4,112(sp)
    800010e0:	06813a83          	ld	s5,104(sp)
    800010e4:	06013b03          	ld	s6,96(sp)
    800010e8:	05813b83          	ld	s7,88(sp)
    800010ec:	05013c03          	ld	s8,80(sp)
    800010f0:	04813c83          	ld	s9,72(sp)
    800010f4:	04013d03          	ld	s10,64(sp)
    800010f8:	03813d83          	ld	s11,56(sp)
    800010fc:	0a010113          	add	sp,sp,160
    80001100:	00008067          	ret
    80001104:	00000d93          	li	s11,0
    80001108:	00900613          	li	a2,9
    8000110c:	002d971b          	sllw	a4,s11,0x2
    80001110:	01b7073b          	addw	a4,a4,s11
    80001114:	0017171b          	sllw	a4,a4,0x1
    80001118:	00a7073b          	addw	a4,a4,a0
    8000111c:	0006c503          	lbu	a0,0(a3)
    80001120:	fd070d9b          	addw	s11,a4,-48
    80001124:	00068a93          	mv	s5,a3
    80001128:	fd05071b          	addw	a4,a0,-48
    8000112c:	0ff77713          	zext.b	a4,a4
    80001130:	00168693          	add	a3,a3,1
    80001134:	fce67ce3          	bgeu	a2,a4,8000110c <_vsnprintf+0x2ac>
    80001138:	02e00713          	li	a4,46
    8000113c:	00000c93          	li	s9,0
    80001140:	e0e51ee3          	bne	a0,a4,80000f5c <_vsnprintf+0xfc>
    80001144:	001ac503          	lbu	a0,1(s5)
    80001148:	40046413          	or	s0,s0,1024
    8000114c:	00900593          	li	a1,9
    80001150:	fd05071b          	addw	a4,a0,-48
    80001154:	0ff77713          	zext.b	a4,a4
    80001158:	00068613          	mv	a2,a3
    8000115c:	0004041b          	sext.w	s0,s0
    80001160:	24e5f063          	bgeu	a1,a4,800013a0 <_vsnprintf+0x540>
    80001164:	02a00713          	li	a4,42
    80001168:	26e50863          	beq	a0,a4,800013d8 <_vsnprintf+0x578>
    8000116c:	00068a93          	mv	s5,a3
    80001170:	00168693          	add	a3,a3,1
    80001174:	de9ff06f          	j	80000f5c <_vsnprintf+0xfc>
    80001178:	000c2703          	lw	a4,0(s8)
    8000117c:	008c0c13          	add	s8,s8,8
    80001180:	00070d9b          	sext.w	s11,a4
    80001184:	00074a63          	bltz	a4,80001198 <_vsnprintf+0x338>
    80001188:	001ac503          	lbu	a0,1(s5)
    8000118c:	00068a93          	mv	s5,a3
    80001190:	00168693          	add	a3,a3,1
    80001194:	dbdff06f          	j	80000f50 <_vsnprintf+0xf0>
    80001198:	00246413          	or	s0,s0,2
    8000119c:	001ac503          	lbu	a0,1(s5)
    800011a0:	0004041b          	sext.w	s0,s0
    800011a4:	00068a93          	mv	s5,a3
    800011a8:	40e00dbb          	negw	s11,a4
    800011ac:	00168693          	add	a3,a3,1
    800011b0:	da1ff06f          	j	80000f50 <_vsnprintf+0xf0>
    800011b4:	06700713          	li	a4,103
    800011b8:	30e50e63          	beq	a0,a4,800014d4 <_vsnprintf+0x674>
    800011bc:	04700713          	li	a4,71
    800011c0:	38e50663          	beq	a0,a4,8000154c <_vsnprintf+0x6ec>
    800011c4:	04500713          	li	a4,69
    800011c8:	38e50a63          	beq	a0,a4,8000155c <_vsnprintf+0x6fc>
    800011cc:	000c3507          	fld	fa0,0(s8)
    800011d0:	000b8613          	mv	a2,s7
    800011d4:	00040813          	mv	a6,s0
    800011d8:	000d8793          	mv	a5,s11
    800011dc:	000c8713          	mv	a4,s9
    800011e0:	00048693          	mv	a3,s1
    800011e4:	00090593          	mv	a1,s2
    800011e8:	00098513          	mv	a0,s3
    800011ec:	8d5ff0ef          	jal	80000ac0 <_etoa>
    800011f0:	008c0c13          	add	s8,s8,8
    800011f4:	00050b93          	mv	s7,a0
    800011f8:	cfdff06f          	j	80000ef4 <_vsnprintf+0x94>
    800011fc:	001ac503          	lbu	a0,1(s5)
    80001200:	06c00713          	li	a4,108
    80001204:	dce51ce3          	bne	a0,a4,80000fdc <_vsnprintf+0x17c>
    80001208:	30046413          	or	s0,s0,768
    8000120c:	002ac503          	lbu	a0,2(s5)
    80001210:	0004041b          	sext.w	s0,s0
    80001214:	003a8693          	add	a3,s5,3
    80001218:	dd1ff06f          	j	80000fe8 <_vsnprintf+0x188>
    8000121c:	001ac503          	lbu	a0,1(s5)
    80001220:	06800713          	li	a4,104
    80001224:	34e50263          	beq	a0,a4,80001568 <_vsnprintf+0x708>
    80001228:	08046413          	or	s0,s0,128
    8000122c:	0004041b          	sext.w	s0,s0
    80001230:	00168693          	add	a3,a3,1
    80001234:	db5ff06f          	j	80000fe8 <_vsnprintf+0x188>
    80001238:	04600713          	li	a4,70
    8000123c:	28e50663          	beq	a0,a4,800014c8 <_vsnprintf+0x668>
    80001240:	000c3507          	fld	fa0,0(s8)
    80001244:	000b8613          	mv	a2,s7
    80001248:	00040813          	mv	a6,s0
    8000124c:	000d8793          	mv	a5,s11
    80001250:	000c8713          	mv	a4,s9
    80001254:	00048693          	mv	a3,s1
    80001258:	00090593          	mv	a1,s2
    8000125c:	00098513          	mv	a0,s3
    80001260:	c10ff0ef          	jal	80000670 <_ftoa>
    80001264:	008c0c13          	add	s8,s8,8
    80001268:	00050b93          	mv	s7,a0
    8000126c:	c89ff06f          	j	80000ef4 <_vsnprintf+0x94>
    80001270:	00247813          	and	a6,s0,2
    80001274:	008c0d13          	add	s10,s8,8
    80001278:	001b8c93          	add	s9,s7,1
    8000127c:	30080c63          	beqz	a6,80001594 <_vsnprintf+0x734>
    80001280:	000c4503          	lbu	a0,0(s8)
    80001284:	00048693          	mv	a3,s1
    80001288:	000b8613          	mv	a2,s7
    8000128c:	00090593          	mv	a1,s2
    80001290:	000980e7          	jalr	s3
    80001294:	00100713          	li	a4,1
    80001298:	3db77663          	bgeu	a4,s11,80001664 <_vsnprintf+0x804>
    8000129c:	ffed879b          	addw	a5,s11,-2
    800012a0:	02079793          	sll	a5,a5,0x20
    800012a4:	002b8e93          	add	t4,s7,2
    800012a8:	0207d793          	srl	a5,a5,0x20
    800012ac:	00fe8bb3          	add	s7,t4,a5
    800012b0:	000c8613          	mv	a2,s9
    800012b4:	00048693          	mv	a3,s1
    800012b8:	001c8c93          	add	s9,s9,1
    800012bc:	00090593          	mv	a1,s2
    800012c0:	02000513          	li	a0,32
    800012c4:	000980e7          	jalr	s3
    800012c8:	ff7c94e3          	bne	s9,s7,800012b0 <_vsnprintf+0x450>
    800012cc:	000d0c13          	mv	s8,s10
    800012d0:	c25ff06f          	j	80000ef4 <_vsnprintf+0x94>
    800012d4:	000b8613          	mv	a2,s7
    800012d8:	00048693          	mv	a3,s1
    800012dc:	00090593          	mv	a1,s2
    800012e0:	02500513          	li	a0,37
    800012e4:	001b8b93          	add	s7,s7,1
    800012e8:	000980e7          	jalr	s3
    800012ec:	c09ff06f          	j	80000ef4 <_vsnprintf+0x94>
    800012f0:	000c3783          	ld	a5,0(s8)
    800012f4:	fff00693          	li	a3,-1
    800012f8:	00f13823          	sd	a5,16(sp)
    800012fc:	008c0793          	add	a5,s8,8
    80001300:	02f13423          	sd	a5,40(sp)
    80001304:	0e0c9c63          	bnez	s9,800013fc <_vsnprintf+0x59c>
    80001308:	01013d03          	ld	s10,16(sp)
    8000130c:	000d4503          	lbu	a0,0(s10)
    80001310:	4e050e63          	beqz	a0,8000180c <_vsnprintf+0x9ac>
    80001314:	00dd06b3          	add	a3,s10,a3
    80001318:	0080006f          	j	80001320 <_vsnprintf+0x4c0>
    8000131c:	00dd0863          	beq	s10,a3,8000132c <_vsnprintf+0x4cc>
    80001320:	001d4703          	lbu	a4,1(s10)
    80001324:	001d0d13          	add	s10,s10,1
    80001328:	fe071ae3          	bnez	a4,8000131c <_vsnprintf+0x4bc>
    8000132c:	01013783          	ld	a5,16(sp)
    80001330:	40fd0d3b          	subw	s10,s10,a5
    80001334:	40047793          	and	a5,s0,1024
    80001338:	02f13023          	sd	a5,32(sp)
    8000133c:	00078a63          	beqz	a5,80001350 <_vsnprintf+0x4f0>
    80001340:	000c8713          	mv	a4,s9
    80001344:	019d7463          	bgeu	s10,s9,8000134c <_vsnprintf+0x4ec>
    80001348:	000d0713          	mv	a4,s10
    8000134c:	00070d1b          	sext.w	s10,a4
    80001350:	00247413          	and	s0,s0,2
    80001354:	28040e63          	beqz	s0,800015f0 <_vsnprintf+0x790>
    80001358:	18050863          	beqz	a0,800014e8 <_vsnprintf+0x688>
    8000135c:	02013783          	ld	a5,32(sp)
    80001360:	0a079463          	bnez	a5,80001408 <_vsnprintf+0x5a8>
    80001364:	000b8c13          	mv	s8,s7
    80001368:	000c0613          	mv	a2,s8
    8000136c:	00048693          	mv	a3,s1
    80001370:	00090593          	mv	a1,s2
    80001374:	000980e7          	jalr	s3
    80001378:	01013783          	ld	a5,16(sp)
    8000137c:	001c0c13          	add	s8,s8,1
    80001380:	417c06b3          	sub	a3,s8,s7
    80001384:	00d786b3          	add	a3,a5,a3
    80001388:	0006c503          	lbu	a0,0(a3)
    8000138c:	fc051ee3          	bnez	a0,80001368 <_vsnprintf+0x508>
    80001390:	000c0b93          	mv	s7,s8
    80001394:	14041a63          	bnez	s0,800014e8 <_vsnprintf+0x688>
    80001398:	02813c03          	ld	s8,40(sp)
    8000139c:	b59ff06f          	j	80000ef4 <_vsnprintf+0x94>
    800013a0:	00900693          	li	a3,9
    800013a4:	002c971b          	sllw	a4,s9,0x2
    800013a8:	0197073b          	addw	a4,a4,s9
    800013ac:	00160613          	add	a2,a2,1
    800013b0:	0017171b          	sllw	a4,a4,0x1
    800013b4:	00a7073b          	addw	a4,a4,a0
    800013b8:	00064503          	lbu	a0,0(a2)
    800013bc:	fd070c9b          	addw	s9,a4,-48
    800013c0:	fd05071b          	addw	a4,a0,-48
    800013c4:	0ff77713          	zext.b	a4,a4
    800013c8:	fce6fee3          	bgeu	a3,a4,800013a4 <_vsnprintf+0x544>
    800013cc:	00060a93          	mv	s5,a2
    800013d0:	00160693          	add	a3,a2,1
    800013d4:	b89ff06f          	j	80000f5c <_vsnprintf+0xfc>
    800013d8:	000c2703          	lw	a4,0(s8)
    800013dc:	002ac503          	lbu	a0,2(s5)
    800013e0:	002a8a93          	add	s5,s5,2
    800013e4:	fff74893          	not	a7,a4
    800013e8:	43f8d893          	sra	a7,a7,0x3f
    800013ec:	00e8fcb3          	and	s9,a7,a4
    800013f0:	008c0c13          	add	s8,s8,8
    800013f4:	001a8693          	add	a3,s5,1
    800013f8:	b65ff06f          	j	80000f5c <_vsnprintf+0xfc>
    800013fc:	020c9693          	sll	a3,s9,0x20
    80001400:	0206d693          	srl	a3,a3,0x20
    80001404:	f05ff06f          	j	80001308 <_vsnprintf+0x4a8>
    80001408:	020c9893          	sll	a7,s9,0x20
    8000140c:	0208d893          	srl	a7,a7,0x20
    80001410:	01788cb3          	add	s9,a7,s7
    80001414:	000b8613          	mv	a2,s7
    80001418:	16cc8863          	beq	s9,a2,80001588 <_vsnprintf+0x728>
    8000141c:	00048693          	mv	a3,s1
    80001420:	00090593          	mv	a1,s2
    80001424:	00160c13          	add	s8,a2,1
    80001428:	000980e7          	jalr	s3
    8000142c:	01013783          	ld	a5,16(sp)
    80001430:	417c06b3          	sub	a3,s8,s7
    80001434:	00d786b3          	add	a3,a5,a3
    80001438:	0006c503          	lbu	a0,0(a3)
    8000143c:	f4050ae3          	beqz	a0,80001390 <_vsnprintf+0x530>
    80001440:	000c0613          	mv	a2,s8
    80001444:	fd5ff06f          	j	80001418 <_vsnprintf+0x5b8>
    80001448:	06200713          	li	a4,98
    8000144c:	26e50463          	beq	a0,a4,800016b4 <_vsnprintf+0x854>
    80001450:	05800713          	li	a4,88
    80001454:	2ae50c63          	beq	a0,a4,8000170c <_vsnprintf+0x8ac>
    80001458:	40047713          	and	a4,s0,1024
    8000145c:	1e071463          	bnez	a4,80001644 <_vsnprintf+0x7e4>
    80001460:	fef47693          	and	a3,s0,-17
    80001464:	0006869b          	sext.w	a3,a3
    80001468:	2006f713          	and	a4,a3,512
    8000146c:	008c0413          	add	s0,s8,8
    80001470:	00068613          	mv	a2,a3
    80001474:	1e071e63          	bnez	a4,80001670 <_vsnprintf+0x810>
    80001478:	1006f713          	and	a4,a3,256
    8000147c:	2e071863          	bnez	a4,8000176c <_vsnprintf+0x90c>
    80001480:	04067713          	and	a4,a2,64
    80001484:	000c2783          	lw	a5,0(s8)
    80001488:	30070863          	beqz	a4,80001798 <_vsnprintf+0x938>
    8000148c:	0ff7f793          	zext.b	a5,a5
    80001490:	00078713          	mv	a4,a5
    80001494:	000b8613          	mv	a2,s7
    80001498:	00d13423          	sd	a3,8(sp)
    8000149c:	01b13023          	sd	s11,0(sp)
    800014a0:	000c8893          	mv	a7,s9
    800014a4:	00a00813          	li	a6,10
    800014a8:	01f7d79b          	srlw	a5,a5,0x1f
    800014ac:	00048693          	mv	a3,s1
    800014b0:	00090593          	mv	a1,s2
    800014b4:	00098513          	mv	a0,s3
    800014b8:	da1fe0ef          	jal	80000258 <_ntoa_long>
    800014bc:	00050b93          	mv	s7,a0
    800014c0:	00040c13          	mv	s8,s0
    800014c4:	a31ff06f          	j	80000ef4 <_vsnprintf+0x94>
    800014c8:	02046413          	or	s0,s0,32
    800014cc:	0004041b          	sext.w	s0,s0
    800014d0:	d71ff06f          	j	80001240 <_vsnprintf+0x3e0>
    800014d4:	00001737          	lui	a4,0x1
    800014d8:	80070713          	add	a4,a4,-2048 # 800 <_start-0x7ffff800>
    800014dc:	00e46733          	or	a4,s0,a4
    800014e0:	0007041b          	sext.w	s0,a4
    800014e4:	ce9ff06f          	j	800011cc <_vsnprintf+0x36c>
    800014e8:	000b8413          	mv	s0,s7
    800014ec:	ebbd76e3          	bgeu	s10,s11,80001398 <_vsnprintf+0x538>
    800014f0:	fffd879b          	addw	a5,s11,-1
    800014f4:	41a787bb          	subw	a5,a5,s10
    800014f8:	02079793          	sll	a5,a5,0x20
    800014fc:	0207d793          	srl	a5,a5,0x20
    80001500:	001b8e93          	add	t4,s7,1
    80001504:	01d78bb3          	add	s7,a5,t4
    80001508:	00040613          	mv	a2,s0
    8000150c:	00048693          	mv	a3,s1
    80001510:	00140413          	add	s0,s0,1
    80001514:	00090593          	mv	a1,s2
    80001518:	02000513          	li	a0,32
    8000151c:	000980e7          	jalr	s3
    80001520:	ff7414e3          	bne	s0,s7,80001508 <_vsnprintf+0x6a8>
    80001524:	02813c03          	ld	s8,40(sp)
    80001528:	9cdff06f          	j	80000ef4 <_vsnprintf+0x94>
    8000152c:	07800713          	li	a4,120
    80001530:	20e51a63          	bne	a0,a4,80001744 <_vsnprintf+0x8e4>
    80001534:	40047713          	and	a4,s0,1024
    80001538:	2e070c63          	beqz	a4,80001830 <_vsnprintf+0x9d0>
    8000153c:	ff247693          	and	a3,s0,-14
    80001540:	0006869b          	sext.w	a3,a3
    80001544:	01000813          	li	a6,16
    80001548:	1800006f          	j	800016c8 <_vsnprintf+0x868>
    8000154c:	00001737          	lui	a4,0x1
    80001550:	80070713          	add	a4,a4,-2048 # 800 <_start-0x7ffff800>
    80001554:	00e46733          	or	a4,s0,a4
    80001558:	0007041b          	sext.w	s0,a4
    8000155c:	02046413          	or	s0,s0,32
    80001560:	0004041b          	sext.w	s0,s0
    80001564:	c69ff06f          	j	800011cc <_vsnprintf+0x36c>
    80001568:	0c046413          	or	s0,s0,192
    8000156c:	002ac503          	lbu	a0,2(s5)
    80001570:	0004041b          	sext.w	s0,s0
    80001574:	003a8693          	add	a3,s5,3
    80001578:	a71ff06f          	j	80000fe8 <_vsnprintf+0x188>
    8000157c:	00000413          	li	s0,0
    80001580:	b29be8e3          	bltu	s7,s1,800010b0 <_vsnprintf+0x250>
    80001584:	b29ff06f          	j	800010ac <_vsnprintf+0x24c>
    80001588:	000c8b93          	mv	s7,s9
    8000158c:	e00406e3          	beqz	s0,80001398 <_vsnprintf+0x538>
    80001590:	f59ff06f          	j	800014e8 <_vsnprintf+0x688>
    80001594:	00100713          	li	a4,1
    80001598:	0bb77c63          	bgeu	a4,s11,80001650 <_vsnprintf+0x7f0>
    8000159c:	ffed879b          	addw	a5,s11,-2
    800015a0:	02079413          	sll	s0,a5,0x20
    800015a4:	02045413          	srl	s0,s0,0x20
    800015a8:	01940cb3          	add	s9,s0,s9
    800015ac:	000b8d93          	mv	s11,s7
    800015b0:	000d8613          	mv	a2,s11
    800015b4:	00048693          	mv	a3,s1
    800015b8:	001d8d93          	add	s11,s11,1
    800015bc:	00090593          	mv	a1,s2
    800015c0:	02000513          	li	a0,32
    800015c4:	000980e7          	jalr	s3
    800015c8:	ff9d94e3          	bne	s11,s9,800015b0 <_vsnprintf+0x750>
    800015cc:	000c4503          	lbu	a0,0(s8)
    800015d0:	002b8e93          	add	t4,s7,2
    800015d4:	00048693          	mv	a3,s1
    800015d8:	000d8613          	mv	a2,s11
    800015dc:	00090593          	mv	a1,s2
    800015e0:	008e8bb3          	add	s7,t4,s0
    800015e4:	000d0c13          	mv	s8,s10
    800015e8:	000980e7          	jalr	s3
    800015ec:	909ff06f          	j	80000ef4 <_vsnprintf+0x94>
    800015f0:	23bd7663          	bgeu	s10,s11,8000181c <_vsnprintf+0x9bc>
    800015f4:	fffd871b          	addw	a4,s11,-1
    800015f8:	41a70d3b          	subw	s10,a4,s10
    800015fc:	020d1d13          	sll	s10,s10,0x20
    80001600:	020d5d13          	srl	s10,s10,0x20
    80001604:	001b8c13          	add	s8,s7,1
    80001608:	018d0d33          	add	s10,s10,s8
    8000160c:	0080006f          	j	80001614 <_vsnprintf+0x7b4>
    80001610:	001c0c13          	add	s8,s8,1
    80001614:	000b8613          	mv	a2,s7
    80001618:	00048693          	mv	a3,s1
    8000161c:	00090593          	mv	a1,s2
    80001620:	02000513          	li	a0,32
    80001624:	000c0b93          	mv	s7,s8
    80001628:	000980e7          	jalr	s3
    8000162c:	ffac12e3          	bne	s8,s10,80001610 <_vsnprintf+0x7b0>
    80001630:	01013783          	ld	a5,16(sp)
    80001634:	001d8d1b          	addw	s10,s11,1
    80001638:	0007c503          	lbu	a0,0(a5)
    8000163c:	d20510e3          	bnez	a0,8000135c <_vsnprintf+0x4fc>
    80001640:	d59ff06f          	j	80001398 <_vsnprintf+0x538>
    80001644:	fee47693          	and	a3,s0,-18
    80001648:	0006869b          	sext.w	a3,a3
    8000164c:	e1dff06f          	j	80001468 <_vsnprintf+0x608>
    80001650:	000c4503          	lbu	a0,0(s8)
    80001654:	00048693          	mv	a3,s1
    80001658:	000b8613          	mv	a2,s7
    8000165c:	00090593          	mv	a1,s2
    80001660:	000980e7          	jalr	s3
    80001664:	000c8b93          	mv	s7,s9
    80001668:	000d0c13          	mv	s8,s10
    8000166c:	889ff06f          	j	80000ef4 <_vsnprintf+0x94>
    80001670:	000c3783          	ld	a5,0(s8)
    80001674:	00d13423          	sd	a3,8(sp)
    80001678:	000b8613          	mv	a2,s7
    8000167c:	43f7d713          	sra	a4,a5,0x3f
    80001680:	00f746b3          	xor	a3,a4,a5
    80001684:	01b13023          	sd	s11,0(sp)
    80001688:	000c8893          	mv	a7,s9
    8000168c:	00a00813          	li	a6,10
    80001690:	03f7d793          	srl	a5,a5,0x3f
    80001694:	40e68733          	sub	a4,a3,a4
    80001698:	00048693          	mv	a3,s1
    8000169c:	00090593          	mv	a1,s2
    800016a0:	00098513          	mv	a0,s3
    800016a4:	bb5fe0ef          	jal	80000258 <_ntoa_long>
    800016a8:	00050b93          	mv	s7,a0
    800016ac:	00040c13          	mv	s8,s0
    800016b0:	845ff06f          	j	80000ef4 <_vsnprintf+0x94>
    800016b4:	40047713          	and	a4,s0,1024
    800016b8:	12070a63          	beqz	a4,800017ec <_vsnprintf+0x98c>
    800016bc:	ff247693          	and	a3,s0,-14
    800016c0:	0006869b          	sext.w	a3,a3
    800016c4:	00200813          	li	a6,2
    800016c8:	2006f713          	and	a4,a3,512
    800016cc:	008c0413          	add	s0,s8,8
    800016d0:	00068613          	mv	a2,a3
    800016d4:	04071a63          	bnez	a4,80001728 <_vsnprintf+0x8c8>
    800016d8:	1006f713          	and	a4,a3,256
    800016dc:	0e071a63          	bnez	a4,800017d0 <_vsnprintf+0x970>
    800016e0:	04067713          	and	a4,a2,64
    800016e4:	0c070e63          	beqz	a4,800017c0 <_vsnprintf+0x960>
    800016e8:	000c4703          	lbu	a4,0(s8)
    800016ec:	02071713          	sll	a4,a4,0x20
    800016f0:	000b8613          	mv	a2,s7
    800016f4:	00d13423          	sd	a3,8(sp)
    800016f8:	01b13023          	sd	s11,0(sp)
    800016fc:	000c8893          	mv	a7,s9
    80001700:	00000793          	li	a5,0
    80001704:	02075713          	srl	a4,a4,0x20
    80001708:	da5ff06f          	j	800014ac <_vsnprintf+0x64c>
    8000170c:	40047713          	and	a4,s0,1024
    80001710:	10070c63          	beqz	a4,80001828 <_vsnprintf+0x9c8>
    80001714:	ff247693          	and	a3,s0,-14
    80001718:	0006869b          	sext.w	a3,a3
    8000171c:	0206e693          	or	a3,a3,32
    80001720:	01000813          	li	a6,16
    80001724:	fa5ff06f          	j	800016c8 <_vsnprintf+0x868>
    80001728:	000c3703          	ld	a4,0(s8)
    8000172c:	000b8613          	mv	a2,s7
    80001730:	00d13423          	sd	a3,8(sp)
    80001734:	01b13023          	sd	s11,0(sp)
    80001738:	000c8893          	mv	a7,s9
    8000173c:	00000793          	li	a5,0
    80001740:	f59ff06f          	j	80001698 <_vsnprintf+0x838>
    80001744:	06f00713          	li	a4,111
    80001748:	0ee51c63          	bne	a0,a4,80001840 <_vsnprintf+0x9e0>
    8000174c:	ff347693          	and	a3,s0,-13
    80001750:	40047713          	and	a4,s0,1024
    80001754:	00800813          	li	a6,8
    80001758:	0006869b          	sext.w	a3,a3
    8000175c:	f60706e3          	beqz	a4,800016c8 <_vsnprintf+0x868>
    80001760:	ff247693          	and	a3,s0,-14
    80001764:	0006869b          	sext.w	a3,a3
    80001768:	f61ff06f          	j	800016c8 <_vsnprintf+0x868>
    8000176c:	000c3783          	ld	a5,0(s8)
    80001770:	00d13423          	sd	a3,8(sp)
    80001774:	000b8613          	mv	a2,s7
    80001778:	43f7d713          	sra	a4,a5,0x3f
    8000177c:	00f746b3          	xor	a3,a4,a5
    80001780:	01b13023          	sd	s11,0(sp)
    80001784:	000c8893          	mv	a7,s9
    80001788:	00a00813          	li	a6,10
    8000178c:	03f7d793          	srl	a5,a5,0x3f
    80001790:	40e68733          	sub	a4,a3,a4
    80001794:	d19ff06f          	j	800014ac <_vsnprintf+0x64c>
    80001798:	08067613          	and	a2,a2,128
    8000179c:	06060063          	beqz	a2,800017fc <_vsnprintf+0x99c>
    800017a0:	0107979b          	sllw	a5,a5,0x10
    800017a4:	4107d79b          	sraw	a5,a5,0x10
    800017a8:	40f7d61b          	sraw	a2,a5,0xf
    800017ac:	00c7c733          	xor	a4,a5,a2
    800017b0:	40c7073b          	subw	a4,a4,a2
    800017b4:	03071713          	sll	a4,a4,0x30
    800017b8:	03075713          	srl	a4,a4,0x30
    800017bc:	cd9ff06f          	j	80001494 <_vsnprintf+0x634>
    800017c0:	08067613          	and	a2,a2,128
    800017c4:	04060863          	beqz	a2,80001814 <_vsnprintf+0x9b4>
    800017c8:	000c5703          	lhu	a4,0(s8)
    800017cc:	f21ff06f          	j	800016ec <_vsnprintf+0x88c>
    800017d0:	000c3703          	ld	a4,0(s8)
    800017d4:	000b8613          	mv	a2,s7
    800017d8:	00d13423          	sd	a3,8(sp)
    800017dc:	01b13023          	sd	s11,0(sp)
    800017e0:	000c8893          	mv	a7,s9
    800017e4:	00000793          	li	a5,0
    800017e8:	cc5ff06f          	j	800014ac <_vsnprintf+0x64c>
    800017ec:	ff347693          	and	a3,s0,-13
    800017f0:	0006869b          	sext.w	a3,a3
    800017f4:	00200813          	li	a6,2
    800017f8:	ed1ff06f          	j	800016c8 <_vsnprintf+0x868>
    800017fc:	41f7d61b          	sraw	a2,a5,0x1f
    80001800:	00c7c733          	xor	a4,a5,a2
    80001804:	40c7073b          	subw	a4,a4,a2
    80001808:	c8dff06f          	j	80001494 <_vsnprintf+0x634>
    8000180c:	00000d13          	li	s10,0
    80001810:	b25ff06f          	j	80001334 <_vsnprintf+0x4d4>
    80001814:	000c2703          	lw	a4,0(s8)
    80001818:	ed5ff06f          	j	800016ec <_vsnprintf+0x88c>
    8000181c:	001d0d1b          	addw	s10,s10,1
    80001820:	b2051ee3          	bnez	a0,8000135c <_vsnprintf+0x4fc>
    80001824:	b75ff06f          	j	80001398 <_vsnprintf+0x538>
    80001828:	02046413          	or	s0,s0,32
    8000182c:	0004041b          	sext.w	s0,s0
    80001830:	ff347693          	and	a3,s0,-13
    80001834:	0006869b          	sext.w	a3,a3
    80001838:	01000813          	li	a6,16
    8000183c:	e8dff06f          	j	800016c8 <_vsnprintf+0x868>
    80001840:	fef47693          	and	a3,s0,-17
    80001844:	06900613          	li	a2,105
    80001848:	00040713          	mv	a4,s0
    8000184c:	0006869b          	sext.w	a3,a3
    80001850:	00c51c63          	bne	a0,a2,80001868 <_vsnprintf+0xa08>
    80001854:	40047813          	and	a6,s0,1024
    80001858:	c00808e3          	beqz	a6,80001468 <_vsnprintf+0x608>
    8000185c:	fee77713          	and	a4,a4,-18
    80001860:	0007069b          	sext.w	a3,a4
    80001864:	c05ff06f          	j	80001468 <_vsnprintf+0x608>
    80001868:	40047813          	and	a6,s0,1024
    8000186c:	00080863          	beqz	a6,8000187c <_vsnprintf+0xa1c>
    80001870:	00068413          	mv	s0,a3
    80001874:	00a00813          	li	a6,10
    80001878:	ee9ff06f          	j	80001760 <_vsnprintf+0x900>
    8000187c:	fe377713          	and	a4,a4,-29
    80001880:	0007069b          	sext.w	a3,a4
    80001884:	00a00813          	li	a6,10
    80001888:	e41ff06f          	j	800016c8 <_vsnprintf+0x868>

Disassembly of section .text.printf_:

000000008000188c <printf_>:
    8000188c:	fa010113          	add	sp,sp,-96
    80001890:	02810313          	add	t1,sp,40
    80001894:	02b13423          	sd	a1,40(sp)
    80001898:	02c13823          	sd	a2,48(sp)
    8000189c:	02d13c23          	sd	a3,56(sp)
    800018a0:	04e13023          	sd	a4,64(sp)
    800018a4:	00050693          	mv	a3,a0
    800018a8:	00010593          	mv	a1,sp
    800018ac:	00030713          	mv	a4,t1
    800018b0:	fff00613          	li	a2,-1
    800018b4:	fffff517          	auipc	a0,0xfffff
    800018b8:	db050513          	add	a0,a0,-592 # 80000664 <_out_char>
    800018bc:	00113c23          	sd	ra,24(sp)
    800018c0:	04f13423          	sd	a5,72(sp)
    800018c4:	05013823          	sd	a6,80(sp)
    800018c8:	05113c23          	sd	a7,88(sp)
    800018cc:	00613423          	sd	t1,8(sp)
    800018d0:	d90ff0ef          	jal	80000e60 <_vsnprintf>
    800018d4:	01813083          	ld	ra,24(sp)
    800018d8:	06010113          	add	sp,sp,96
    800018dc:	00008067          	ret
