
/nfs/home/fuwenyi/xiaohe/nexus-am/tests/softmdutest/build/softmdutest-riscv64-nutshell.elf:     file format elf64-littleriscv


Disassembly of section .text:

0000000080000000 <_start>:
    80000000:	00000413          	li	s0,0
    80000004:	00007117          	auipc	sp,0x7
    80000008:	ffc10113          	add	sp,sp,-4 # 80007000 <_stack_top+0x4000>
    8000000c:	f14022f3          	csrr	t0,mhartid
    80000010:	00029463          	bnez	t0,80000018 <setup_stack1>

0000000080000014 <to_main>:
    80000014:	6b0000ef          	jal	800006c4 <_trm_init>

0000000080000018 <setup_stack1>:
    80000018:	0000b117          	auipc	sp,0xb
    8000001c:	fe810113          	add	sp,sp,-24 # 8000b000 <_end>
    80000020:	ff5ff06f          	j	80000014 <to_main>

0000000080000024 <softmul>:
    80000024:	800007b7          	lui	a5,0x80000
    80000028:	00050713          	mv	a4,a0
    8000002c:	0cf50663          	beq	a0,a5,800000f8 <softmul+0xd4>
    80000030:	0af58a63          	beq	a1,a5,800000e4 <softmul+0xc0>
    80000034:	00000f93          	li	t6,0
    80000038:	02060063          	beqz	a2,80000058 <softmul+0x34>
    8000003c:	00000613          	li	a2,0
    80000040:	0e054463          	bltz	a0,80000128 <softmul+0x104>
    80000044:	0005879b          	sext.w	a5,a1
    80000048:	00000f93          	li	t6,0
    8000004c:	0007d663          	bgez	a5,80000058 <softmul+0x34>
    80000050:	40b005bb          	negw	a1,a1
    80000054:	00100f93          	li	t6,1
    80000058:	fff00313          	li	t1,-1
    8000005c:	02035313          	srl	t1,t1,0x20
    80000060:	0015981b          	sllw	a6,a1,0x1
    80000064:	0065f7b3          	and	a5,a1,t1
    80000068:	00287813          	and	a6,a6,2
    8000006c:	02000893          	li	a7,32
    80000070:	00100f13          	li	t5,1
    80000074:	00200e93          	li	t4,2
    80000078:	02c0006f          	j	800000a4 <softmul+0x80>
    8000007c:	40a7073b          	subw	a4,a4,a0
    80000080:	02071713          	sll	a4,a4,0x20
    80000084:	0067fe33          	and	t3,a5,t1
    80000088:	01d81463          	bne	a6,t4,80000090 <softmul+0x6c>
    8000008c:	00ee67b3          	or	a5,t3,a4
    80000090:	fff8889b          	addw	a7,a7,-1
    80000094:	0035f813          	and	a6,a1,3
    80000098:	4017d793          	sra	a5,a5,0x1
    8000009c:	02088863          	beqz	a7,800000cc <softmul+0xa8>
    800000a0:	0007859b          	sext.w	a1,a5
    800000a4:	0207d713          	srl	a4,a5,0x20
    800000a8:	fde81ae3          	bne	a6,t5,8000007c <softmul+0x58>
    800000ac:	00a7073b          	addw	a4,a4,a0
    800000b0:	02071713          	sll	a4,a4,0x20
    800000b4:	0067f7b3          	and	a5,a5,t1
    800000b8:	00e7e7b3          	or	a5,a5,a4
    800000bc:	fff8889b          	addw	a7,a7,-1
    800000c0:	0035f813          	and	a6,a1,3
    800000c4:	4017d793          	sra	a5,a5,0x1
    800000c8:	fc089ce3          	bnez	a7,800000a0 <softmul+0x7c>
    800000cc:	01f60463          	beq	a2,t6,800000d4 <softmul+0xb0>
    800000d0:	40f007b3          	neg	a5,a5
    800000d4:	0007851b          	sext.w	a0,a5
    800000d8:	00068463          	beqz	a3,800000e0 <softmul+0xbc>
    800000dc:	4207d513          	sra	a0,a5,0x20
    800000e0:	00008067          	ret
    800000e4:	02060463          	beqz	a2,8000010c <softmul+0xe8>
    800000e8:	00050593          	mv	a1,a0
    800000ec:	00100613          	li	a2,1
    800000f0:	80000537          	lui	a0,0x80000
    800000f4:	f51ff06f          	j	80000044 <softmul+0x20>
    800000f8:	02a58263          	beq	a1,a0,8000011c <softmul+0xf8>
    800000fc:	00000f93          	li	t6,0
    80000100:	f4060ce3          	beqz	a2,80000058 <softmul+0x34>
    80000104:	00100613          	li	a2,1
    80000108:	f3dff06f          	j	80000044 <softmul+0x20>
    8000010c:	00000f93          	li	t6,0
    80000110:	80000537          	lui	a0,0x80000
    80000114:	00070593          	mv	a1,a4
    80000118:	f41ff06f          	j	80000058 <softmul+0x34>
    8000011c:	00d036b3          	snez	a3,a3
    80000120:	01e6951b          	sllw	a0,a3,0x1e
    80000124:	00008067          	ret
    80000128:	40a0053b          	negw	a0,a0
    8000012c:	00100613          	li	a2,1
    80000130:	f15ff06f          	j	80000044 <softmul+0x20>

0000000080000134 <softdiv>:
    80000134:	00000e13          	li	t3,0
    80000138:	00060a63          	beqz	a2,8000014c <softdiv+0x18>
    8000013c:	00000613          	li	a2,0
    80000140:	08054a63          	bltz	a0,800001d4 <softdiv+0xa0>
    80000144:	00000e13          	li	t3,0
    80000148:	0805c063          	bltz	a1,800001c8 <softdiv+0x94>
    8000014c:	02051793          	sll	a5,a0,0x20
    80000150:	fff00313          	li	t1,-1
    80000154:	01f7d513          	srl	a0,a5,0x1f
    80000158:	01f00713          	li	a4,31
    8000015c:	02035313          	srl	t1,t1,0x20
    80000160:	42055813          	sra	a6,a0,0x20
    80000164:	40b807bb          	subw	a5,a6,a1
    80000168:	006578b3          	and	a7,a0,t1
    8000016c:	02079793          	sll	a5,a5,0x20
    80000170:	04b86463          	bltu	a6,a1,800001b8 <softdiv+0x84>
    80000174:	00f8e533          	or	a0,a7,a5
    80000178:	00151513          	sll	a0,a0,0x1
    8000017c:	fff7071b          	addw	a4,a4,-1
    80000180:	00150513          	add	a0,a0,1 # ffffffff80000001 <_pmem_end+0xfffffffef8000001>
    80000184:	fc071ee3          	bnez	a4,80000160 <softdiv+0x2c>
    80000188:	0015179b          	sllw	a5,a0,0x1
    8000018c:	42055513          	sra	a0,a0,0x20
    80000190:	00b56663          	bltu	a0,a1,8000019c <softdiv+0x68>
    80000194:	40b5053b          	subw	a0,a0,a1
    80000198:	0017879b          	addw	a5,a5,1 # ffffffff80000001 <_pmem_end+0xfffffffef8000001>
    8000019c:	01c60463          	beq	a2,t3,800001a4 <softdiv+0x70>
    800001a0:	40f007bb          	negw	a5,a5
    800001a4:	00060463          	beqz	a2,800001ac <softdiv+0x78>
    800001a8:	40a0053b          	negw	a0,a0
    800001ac:	00069463          	bnez	a3,800001b4 <softdiv+0x80>
    800001b0:	00078513          	mv	a0,a5
    800001b4:	00008067          	ret
    800001b8:	fff7071b          	addw	a4,a4,-1
    800001bc:	00151513          	sll	a0,a0,0x1
    800001c0:	fa0710e3          	bnez	a4,80000160 <softdiv+0x2c>
    800001c4:	fc5ff06f          	j	80000188 <softdiv+0x54>
    800001c8:	40b005bb          	negw	a1,a1
    800001cc:	00100e13          	li	t3,1
    800001d0:	f7dff06f          	j	8000014c <softdiv+0x18>
    800001d4:	40a0053b          	negw	a0,a0
    800001d8:	00100613          	li	a2,1
    800001dc:	00000e13          	li	t3,0
    800001e0:	f605d6e3          	bgez	a1,8000014c <softdiv+0x18>
    800001e4:	fe5ff06f          	j	800001c8 <softdiv+0x94>

00000000800001e8 <check_mul>:
    800001e8:	fc010113          	add	sp,sp,-64
    800001ec:	01513423          	sd	s5,8(sp)
    800001f0:	02b50ab3          	mul	s5,a0,a1
    800001f4:	02813823          	sd	s0,48(sp)
    800001f8:	01413823          	sd	s4,16(sp)
    800001fc:	0005041b          	sext.w	s0,a0
    80000200:	00058a1b          	sext.w	s4,a1
    80000204:	03213023          	sd	s2,32(sp)
    80000208:	01313c23          	sd	s3,24(sp)
    8000020c:	00000693          	li	a3,0
    80000210:	00100613          	li	a2,1
    80000214:	00050913          	mv	s2,a0
    80000218:	00058993          	mv	s3,a1
    8000021c:	00040513          	mv	a0,s0
    80000220:	000a0593          	mv	a1,s4
    80000224:	02113c23          	sd	ra,56(sp)
    80000228:	02913423          	sd	s1,40(sp)
    8000022c:	df9ff0ef          	jal	80000024 <softmul>
    80000230:	00050493          	mv	s1,a0
    80000234:	00100693          	li	a3,1
    80000238:	00040513          	mv	a0,s0
    8000023c:	00100613          	li	a2,1
    80000240:	000a0593          	mv	a1,s4
    80000244:	0004849b          	sext.w	s1,s1
    80000248:	dddff0ef          	jal	80000024 <softmul>
    8000024c:	02049493          	sll	s1,s1,0x20
    80000250:	02051413          	sll	s0,a0,0x20
    80000254:	0204d493          	srl	s1,s1,0x20
    80000258:	00946433          	or	s0,s0,s1
    8000025c:	03541463          	bne	s0,s5,80000284 <check_mul+0x9c>
    80000260:	03813083          	ld	ra,56(sp)
    80000264:	03013403          	ld	s0,48(sp)
    80000268:	02813483          	ld	s1,40(sp)
    8000026c:	02013903          	ld	s2,32(sp)
    80000270:	01813983          	ld	s3,24(sp)
    80000274:	01013a03          	ld	s4,16(sp)
    80000278:	00813a83          	ld	s5,8(sp)
    8000027c:	04010113          	add	sp,sp,64
    80000280:	00008067          	ret
    80000284:	00090613          	mv	a2,s2
    80000288:	00090593          	mv	a1,s2
    8000028c:	00098713          	mv	a4,s3
    80000290:	00098693          	mv	a3,s3
    80000294:	00002517          	auipc	a0,0x2
    80000298:	aa450513          	add	a0,a0,-1372 # 80001d38 <printf_+0x54>
    8000029c:	249010ef          	jal	80001ce4 <printf_>
    800002a0:	00040613          	mv	a2,s0
    800002a4:	03013403          	ld	s0,48(sp)
    800002a8:	03813083          	ld	ra,56(sp)
    800002ac:	02813483          	ld	s1,40(sp)
    800002b0:	02013903          	ld	s2,32(sp)
    800002b4:	01813983          	ld	s3,24(sp)
    800002b8:	01013a03          	ld	s4,16(sp)
    800002bc:	000a8593          	mv	a1,s5
    800002c0:	00813a83          	ld	s5,8(sp)
    800002c4:	00002517          	auipc	a0,0x2
    800002c8:	a9c50513          	add	a0,a0,-1380 # 80001d60 <printf_+0x7c>
    800002cc:	04010113          	add	sp,sp,64
    800002d0:	2150106f          	j	80001ce4 <printf_>

00000000800002d4 <check_div>:
    800002d4:	fc010113          	add	sp,sp,-64
    800002d8:	02813823          	sd	s0,48(sp)
    800002dc:	02913423          	sd	s1,40(sp)
    800002e0:	02113c23          	sd	ra,56(sp)
    800002e4:	03213023          	sd	s2,32(sp)
    800002e8:	01313c23          	sd	s3,24(sp)
    800002ec:	01413823          	sd	s4,16(sp)
    800002f0:	01513423          	sd	s5,8(sp)
    800002f4:	800007b7          	lui	a5,0x80000
    800002f8:	00050413          	mv	s0,a0
    800002fc:	00058493          	mv	s1,a1
    80000300:	0af50463          	beq	a0,a5,800003a8 <check_div+0xd4>
    80000304:	02944a3b          	divw	s4,s0,s1
    80000308:	0004091b          	sext.w	s2,s0
    8000030c:	0004899b          	sext.w	s3,s1
    80000310:	00098593          	mv	a1,s3
    80000314:	00000693          	li	a3,0
    80000318:	00100613          	li	a2,1
    8000031c:	00090513          	mv	a0,s2
    80000320:	e15ff0ef          	jal	80000134 <softdiv>
    80000324:	00050793          	mv	a5,a0
    80000328:	00098593          	mv	a1,s3
    8000032c:	00090513          	mv	a0,s2
    80000330:	00100693          	li	a3,1
    80000334:	00100613          	li	a2,1
    80000338:	0007891b          	sext.w	s2,a5
    8000033c:	df9ff0ef          	jal	80000134 <softdiv>
    80000340:	0005099b          	sext.w	s3,a0
    80000344:	02946abb          	remw	s5,s0,s1
    80000348:	01491463          	bne	s2,s4,80000350 <check_div+0x7c>
    8000034c:	07598263          	beq	s3,s5,800003b0 <check_div+0xdc>
    80000350:	00048713          	mv	a4,s1
    80000354:	00048693          	mv	a3,s1
    80000358:	00040613          	mv	a2,s0
    8000035c:	00040593          	mv	a1,s0
    80000360:	00002517          	auipc	a0,0x2
    80000364:	a2850513          	add	a0,a0,-1496 # 80001d88 <printf_+0xa4>
    80000368:	17d010ef          	jal	80001ce4 <printf_>
    8000036c:	03013403          	ld	s0,48(sp)
    80000370:	03813083          	ld	ra,56(sp)
    80000374:	02813483          	ld	s1,40(sp)
    80000378:	00098713          	mv	a4,s3
    8000037c:	00090693          	mv	a3,s2
    80000380:	01813983          	ld	s3,24(sp)
    80000384:	02013903          	ld	s2,32(sp)
    80000388:	000a8613          	mv	a2,s5
    8000038c:	000a0593          	mv	a1,s4
    80000390:	00813a83          	ld	s5,8(sp)
    80000394:	01013a03          	ld	s4,16(sp)
    80000398:	00002517          	auipc	a0,0x2
    8000039c:	a1050513          	add	a0,a0,-1520 # 80001da8 <printf_+0xc4>
    800003a0:	04010113          	add	sp,sp,64
    800003a4:	1410106f          	j	80001ce4 <printf_>
    800003a8:	fff00793          	li	a5,-1
    800003ac:	f4f59ce3          	bne	a1,a5,80000304 <check_div+0x30>
    800003b0:	03813083          	ld	ra,56(sp)
    800003b4:	03013403          	ld	s0,48(sp)
    800003b8:	02813483          	ld	s1,40(sp)
    800003bc:	02013903          	ld	s2,32(sp)
    800003c0:	01813983          	ld	s3,24(sp)
    800003c4:	01013a03          	ld	s4,16(sp)
    800003c8:	00813a83          	ld	s5,8(sp)
    800003cc:	04010113          	add	sp,sp,64
    800003d0:	00008067          	ret

00000000800003d4 <check_divu>:
    800003d4:	fc010113          	add	sp,sp,-64
    800003d8:	01413823          	sd	s4,16(sp)
    800003dc:	02b55a3b          	divuw	s4,a0,a1
    800003e0:	00000693          	li	a3,0
    800003e4:	00000613          	li	a2,0
    800003e8:	02113c23          	sd	ra,56(sp)
    800003ec:	02813823          	sd	s0,48(sp)
    800003f0:	02913423          	sd	s1,40(sp)
    800003f4:	00050413          	mv	s0,a0
    800003f8:	00058493          	mv	s1,a1
    800003fc:	03213023          	sd	s2,32(sp)
    80000400:	01313c23          	sd	s3,24(sp)
    80000404:	01513423          	sd	s5,8(sp)
    80000408:	d2dff0ef          	jal	80000134 <softdiv>
    8000040c:	00050913          	mv	s2,a0
    80000410:	00100693          	li	a3,1
    80000414:	00000613          	li	a2,0
    80000418:	00048593          	mv	a1,s1
    8000041c:	00040513          	mv	a0,s0
    80000420:	d15ff0ef          	jal	80000134 <softdiv>
    80000424:	0009091b          	sext.w	s2,s2
    80000428:	0005099b          	sext.w	s3,a0
    8000042c:	02947abb          	remuw	s5,s0,s1
    80000430:	01491463          	bne	s2,s4,80000438 <check_divu+0x64>
    80000434:	05598e63          	beq	s3,s5,80000490 <check_divu+0xbc>
    80000438:	00048713          	mv	a4,s1
    8000043c:	00048693          	mv	a3,s1
    80000440:	00040613          	mv	a2,s0
    80000444:	00040593          	mv	a1,s0
    80000448:	00002517          	auipc	a0,0x2
    8000044c:	94050513          	add	a0,a0,-1728 # 80001d88 <printf_+0xa4>
    80000450:	095010ef          	jal	80001ce4 <printf_>
    80000454:	03013403          	ld	s0,48(sp)
    80000458:	03813083          	ld	ra,56(sp)
    8000045c:	02813483          	ld	s1,40(sp)
    80000460:	00098713          	mv	a4,s3
    80000464:	00090693          	mv	a3,s2
    80000468:	01813983          	ld	s3,24(sp)
    8000046c:	02013903          	ld	s2,32(sp)
    80000470:	000a8613          	mv	a2,s5
    80000474:	000a0593          	mv	a1,s4
    80000478:	00813a83          	ld	s5,8(sp)
    8000047c:	01013a03          	ld	s4,16(sp)
    80000480:	00002517          	auipc	a0,0x2
    80000484:	92850513          	add	a0,a0,-1752 # 80001da8 <printf_+0xc4>
    80000488:	04010113          	add	sp,sp,64
    8000048c:	0590106f          	j	80001ce4 <printf_>
    80000490:	03813083          	ld	ra,56(sp)
    80000494:	03013403          	ld	s0,48(sp)
    80000498:	02813483          	ld	s1,40(sp)
    8000049c:	02013903          	ld	s2,32(sp)
    800004a0:	01813983          	ld	s3,24(sp)
    800004a4:	01013a03          	ld	s4,16(sp)
    800004a8:	00813a83          	ld	s5,8(sp)
    800004ac:	04010113          	add	sp,sp,64
    800004b0:	00008067          	ret

Disassembly of section .text.startup:

00000000800004b4 <main>:
    800004b4:	f9010113          	add	sp,sp,-112
    800004b8:	05313423          	sd	s3,72(sp)
    800004bc:	03513c23          	sd	s5,56(sp)
    800004c0:	03613823          	sd	s6,48(sp)
    800004c4:	03713423          	sd	s7,40(sp)
    800004c8:	03813023          	sd	s8,32(sp)
    800004cc:	06113423          	sd	ra,104(sp)
    800004d0:	06813023          	sd	s0,96(sp)
    800004d4:	04913c23          	sd	s1,88(sp)
    800004d8:	05213823          	sd	s2,80(sp)
    800004dc:	05413023          	sd	s4,64(sp)
    800004e0:	01913c23          	sd	s9,24(sp)
    800004e4:	01a13823          	sd	s10,16(sp)
    800004e8:	01b13423          	sd	s11,8(sp)
    800004ec:	00002997          	auipc	s3,0x2
    800004f0:	c0498993          	add	s3,s3,-1020 # 800020f0 <v>
    800004f4:	00002b97          	auipc	s7,0x2
    800004f8:	c20b8b93          	add	s7,s7,-992 # 80002114 <v+0x24>
    800004fc:	00002b17          	auipc	s6,0x2
    80000500:	83cb0b13          	add	s6,s6,-1988 # 80001d38 <printf_+0x54>
    80000504:	00002a97          	auipc	s5,0x2
    80000508:	884a8a93          	add	s5,s5,-1916 # 80001d88 <printf_+0xa4>
    8000050c:	00002c17          	auipc	s8,0x2
    80000510:	89cc0c13          	add	s8,s8,-1892 # 80001da8 <printf_+0xc4>
    80000514:	00002497          	auipc	s1,0x2
    80000518:	bdc48493          	add	s1,s1,-1060 # 800020f0 <v>
    8000051c:	0044ad83          	lw	s11,4(s1)
    80000520:	0009ad03          	lw	s10,0(s3)
    80000524:	00000693          	li	a3,0
    80000528:	000d8c9b          	sext.w	s9,s11
    8000052c:	03bd0933          	mul	s2,s10,s11
    80000530:	000d041b          	sext.w	s0,s10
    80000534:	00100613          	li	a2,1
    80000538:	000c8593          	mv	a1,s9
    8000053c:	00040513          	mv	a0,s0
    80000540:	ae5ff0ef          	jal	80000024 <softmul>
    80000544:	00050a13          	mv	s4,a0
    80000548:	00100693          	li	a3,1
    8000054c:	00100613          	li	a2,1
    80000550:	000c8593          	mv	a1,s9
    80000554:	00040513          	mv	a0,s0
    80000558:	acdff0ef          	jal	80000024 <softmul>
    8000055c:	000a0a1b          	sext.w	s4,s4
    80000560:	00050413          	mv	s0,a0
    80000564:	020a1a13          	sll	s4,s4,0x20
    80000568:	02041413          	sll	s0,s0,0x20
    8000056c:	020a5a13          	srl	s4,s4,0x20
    80000570:	01446433          	or	s0,s0,s4
    80000574:	000d8713          	mv	a4,s11
    80000578:	000d8693          	mv	a3,s11
    8000057c:	000d0613          	mv	a2,s10
    80000580:	000d0593          	mv	a1,s10
    80000584:	000b0513          	mv	a0,s6
    80000588:	03240263          	beq	s0,s2,800005ac <main+0xf8>
    8000058c:	758010ef          	jal	80001ce4 <printf_>
    80000590:	00040613          	mv	a2,s0
    80000594:	00090593          	mv	a1,s2
    80000598:	00001517          	auipc	a0,0x1
    8000059c:	7c850513          	add	a0,a0,1992 # 80001d60 <printf_+0x7c>
    800005a0:	744010ef          	jal	80001ce4 <printf_>
    800005a4:	0044ad83          	lw	s11,4(s1)
    800005a8:	0009ad03          	lw	s10,0(s3)
    800005ac:	000d8593          	mv	a1,s11
    800005b0:	000d0513          	mv	a0,s10
    800005b4:	d21ff0ef          	jal	800002d4 <check_div>
    800005b8:	0044ad03          	lw	s10,4(s1)
    800005bc:	0009a403          	lw	s0,0(s3)
    800005c0:	00000693          	li	a3,0
    800005c4:	00000613          	li	a2,0
    800005c8:	03a45a3b          	divuw	s4,s0,s10
    800005cc:	000d0593          	mv	a1,s10
    800005d0:	00040513          	mv	a0,s0
    800005d4:	b61ff0ef          	jal	80000134 <softdiv>
    800005d8:	00050913          	mv	s2,a0
    800005dc:	00100693          	li	a3,1
    800005e0:	00000613          	li	a2,0
    800005e4:	000d0593          	mv	a1,s10
    800005e8:	00040513          	mv	a0,s0
    800005ec:	b49ff0ef          	jal	80000134 <softdiv>
    800005f0:	00050d93          	mv	s11,a0
    800005f4:	0009091b          	sext.w	s2,s2
    800005f8:	00040613          	mv	a2,s0
    800005fc:	00040593          	mv	a1,s0
    80000600:	000d0713          	mv	a4,s10
    80000604:	000d0693          	mv	a3,s10
    80000608:	000a8513          	mv	a0,s5
    8000060c:	00448493          	add	s1,s1,4
    80000610:	000d8d9b          	sext.w	s11,s11
    80000614:	03a4743b          	remuw	s0,s0,s10
    80000618:	01491463          	bne	s2,s4,80000620 <main+0x16c>
    8000061c:	028d8063          	beq	s11,s0,8000063c <main+0x188>
    80000620:	6c4010ef          	jal	80001ce4 <printf_>
    80000624:	000d8713          	mv	a4,s11
    80000628:	00090693          	mv	a3,s2
    8000062c:	00040613          	mv	a2,s0
    80000630:	000a0593          	mv	a1,s4
    80000634:	000c0513          	mv	a0,s8
    80000638:	6ac010ef          	jal	80001ce4 <printf_>
    8000063c:	ee9b90e3          	bne	s7,s1,8000051c <main+0x68>
    80000640:	00498993          	add	s3,s3,4
    80000644:	00002797          	auipc	a5,0x2
    80000648:	ad478793          	add	a5,a5,-1324 # 80002118 <_bss_start>
    8000064c:	ed3794e3          	bne	a5,s3,80000514 <main+0x60>
    80000650:	00001517          	auipc	a0,0x1
    80000654:	79850513          	add	a0,a0,1944 # 80001de8 <printf_+0x104>
    80000658:	68c010ef          	jal	80001ce4 <printf_>
    8000065c:	06813083          	ld	ra,104(sp)
    80000660:	06013403          	ld	s0,96(sp)
    80000664:	05813483          	ld	s1,88(sp)
    80000668:	05013903          	ld	s2,80(sp)
    8000066c:	04813983          	ld	s3,72(sp)
    80000670:	04013a03          	ld	s4,64(sp)
    80000674:	03813a83          	ld	s5,56(sp)
    80000678:	03013b03          	ld	s6,48(sp)
    8000067c:	02813b83          	ld	s7,40(sp)
    80000680:	02013c03          	ld	s8,32(sp)
    80000684:	01813c83          	ld	s9,24(sp)
    80000688:	01013d03          	ld	s10,16(sp)
    8000068c:	00813d83          	ld	s11,8(sp)
    80000690:	00000513          	li	a0,0
    80000694:	07010113          	add	sp,sp,112
    80000698:	00008067          	ret

Disassembly of section .text._putc:

000000008000069c <_putc>:
    8000069c:	0640006f          	j	80000700 <__am_uartlite_putchar>

Disassembly of section .text._halt:

00000000800006a0 <_halt>:
    800006a0:	ff010113          	add	sp,sp,-16
    800006a4:	00113423          	sd	ra,8(sp)
    800006a8:	00050593          	mv	a1,a0
    800006ac:	00050513          	mv	a0,a0
    800006b0:	0005006b          	.word	0x0005006b
    800006b4:	00001517          	auipc	a0,0x1
    800006b8:	73c50513          	add	a0,a0,1852 # 80001df0 <printf_+0x10c>
    800006bc:	628010ef          	jal	80001ce4 <printf_>
    800006c0:	0000006f          	j	800006c0 <_halt+0x20>

Disassembly of section .text._trm_init:

00000000800006c4 <_trm_init>:
    800006c4:	ff010113          	add	sp,sp,-16
    800006c8:	00113423          	sd	ra,8(sp)
    800006cc:	f14027f3          	csrr	a5,mhartid
    800006d0:	0007879b          	sext.w	a5,a5
    800006d4:	00078a63          	beqz	a5,800006e8 <_trm_init+0x24>
    800006d8:	00001517          	auipc	a0,0x1
    800006dc:	72d50513          	add	a0,a0,1837 # 80001e05 <__am_mainargs>
    800006e0:	dd5ff0ef          	jal	800004b4 <main>
    800006e4:	fbdff0ef          	jal	800006a0 <_halt>
    800006e8:	008000ef          	jal	800006f0 <__am_init_uartlite>
    800006ec:	fedff06f          	j	800006d8 <_trm_init+0x14>

Disassembly of section .text.__am_init_uartlite:

00000000800006f0 <__am_init_uartlite>:
    800006f0:	406007b7          	lui	a5,0x40600
    800006f4:	00300713          	li	a4,3
    800006f8:	00e78623          	sb	a4,12(a5) # 4060000c <_start-0x3f9ffff4>
    800006fc:	00008067          	ret

Disassembly of section .text.__am_uartlite_putchar:

0000000080000700 <__am_uartlite_putchar>:
    80000700:	00a00793          	li	a5,10
    80000704:	00f50e63          	beq	a0,a5,80000720 <__am_uartlite_putchar+0x20>
    80000708:	40600737          	lui	a4,0x40600
    8000070c:	00874783          	lbu	a5,8(a4) # 40600008 <_start-0x3f9ffff8>
    80000710:	0087f793          	and	a5,a5,8
    80000714:	fe079ce3          	bnez	a5,8000070c <__am_uartlite_putchar+0xc>
    80000718:	00a70223          	sb	a0,4(a4)
    8000071c:	00008067          	ret
    80000720:	40600737          	lui	a4,0x40600
    80000724:	00874783          	lbu	a5,8(a4) # 40600008 <_start-0x3f9ffff8>
    80000728:	0087f793          	and	a5,a5,8
    8000072c:	fe079ce3          	bnez	a5,80000724 <__am_uartlite_putchar+0x24>
    80000730:	00d00793          	li	a5,13
    80000734:	00f70223          	sb	a5,4(a4)
    80000738:	fd1ff06f          	j	80000708 <__am_uartlite_putchar+0x8>

Disassembly of section .text._out_null:

000000008000073c <_out_null>:
    8000073c:	00008067          	ret

Disassembly of section .text._out_rev:

0000000080000740 <_out_rev>:
    80000740:	fa010113          	add	sp,sp,-96
    80000744:	04913423          	sd	s1,72(sp)
    80000748:	05213023          	sd	s2,64(sp)
    8000074c:	03313c23          	sd	s3,56(sp)
    80000750:	03413823          	sd	s4,48(sp)
    80000754:	03513423          	sd	s5,40(sp)
    80000758:	03613023          	sd	s6,32(sp)
    8000075c:	00060a93          	mv	s5,a2
    80000760:	01813823          	sd	s8,16(sp)
    80000764:	01913423          	sd	s9,8(sp)
    80000768:	01a13023          	sd	s10,0(sp)
    8000076c:	04113c23          	sd	ra,88(sp)
    80000770:	04813823          	sd	s0,80(sp)
    80000774:	01713c23          	sd	s7,24(sp)
    80000778:	0038f613          	and	a2,a7,3
    8000077c:	00088c93          	mv	s9,a7
    80000780:	00050913          	mv	s2,a0
    80000784:	00058993          	mv	s3,a1
    80000788:	00068a13          	mv	s4,a3
    8000078c:	00070b13          	mv	s6,a4
    80000790:	00078d13          	mv	s10,a5
    80000794:	00080c13          	mv	s8,a6
    80000798:	000a8493          	mv	s1,s5
    8000079c:	02061c63          	bnez	a2,800007d4 <_out_rev+0x94>
    800007a0:	02081793          	sll	a5,a6,0x20
    800007a4:	0207d793          	srl	a5,a5,0x20
    800007a8:	41a784b3          	sub	s1,a5,s10
    800007ac:	015484b3          	add	s1,s1,s5
    800007b0:	000a8413          	mv	s0,s5
    800007b4:	0cfd7063          	bgeu	s10,a5,80000874 <_out_rev+0x134>
    800007b8:	00040613          	mv	a2,s0
    800007bc:	000a0693          	mv	a3,s4
    800007c0:	00140413          	add	s0,s0,1
    800007c4:	00098593          	mv	a1,s3
    800007c8:	02000513          	li	a0,32
    800007cc:	000900e7          	jalr	s2
    800007d0:	fe9414e3          	bne	s0,s1,800007b8 <_out_rev+0x78>
    800007d4:	01ab0433          	add	s0,s6,s10
    800007d8:	00940bb3          	add	s7,s0,s1
    800007dc:	020d0263          	beqz	s10,80000800 <_out_rev+0xc0>
    800007e0:	fff44503          	lbu	a0,-1(s0)
    800007e4:	408b8633          	sub	a2,s7,s0
    800007e8:	000a0693          	mv	a3,s4
    800007ec:	fff40413          	add	s0,s0,-1
    800007f0:	00098593          	mv	a1,s3
    800007f4:	000900e7          	jalr	s2
    800007f8:	fe8b14e3          	bne	s6,s0,800007e0 <_out_rev+0xa0>
    800007fc:	01a484b3          	add	s1,s1,s10
    80000800:	002cfc93          	and	s9,s9,2
    80000804:	020c8a63          	beqz	s9,80000838 <_out_rev+0xf8>
    80000808:	020c1c13          	sll	s8,s8,0x20
    8000080c:	41548ab3          	sub	s5,s1,s5
    80000810:	020c5c13          	srl	s8,s8,0x20
    80000814:	038af263          	bgeu	s5,s8,80000838 <_out_rev+0xf8>
    80000818:	00048613          	mv	a2,s1
    8000081c:	001a8a93          	add	s5,s5,1
    80000820:	000a0693          	mv	a3,s4
    80000824:	00098593          	mv	a1,s3
    80000828:	02000513          	li	a0,32
    8000082c:	00148493          	add	s1,s1,1
    80000830:	000900e7          	jalr	s2
    80000834:	ff8ae2e3          	bltu	s5,s8,80000818 <_out_rev+0xd8>
    80000838:	05813083          	ld	ra,88(sp)
    8000083c:	05013403          	ld	s0,80(sp)
    80000840:	04013903          	ld	s2,64(sp)
    80000844:	03813983          	ld	s3,56(sp)
    80000848:	03013a03          	ld	s4,48(sp)
    8000084c:	02813a83          	ld	s5,40(sp)
    80000850:	02013b03          	ld	s6,32(sp)
    80000854:	01813b83          	ld	s7,24(sp)
    80000858:	01013c03          	ld	s8,16(sp)
    8000085c:	00813c83          	ld	s9,8(sp)
    80000860:	00013d03          	ld	s10,0(sp)
    80000864:	00048513          	mv	a0,s1
    80000868:	04813483          	ld	s1,72(sp)
    8000086c:	06010113          	add	sp,sp,96
    80000870:	00008067          	ret
    80000874:	000a8493          	mv	s1,s5
    80000878:	f5dff06f          	j	800007d4 <_out_rev+0x94>

Disassembly of section .text._ntoa_long:

000000008000087c <_ntoa_long>:
    8000087c:	fb010113          	add	sp,sp,-80
    80000880:	04113423          	sd	ra,72(sp)
    80000884:	05812083          	lw	ra,88(sp)
    80000888:	02913c23          	sd	s1,56(sp)
    8000088c:	03313423          	sd	s3,40(sp)
    80000890:	04813023          	sd	s0,64(sp)
    80000894:	03213823          	sd	s2,48(sp)
    80000898:	00080e93          	mv	t4,a6
    8000089c:	05012983          	lw	s3,80(sp)
    800008a0:	00070e13          	mv	t3,a4
    800008a4:	00078493          	mv	s1,a5
    800008a8:	4000f813          	and	a6,ra,1024
    800008ac:	0e071063          	bnez	a4,8000098c <_ntoa_long+0x110>
    800008b0:	00008913          	mv	s2,ra
    800008b4:	fef0f093          	and	ra,ra,-17
    800008b8:	0e081663          	bnez	a6,800009a4 <_ntoa_long+0x128>
    800008bc:	0200f793          	and	a5,ra,32
    800008c0:	00000913          	li	s2,0
    800008c4:	06100293          	li	t0,97
    800008c8:	0c079a63          	bnez	a5,8000099c <_ntoa_long+0x120>
    800008cc:	00000793          	li	a5,0
    800008d0:	00010713          	mv	a4,sp
    800008d4:	00900393          	li	t2,9
    800008d8:	ff62829b          	addw	t0,t0,-10
    800008dc:	02000413          	li	s0,32
    800008e0:	00c0006f          	j	800008ec <_ntoa_long+0x70>
    800008e4:	02878c63          	beq	a5,s0,8000091c <_ntoa_long+0xa0>
    800008e8:	00030e13          	mv	t3,t1
    800008ec:	03de7f33          	remu	t5,t3,t4
    800008f0:	0fff7313          	zext.b	t1,t5
    800008f4:	03030f9b          	addw	t6,t1,48
    800008f8:	0062833b          	addw	t1,t0,t1
    800008fc:	0ff37313          	zext.b	t1,t1
    80000900:	01e3e463          	bltu	t2,t5,80000908 <_ntoa_long+0x8c>
    80000904:	0ffff313          	zext.b	t1,t6
    80000908:	00178793          	add	a5,a5,1
    8000090c:	00f70f33          	add	t5,a4,a5
    80000910:	fe6f0fa3          	sb	t1,-1(t5)
    80000914:	03de5333          	divu	t1,t3,t4
    80000918:	fdde76e3          	bgeu	t3,t4,800008e4 <_ntoa_long+0x68>
    8000091c:	0020f313          	and	t1,ra,2
    80000920:	08030a63          	beqz	t1,800009b4 <_ntoa_long+0x138>
    80000924:	14090a63          	beqz	s2,80000a78 <_ntoa_long+0x1fc>
    80000928:	12081063          	bnez	a6,80000a48 <_ntoa_long+0x1cc>
    8000092c:	10079263          	bnez	a5,80000a30 <_ntoa_long+0x1b4>
    80000930:	01000793          	li	a5,16
    80000934:	24fe8463          	beq	t4,a5,80000b7c <_ntoa_long+0x300>
    80000938:	00200793          	li	a5,2
    8000093c:	28fe8263          	beq	t4,a5,80000bc0 <_ntoa_long+0x344>
    80000940:	03000793          	li	a5,48
    80000944:	00f10023          	sb	a5,0(sp)
    80000948:	00100793          	li	a5,1
    8000094c:	16048663          	beqz	s1,80000ab8 <_ntoa_long+0x23c>
    80000950:	02010813          	add	a6,sp,32
    80000954:	00f80833          	add	a6,a6,a5
    80000958:	02d00893          	li	a7,45
    8000095c:	ff180023          	sb	a7,-32(a6)
    80000960:	00178793          	add	a5,a5,1
    80000964:	00008893          	mv	a7,ra
    80000968:	00098813          	mv	a6,s3
    8000096c:	dd5ff0ef          	jal	80000740 <_out_rev>
    80000970:	04813083          	ld	ra,72(sp)
    80000974:	04013403          	ld	s0,64(sp)
    80000978:	03813483          	ld	s1,56(sp)
    8000097c:	03013903          	ld	s2,48(sp)
    80000980:	02813983          	ld	s3,40(sp)
    80000984:	05010113          	add	sp,sp,80
    80000988:	00008067          	ret
    8000098c:	0200f793          	and	a5,ra,32
    80000990:	0100f913          	and	s2,ra,16
    80000994:	06100293          	li	t0,97
    80000998:	f2078ae3          	beqz	a5,800008cc <_ntoa_long+0x50>
    8000099c:	04100293          	li	t0,65
    800009a0:	f2dff06f          	j	800008cc <_ntoa_long+0x50>
    800009a4:	00297913          	and	s2,s2,2
    800009a8:	00000793          	li	a5,0
    800009ac:	00010713          	mv	a4,sp
    800009b0:	f8091ee3          	bnez	s2,8000094c <_ntoa_long+0xd0>
    800009b4:	02089e13          	sll	t3,a7,0x20
    800009b8:	00008313          	mv	t1,ra
    800009bc:	0010f293          	and	t0,ra,1
    800009c0:	020e5e13          	srl	t3,t3,0x20
    800009c4:	0c099263          	bnez	s3,80000a88 <_ntoa_long+0x20c>
    800009c8:	03c7f663          	bgeu	a5,t3,800009f4 <_ntoa_long+0x178>
    800009cc:	02000313          	li	t1,32
    800009d0:	02678263          	beq	a5,t1,800009f4 <_ntoa_long+0x178>
    800009d4:	03000f13          	li	t5,48
    800009d8:	02000f93          	li	t6,32
    800009dc:	0080006f          	j	800009e4 <_ntoa_long+0x168>
    800009e0:	01f78a63          	beq	a5,t6,800009f4 <_ntoa_long+0x178>
    800009e4:	00178793          	add	a5,a5,1
    800009e8:	00f70333          	add	t1,a4,a5
    800009ec:	ffe30fa3          	sb	t5,-1(t1)
    800009f0:	ffc7e8e3          	bltu	a5,t3,800009e0 <_ntoa_long+0x164>
    800009f4:	f20288e3          	beqz	t0,80000924 <_ntoa_long+0xa8>
    800009f8:	02099f13          	sll	t5,s3,0x20
    800009fc:	020f5f13          	srl	t5,t5,0x20
    80000a00:	f3e7f2e3          	bgeu	a5,t5,80000924 <_ntoa_long+0xa8>
    80000a04:	02000313          	li	t1,32
    80000a08:	0a678063          	beq	a5,t1,80000aa8 <_ntoa_long+0x22c>
    80000a0c:	03000f93          	li	t6,48
    80000a10:	02000293          	li	t0,32
    80000a14:	0080006f          	j	80000a1c <_ntoa_long+0x1a0>
    80000a18:	08578863          	beq	a5,t0,80000aa8 <_ntoa_long+0x22c>
    80000a1c:	00178793          	add	a5,a5,1
    80000a20:	00f70333          	add	t1,a4,a5
    80000a24:	fff30fa3          	sb	t6,-1(t1)
    80000a28:	ffe798e3          	bne	a5,t5,80000a18 <_ntoa_long+0x19c>
    80000a2c:	ef9ff06f          	j	80000924 <_ntoa_long+0xa8>
    80000a30:	02089e13          	sll	t3,a7,0x20
    80000a34:	020e5e13          	srl	t3,t3,0x20
    80000a38:	0efe0a63          	beq	t3,a5,80000b2c <_ntoa_long+0x2b0>
    80000a3c:	02099813          	sll	a6,s3,0x20
    80000a40:	02085813          	srl	a6,a6,0x20
    80000a44:	0ef80463          	beq	a6,a5,80000b2c <_ntoa_long+0x2b0>
    80000a48:	01000813          	li	a6,16
    80000a4c:	110e8463          	beq	t4,a6,80000b54 <_ntoa_long+0x2d8>
    80000a50:	00200813          	li	a6,2
    80000a54:	0b0e8e63          	beq	t4,a6,80000b10 <_ntoa_long+0x294>
    80000a58:	02000813          	li	a6,32
    80000a5c:	f10784e3          	beq	a5,a6,80000964 <_ntoa_long+0xe8>
    80000a60:	00078813          	mv	a6,a5
    80000a64:	02010793          	add	a5,sp,32
    80000a68:	010788b3          	add	a7,a5,a6
    80000a6c:	00180793          	add	a5,a6,1
    80000a70:	03000813          	li	a6,48
    80000a74:	ff088023          	sb	a6,-32(a7)
    80000a78:	02000813          	li	a6,32
    80000a7c:	ed0798e3          	bne	a5,a6,8000094c <_ntoa_long+0xd0>
    80000a80:	02000793          	li	a5,32
    80000a84:	ee1ff06f          	j	80000964 <_ntoa_long+0xe8>
    80000a88:	04028c63          	beqz	t0,80000ae0 <_ntoa_long+0x264>
    80000a8c:	08049c63          	bnez	s1,80000b24 <_ntoa_long+0x2a8>
    80000a90:	00c37313          	and	t1,t1,12
    80000a94:	08031863          	bnez	t1,80000b24 <_ntoa_long+0x2a8>
    80000a98:	f7c7f0e3          	bgeu	a5,t3,800009f8 <_ntoa_long+0x17c>
    80000a9c:	02000313          	li	t1,32
    80000aa0:	f2679ae3          	bne	a5,t1,800009d4 <_ntoa_long+0x158>
    80000aa4:	e937f0e3          	bgeu	a5,s3,80000924 <_ntoa_long+0xa8>
    80000aa8:	fc090ce3          	beqz	s2,80000a80 <_ntoa_long+0x204>
    80000aac:	02000793          	li	a5,32
    80000ab0:	f80804e3          	beqz	a6,80000a38 <_ntoa_long+0x1bc>
    80000ab4:	f95ff06f          	j	80000a48 <_ntoa_long+0x1cc>
    80000ab8:	0040f813          	and	a6,ra,4
    80000abc:	02081e63          	bnez	a6,80000af8 <_ntoa_long+0x27c>
    80000ac0:	0080f813          	and	a6,ra,8
    80000ac4:	ea0800e3          	beqz	a6,80000964 <_ntoa_long+0xe8>
    80000ac8:	02010813          	add	a6,sp,32
    80000acc:	00f80833          	add	a6,a6,a5
    80000ad0:	02000893          	li	a7,32
    80000ad4:	ff180023          	sb	a7,-32(a6)
    80000ad8:	00178793          	add	a5,a5,1
    80000adc:	e89ff06f          	j	80000964 <_ntoa_long+0xe8>
    80000ae0:	e5c7f2e3          	bgeu	a5,t3,80000924 <_ntoa_long+0xa8>
    80000ae4:	02000313          	li	t1,32
    80000ae8:	ee6796e3          	bne	a5,t1,800009d4 <_ntoa_long+0x158>
    80000aec:	e2091ee3          	bnez	s2,80000928 <_ntoa_long+0xac>
    80000af0:	02000793          	li	a5,32
    80000af4:	e71ff06f          	j	80000964 <_ntoa_long+0xe8>
    80000af8:	02010813          	add	a6,sp,32
    80000afc:	00f80833          	add	a6,a6,a5
    80000b00:	02b00893          	li	a7,43
    80000b04:	ff180023          	sb	a7,-32(a6)
    80000b08:	00178793          	add	a5,a5,1
    80000b0c:	e59ff06f          	j	80000964 <_ntoa_long+0xe8>
    80000b10:	02000813          	li	a6,32
    80000b14:	e50788e3          	beq	a5,a6,80000964 <_ntoa_long+0xe8>
    80000b18:	00f70833          	add	a6,a4,a5
    80000b1c:	00178793          	add	a5,a5,1
    80000b20:	0280006f          	j	80000b48 <_ntoa_long+0x2cc>
    80000b24:	fff9899b          	addw	s3,s3,-1
    80000b28:	f71ff06f          	j	80000a98 <_ntoa_long+0x21c>
    80000b2c:	fff78813          	add	a6,a5,-1
    80000b30:	e00800e3          	beqz	a6,80000930 <_ntoa_long+0xb4>
    80000b34:	01000893          	li	a7,16
    80000b38:	091e8c63          	beq	t4,a7,80000bd0 <_ntoa_long+0x354>
    80000b3c:	00200893          	li	a7,2
    80000b40:	f31e92e3          	bne	t4,a7,80000a64 <_ntoa_long+0x1e8>
    80000b44:	01070833          	add	a6,a4,a6
    80000b48:	06200893          	li	a7,98
    80000b4c:	01180023          	sb	a7,0(a6)
    80000b50:	f09ff06f          	j	80000a58 <_ntoa_long+0x1dc>
    80000b54:	0200f813          	and	a6,ra,32
    80000b58:	02080e63          	beqz	a6,80000b94 <_ntoa_long+0x318>
    80000b5c:	02000813          	li	a6,32
    80000b60:	e10782e3          	beq	a5,a6,80000964 <_ntoa_long+0xe8>
    80000b64:	02010813          	add	a6,sp,32
    80000b68:	00f80833          	add	a6,a6,a5
    80000b6c:	05800893          	li	a7,88
    80000b70:	00178793          	add	a5,a5,1
    80000b74:	ff180023          	sb	a7,-32(a6)
    80000b78:	ee1ff06f          	j	80000a58 <_ntoa_long+0x1dc>
    80000b7c:	0200f793          	and	a5,ra,32
    80000b80:	02079863          	bnez	a5,80000bb0 <_ntoa_long+0x334>
    80000b84:	07800793          	li	a5,120
    80000b88:	00f10023          	sb	a5,0(sp)
    80000b8c:	00100813          	li	a6,1
    80000b90:	ed5ff06f          	j	80000a64 <_ntoa_long+0x1e8>
    80000b94:	02000813          	li	a6,32
    80000b98:	dd0786e3          	beq	a5,a6,80000964 <_ntoa_long+0xe8>
    80000b9c:	00f708b3          	add	a7,a4,a5
    80000ba0:	00178793          	add	a5,a5,1
    80000ba4:	07800813          	li	a6,120
    80000ba8:	01088023          	sb	a6,0(a7)
    80000bac:	eadff06f          	j	80000a58 <_ntoa_long+0x1dc>
    80000bb0:	05800793          	li	a5,88
    80000bb4:	00f10023          	sb	a5,0(sp)
    80000bb8:	00100813          	li	a6,1
    80000bbc:	ea9ff06f          	j	80000a64 <_ntoa_long+0x1e8>
    80000bc0:	06200793          	li	a5,98
    80000bc4:	00f10023          	sb	a5,0(sp)
    80000bc8:	00100813          	li	a6,1
    80000bcc:	e99ff06f          	j	80000a64 <_ntoa_long+0x1e8>
    80000bd0:	0200f893          	and	a7,ra,32
    80000bd4:	ffe78793          	add	a5,a5,-2
    80000bd8:	f80896e3          	bnez	a7,80000b64 <_ntoa_long+0x2e8>
    80000bdc:	00f708b3          	add	a7,a4,a5
    80000be0:	00080793          	mv	a5,a6
    80000be4:	fc1ff06f          	j	80000ba4 <_ntoa_long+0x328>

Disassembly of section .text._out_char:

0000000080000be8 <_out_char>:
    80000be8:	00051463          	bnez	a0,80000bf0 <_out_char+0x8>
    80000bec:	00008067          	ret
    80000bf0:	aadff06f          	j	8000069c <_putc>

Disassembly of section .text._ftoa:

0000000080000bf4 <_ftoa>:
    80000bf4:	a2a52353          	feq.d	t1,fa0,fa0
    80000bf8:	00080893          	mv	a7,a6
    80000bfc:	1e030c63          	beqz	t1,80000df4 <_ftoa+0x200>
    80000c00:	00001817          	auipc	a6,0x1
    80000c04:	45883787          	fld	fa5,1112(a6) # 80002058 <pow10.0+0x50>
    80000c08:	a2f51853          	flt.d	a6,fa0,fa5
    80000c0c:	2e081463          	bnez	a6,80000ef4 <_ftoa+0x300>
    80000c10:	fc010113          	add	sp,sp,-64
    80000c14:	02813823          	sd	s0,48(sp)
    80000c18:	00068413          	mv	s0,a3
    80000c1c:	00001697          	auipc	a3,0x1
    80000c20:	4446b787          	fld	fa5,1092(a3) # 80002060 <pow10.0+0x58>
    80000c24:	a2a796d3          	flt.d	a3,fa5,fa0
    80000c28:	02113c23          	sd	ra,56(sp)
    80000c2c:	02913423          	sd	s1,40(sp)
    80000c30:	00050f93          	mv	t6,a0
    80000c34:	00058293          	mv	t0,a1
    80000c38:	00060393          	mv	t2,a2
    80000c3c:	16069c63          	bnez	a3,80000db4 <_ftoa+0x1c0>
    80000c40:	00001697          	auipc	a3,0x1
    80000c44:	4286b787          	fld	fa5,1064(a3) # 80002068 <pow10.0+0x60>
    80000c48:	a2a796d3          	flt.d	a3,fa5,fa0
    80000c4c:	28069063          	bnez	a3,80000ecc <_ftoa+0x2d8>
    80000c50:	00001697          	auipc	a3,0x1
    80000c54:	4206b787          	fld	fa5,1056(a3) # 80002070 <pow10.0+0x68>
    80000c58:	a2f516d3          	flt.d	a3,fa0,fa5
    80000c5c:	26069863          	bnez	a3,80000ecc <_ftoa+0x2d8>
    80000c60:	f20007d3          	fmv.d.x	fa5,zero
    80000c64:	00000513          	li	a0,0
    80000c68:	a2f516d3          	flt.d	a3,fa0,fa5
    80000c6c:	24069a63          	bnez	a3,80000ec0 <_ftoa+0x2cc>
    80000c70:	4008f693          	and	a3,a7,1024
    80000c74:	00069463          	bnez	a3,80000c7c <_ftoa+0x88>
    80000c78:	00600713          	li	a4,6
    80000c7c:	00000313          	li	t1,0
    80000c80:	00900693          	li	a3,9
    80000c84:	03000593          	li	a1,48
    80000c88:	02000613          	li	a2,32
    80000c8c:	00e6fc63          	bgeu	a3,a4,80000ca4 <_ftoa+0xb0>
    80000c90:	00130313          	add	t1,t1,1
    80000c94:	00610e33          	add	t3,sp,t1
    80000c98:	febe0fa3          	sb	a1,-1(t3)
    80000c9c:	fff7071b          	addw	a4,a4,-1
    80000ca0:	fec316e3          	bne	t1,a2,80000c8c <_ftoa+0x98>
    80000ca4:	c2051653          	fcvt.w.d	a2,fa0,rtz
    80000ca8:	02071693          	sll	a3,a4,0x20
    80000cac:	01d6d593          	srl	a1,a3,0x1d
    80000cb0:	d20607d3          	fcvt.d.w	fa5,a2
    80000cb4:	00001697          	auipc	a3,0x1
    80000cb8:	35468693          	add	a3,a3,852 # 80002008 <pow10.0>
    80000cbc:	00b686b3          	add	a3,a3,a1
    80000cc0:	0af577d3          	fsub.d	fa5,fa0,fa5
    80000cc4:	0006b687          	fld	fa3,0(a3)
    80000cc8:	00001697          	auipc	a3,0x1
    80000ccc:	3b06b707          	fld	fa4,944(a3) # 80002078 <pow10.0+0x70>
    80000cd0:	00060e1b          	sext.w	t3,a2
    80000cd4:	12d7f7d3          	fmul.d	fa5,fa5,fa3
    80000cd8:	c2379f53          	fcvt.lu.d	t5,fa5,rtz
    80000cdc:	d23f7653          	fcvt.d.lu	fa2,t5
    80000ce0:	0ac7f7d3          	fsub.d	fa5,fa5,fa2
    80000ce4:	a2f716d3          	flt.d	a3,fa4,fa5
    80000ce8:	12068063          	beqz	a3,80000e08 <_ftoa+0x214>
    80000cec:	001f0f13          	add	t5,t5,1
    80000cf0:	d23f77d3          	fcvt.d.lu	fa5,t5
    80000cf4:	a2f686d3          	fle.d	a3,fa3,fa5
    80000cf8:	00068663          	beqz	a3,80000d04 <_ftoa+0x110>
    80000cfc:	00160e1b          	addw	t3,a2,1
    80000d00:	00000f13          	li	t5,0
    80000d04:	10071c63          	bnez	a4,80000e1c <_ftoa+0x228>
    80000d08:	d20e07d3          	fcvt.d.w	fa5,t3
    80000d0c:	0af57553          	fsub.d	fa0,fa0,fa5
    80000d10:	a2e51753          	flt.d	a4,fa0,fa4
    80000d14:	00070663          	beqz	a4,80000d20 <_ftoa+0x12c>
    80000d18:	a2a71753          	flt.d	a4,fa4,fa0
    80000d1c:	00070863          	beqz	a4,80000d2c <_ftoa+0x138>
    80000d20:	001e7713          	and	a4,t3,1
    80000d24:	00070463          	beqz	a4,80000d2c <_ftoa+0x138>
    80000d28:	001e0e1b          	addw	t3,t3,1
    80000d2c:	02000613          	li	a2,32
    80000d30:	00a00813          	li	a6,10
    80000d34:	12c30663          	beq	t1,a2,80000e60 <_ftoa+0x26c>
    80000d38:	030e673b          	remw	a4,t3,a6
    80000d3c:	00130313          	add	t1,t1,1
    80000d40:	006106b3          	add	a3,sp,t1
    80000d44:	030e4e3b          	divw	t3,t3,a6
    80000d48:	0307071b          	addw	a4,a4,48
    80000d4c:	fee68fa3          	sb	a4,-1(a3)
    80000d50:	fe0e12e3          	bnez	t3,80000d34 <_ftoa+0x140>
    80000d54:	0038f713          	and	a4,a7,3
    80000d58:	00100693          	li	a3,1
    80000d5c:	10d70863          	beq	a4,a3,80000e6c <_ftoa+0x278>
    80000d60:	01f00713          	li	a4,31
    80000d64:	00676e63          	bltu	a4,t1,80000d80 <_ftoa+0x18c>
    80000d68:	1a050063          	beqz	a0,80000f08 <_ftoa+0x314>
    80000d6c:	02010713          	add	a4,sp,32
    80000d70:	00670733          	add	a4,a4,t1
    80000d74:	02d00693          	li	a3,45
    80000d78:	fed70023          	sb	a3,-32(a4)
    80000d7c:	00130313          	add	t1,t1,1
    80000d80:	00078813          	mv	a6,a5
    80000d84:	00010713          	mv	a4,sp
    80000d88:	00040693          	mv	a3,s0
    80000d8c:	00030793          	mv	a5,t1
    80000d90:	00038613          	mv	a2,t2
    80000d94:	00028593          	mv	a1,t0
    80000d98:	000f8513          	mv	a0,t6
    80000d9c:	9a5ff0ef          	jal	80000740 <_out_rev>
    80000da0:	03813083          	ld	ra,56(sp)
    80000da4:	03013403          	ld	s0,48(sp)
    80000da8:	02813483          	ld	s1,40(sp)
    80000dac:	04010113          	add	sp,sp,64
    80000db0:	00008067          	ret
    80000db4:	0048f713          	and	a4,a7,4
    80000db8:	0e071c63          	bnez	a4,80000eb0 <_ftoa+0x2bc>
    80000dbc:	00001717          	auipc	a4,0x1
    80000dc0:	04c70713          	add	a4,a4,76 # 80001e08 <__am_mainargs+0x3>
    80000dc4:	00300693          	li	a3,3
    80000dc8:	00078813          	mv	a6,a5
    80000dcc:	00068793          	mv	a5,a3
    80000dd0:	00040693          	mv	a3,s0
    80000dd4:	03013403          	ld	s0,48(sp)
    80000dd8:	03813083          	ld	ra,56(sp)
    80000ddc:	02813483          	ld	s1,40(sp)
    80000de0:	00038613          	mv	a2,t2
    80000de4:	00028593          	mv	a1,t0
    80000de8:	000f8513          	mv	a0,t6
    80000dec:	04010113          	add	sp,sp,64
    80000df0:	951ff06f          	j	80000740 <_out_rev>
    80000df4:	00078813          	mv	a6,a5
    80000df8:	00001717          	auipc	a4,0x1
    80000dfc:	02070713          	add	a4,a4,32 # 80001e18 <__am_mainargs+0x13>
    80000e00:	00300793          	li	a5,3
    80000e04:	93dff06f          	j	80000740 <_out_rev>
    80000e08:	a2e796d3          	flt.d	a3,fa5,fa4
    80000e0c:	ee069ce3          	bnez	a3,80000d04 <_ftoa+0x110>
    80000e10:	160f1a63          	bnez	t5,80000f84 <_ftoa+0x390>
    80000e14:	001f0f13          	add	t5,t5,1
    80000e18:	ee0708e3          	beqz	a4,80000d08 <_ftoa+0x114>
    80000e1c:	fe07009b          	addw	ra,a4,-32
    80000e20:	006080bb          	addw	ra,ra,t1
    80000e24:	00a00613          	li	a2,10
    80000e28:	00900493          	li	s1,9
    80000e2c:	0280006f          	j	80000e54 <_ftoa+0x260>
    80000e30:	02cf76b3          	remu	a3,t5,a2
    80000e34:	fff7081b          	addw	a6,a4,-1
    80000e38:	0306869b          	addw	a3,a3,48
    80000e3c:	fed58fa3          	sb	a3,-1(a1)
    80000e40:	02cf56b3          	divu	a3,t5,a2
    80000e44:	0fe4f663          	bgeu	s1,t5,80000f30 <_ftoa+0x33c>
    80000e48:	00080713          	mv	a4,a6
    80000e4c:	000e8313          	mv	t1,t4
    80000e50:	00068f13          	mv	t5,a3
    80000e54:	00130e93          	add	t4,t1,1
    80000e58:	01d105b3          	add	a1,sp,t4
    80000e5c:	fc171ae3          	bne	a4,ra,80000e30 <_ftoa+0x23c>
    80000e60:	0038f713          	and	a4,a7,3
    80000e64:	00100693          	li	a3,1
    80000e68:	f0d71ce3          	bne	a4,a3,80000d80 <_ftoa+0x18c>
    80000e6c:	ee078ae3          	beqz	a5,80000d60 <_ftoa+0x16c>
    80000e70:	12051e63          	bnez	a0,80000fac <_ftoa+0x3b8>
    80000e74:	00c8f713          	and	a4,a7,12
    80000e78:	12071a63          	bnez	a4,80000fac <_ftoa+0x3b8>
    80000e7c:	02079693          	sll	a3,a5,0x20
    80000e80:	0206d693          	srl	a3,a3,0x20
    80000e84:	ecd37ee3          	bgeu	t1,a3,80000d60 <_ftoa+0x16c>
    80000e88:	01f00713          	li	a4,31
    80000e8c:	03000593          	li	a1,48
    80000e90:	02000613          	li	a2,32
    80000e94:	ee6766e3          	bltu	a4,t1,80000d80 <_ftoa+0x18c>
    80000e98:	00130313          	add	t1,t1,1
    80000e9c:	00610733          	add	a4,sp,t1
    80000ea0:	feb70fa3          	sb	a1,-1(a4)
    80000ea4:	ead30ee3          	beq	t1,a3,80000d60 <_ftoa+0x16c>
    80000ea8:	fec318e3          	bne	t1,a2,80000e98 <_ftoa+0x2a4>
    80000eac:	ed5ff06f          	j	80000d80 <_ftoa+0x18c>
    80000eb0:	00001717          	auipc	a4,0x1
    80000eb4:	f6070713          	add	a4,a4,-160 # 80001e10 <__am_mainargs+0xb>
    80000eb8:	00400693          	li	a3,4
    80000ebc:	f0dff06f          	j	80000dc8 <_ftoa+0x1d4>
    80000ec0:	0aa7f553          	fsub.d	fa0,fa5,fa0
    80000ec4:	00100513          	li	a0,1
    80000ec8:	da9ff06f          	j	80000c70 <_ftoa+0x7c>
    80000ecc:	00040693          	mv	a3,s0
    80000ed0:	03013403          	ld	s0,48(sp)
    80000ed4:	03813083          	ld	ra,56(sp)
    80000ed8:	02813483          	ld	s1,40(sp)
    80000edc:	00088813          	mv	a6,a7
    80000ee0:	00038613          	mv	a2,t2
    80000ee4:	00028593          	mv	a1,t0
    80000ee8:	000f8513          	mv	a0,t6
    80000eec:	04010113          	add	sp,sp,64
    80000ef0:	0d40006f          	j	80000fc4 <_etoa>
    80000ef4:	00078813          	mv	a6,a5
    80000ef8:	00001717          	auipc	a4,0x1
    80000efc:	f2870713          	add	a4,a4,-216 # 80001e20 <__am_mainargs+0x1b>
    80000f00:	00400793          	li	a5,4
    80000f04:	83dff06f          	j	80000740 <_out_rev>
    80000f08:	0048f713          	and	a4,a7,4
    80000f0c:	08071463          	bnez	a4,80000f94 <_ftoa+0x3a0>
    80000f10:	0088f713          	and	a4,a7,8
    80000f14:	e60706e3          	beqz	a4,80000d80 <_ftoa+0x18c>
    80000f18:	02010713          	add	a4,sp,32
    80000f1c:	00670733          	add	a4,a4,t1
    80000f20:	02000693          	li	a3,32
    80000f24:	fed70023          	sb	a3,-32(a4)
    80000f28:	00130313          	add	t1,t1,1
    80000f2c:	e55ff06f          	j	80000d80 <_ftoa+0x18c>
    80000f30:	02000693          	li	a3,32
    80000f34:	08de8463          	beq	t4,a3,80000fbc <_ftoa+0x3c8>
    80000f38:	ffe7071b          	addw	a4,a4,-2
    80000f3c:	06080c63          	beqz	a6,80000fb4 <_ftoa+0x3c0>
    80000f40:	02071713          	sll	a4,a4,0x20
    80000f44:	00230313          	add	t1,t1,2
    80000f48:	02075713          	srl	a4,a4,0x20
    80000f4c:	00e30733          	add	a4,t1,a4
    80000f50:	03000593          	li	a1,48
    80000f54:	02000613          	li	a2,32
    80000f58:	001e8e93          	add	t4,t4,1
    80000f5c:	01d106b3          	add	a3,sp,t4
    80000f60:	feb68fa3          	sb	a1,-1(a3)
    80000f64:	04ce8c63          	beq	t4,a2,80000fbc <_ftoa+0x3c8>
    80000f68:	feee98e3          	bne	t4,a4,80000f58 <_ftoa+0x364>
    80000f6c:	02010693          	add	a3,sp,32
    80000f70:	00e686b3          	add	a3,a3,a4
    80000f74:	00170313          	add	t1,a4,1
    80000f78:	02e00713          	li	a4,46
    80000f7c:	fee68023          	sb	a4,-32(a3)
    80000f80:	dadff06f          	j	80000d2c <_ftoa+0x138>
    80000f84:	001f7693          	and	a3,t5,1
    80000f88:	d6068ee3          	beqz	a3,80000d04 <_ftoa+0x110>
    80000f8c:	001f0f13          	add	t5,t5,1
    80000f90:	e89ff06f          	j	80000e18 <_ftoa+0x224>
    80000f94:	02010713          	add	a4,sp,32
    80000f98:	00670733          	add	a4,a4,t1
    80000f9c:	02b00693          	li	a3,43
    80000fa0:	fed70023          	sb	a3,-32(a4)
    80000fa4:	00130313          	add	t1,t1,1
    80000fa8:	dd9ff06f          	j	80000d80 <_ftoa+0x18c>
    80000fac:	fff7879b          	addw	a5,a5,-1
    80000fb0:	ecdff06f          	j	80000e7c <_ftoa+0x288>
    80000fb4:	000e8713          	mv	a4,t4
    80000fb8:	fb5ff06f          	j	80000f6c <_ftoa+0x378>
    80000fbc:	02000313          	li	t1,32
    80000fc0:	ea1ff06f          	j	80000e60 <_ftoa+0x26c>

Disassembly of section .text._etoa:

0000000080000fc4 <_etoa>:
    80000fc4:	a2a528d3          	feq.d	a7,fa0,fa0
    80000fc8:	f9010113          	add	sp,sp,-112
    80000fcc:	06813023          	sd	s0,96(sp)
    80000fd0:	04913c23          	sd	s1,88(sp)
    80000fd4:	05213823          	sd	s2,80(sp)
    80000fd8:	05413023          	sd	s4,64(sp)
    80000fdc:	03613823          	sd	s6,48(sp)
    80000fe0:	03713423          	sd	s7,40(sp)
    80000fe4:	06113423          	sd	ra,104(sp)
    80000fe8:	05313423          	sd	s3,72(sp)
    80000fec:	03513c23          	sd	s5,56(sp)
    80000ff0:	03813023          	sd	s8,32(sp)
    80000ff4:	01913c23          	sd	s9,24(sp)
    80000ff8:	00050b13          	mv	s6,a0
    80000ffc:	00058493          	mv	s1,a1
    80001000:	00060b93          	mv	s7,a2
    80001004:	00068913          	mv	s2,a3
    80001008:	00078a13          	mv	s4,a5
    8000100c:	00080413          	mv	s0,a6
    80001010:	2e088463          	beqz	a7,800012f8 <_etoa+0x334>
    80001014:	00001797          	auipc	a5,0x1
    80001018:	04c7b787          	fld	fa5,76(a5) # 80002060 <pow10.0+0x58>
    8000101c:	a2a797d3          	flt.d	a5,fa5,fa0
    80001020:	2c079c63          	bnez	a5,800012f8 <_etoa+0x334>
    80001024:	00001797          	auipc	a5,0x1
    80001028:	0347b787          	fld	fa5,52(a5) # 80002058 <pow10.0+0x50>
    8000102c:	a2f517d3          	flt.d	a5,fa0,fa5
    80001030:	2c079463          	bnez	a5,800012f8 <_etoa+0x334>
    80001034:	f20007d3          	fmv.d.x	fa5,zero
    80001038:	e20506d3          	fmv.x.d	a3,fa0
    8000103c:	a2f517d3          	flt.d	a5,fa0,fa5
    80001040:	00078663          	beqz	a5,8000104c <_etoa+0x88>
    80001044:	22a517d3          	fneg.d	fa5,fa0
    80001048:	e20786d3          	fmv.x.d	a3,fa5
    8000104c:	40047613          	and	a2,s0,1024
    80001050:	00061463          	bnez	a2,80001058 <_etoa+0x94>
    80001054:	00600713          	li	a4,6
    80001058:	0346d793          	srl	a5,a3,0x34
    8000105c:	7ff7f793          	and	a5,a5,2047
    80001060:	00001597          	auipc	a1,0x1
    80001064:	0205b707          	fld	fa4,32(a1) # 80002080 <pow10.0+0x78>
    80001068:	00001597          	auipc	a1,0x1
    8000106c:	0205b787          	fld	fa5,32(a1) # 80002088 <pow10.0+0x80>
    80001070:	c017879b          	addw	a5,a5,-1023
    80001074:	d2078653          	fcvt.d.w	fa2,a5
    80001078:	3ff00593          	li	a1,1023
    8000107c:	00c69793          	sll	a5,a3,0xc
    80001080:	03459593          	sll	a1,a1,0x34
    80001084:	00c7d793          	srl	a5,a5,0xc
    80001088:	00b7e7b3          	or	a5,a5,a1
    8000108c:	7ae67643          	fmadd.d	fa2,fa2,fa4,fa5
    80001090:	f20787d3          	fmv.d.x	fa5,a5
    80001094:	00001597          	auipc	a1,0x1
    80001098:	ffc5b687          	fld	fa3,-4(a1) # 80002090 <pow10.0+0x88>
    8000109c:	00001797          	auipc	a5,0x1
    800010a0:	0047b587          	fld	fa1,4(a5) # 800020a0 <pow10.0+0x98>
    800010a4:	0ad7f6d3          	fsub.d	fa3,fa5,fa3
    800010a8:	00001797          	auipc	a5,0x1
    800010ac:	ff07b787          	fld	fa5,-16(a5) # 80002098 <pow10.0+0x90>
    800010b0:	00001797          	auipc	a5,0x1
    800010b4:	fc87b287          	fld	ft5,-56(a5) # 80002078 <pow10.0+0x70>
    800010b8:	00001797          	auipc	a5,0x1
    800010bc:	ff07b207          	fld	ft4,-16(a5) # 800020a8 <pow10.0+0xa0>
    800010c0:	00001797          	auipc	a5,0x1
    800010c4:	ff07b187          	fld	ft3,-16(a5) # 800020b0 <pow10.0+0xa8>
    800010c8:	00001797          	auipc	a5,0x1
    800010cc:	ff07b707          	fld	fa4,-16(a5) # 800020b8 <pow10.0+0xb0>
    800010d0:	00001797          	auipc	a5,0x1
    800010d4:	ff07b007          	fld	ft0,-16(a5) # 800020c0 <pow10.0+0xb8>
    800010d8:	62f6f6c3          	fmadd.d	fa3,fa3,fa5,fa2
    800010dc:	00001797          	auipc	a5,0x1
    800010e0:	fec7b107          	fld	ft2,-20(a5) # 800020c8 <pow10.0+0xc0>
    800010e4:	00001797          	auipc	a5,0x1
    800010e8:	fec7b607          	fld	fa2,-20(a5) # 800020d0 <pow10.0+0xc8>
    800010ec:	00001797          	auipc	a5,0x1
    800010f0:	fec7b087          	fld	ft1,-20(a5) # 800020d8 <pow10.0+0xd0>
    800010f4:	c20695d3          	fcvt.w.d	a1,fa3,rtz
    800010f8:	d20587d3          	fcvt.d.w	fa5,a1
    800010fc:	00058c1b          	sext.w	s8,a1
    80001100:	2ab7f5c3          	fmadd.d	fa1,fa5,fa1,ft5
    80001104:	c20597d3          	fcvt.w.d	a5,fa1,rtz
    80001108:	d20786d3          	fcvt.d.w	fa3,a5
    8000110c:	3ff7879b          	addw	a5,a5,1023
    80001110:	03479793          	sll	a5,a5,0x34
    80001114:	1246f6d3          	fmul.d	fa3,fa3,ft4
    80001118:	6a37f7c7          	fmsub.d	fa5,fa5,ft3,fa3
    8000111c:	12f7f6d3          	fmul.d	fa3,fa5,fa5
    80001120:	0af67653          	fsub.d	fa2,fa2,fa5
    80001124:	02f7f7d3          	fadd.d	fa5,fa5,fa5
    80001128:	1ae6f753          	fdiv.d	fa4,fa3,fa4
    8000112c:	02077753          	fadd.d	fa4,fa4,ft0
    80001130:	1ae6f753          	fdiv.d	fa4,fa3,fa4
    80001134:	02277753          	fadd.d	fa4,fa4,ft2
    80001138:	1ae6f6d3          	fdiv.d	fa3,fa3,fa4
    8000113c:	f2078753          	fmv.d.x	fa4,a5
    80001140:	02c6f6d3          	fadd.d	fa3,fa3,fa2
    80001144:	1ad7f7d3          	fdiv.d	fa5,fa5,fa3
    80001148:	0217f7d3          	fadd.d	fa5,fa5,ft1
    8000114c:	12e7f7d3          	fmul.d	fa5,fa5,fa4
    80001150:	f2068753          	fmv.d.x	fa4,a3
    80001154:	a2f717d3          	flt.d	a5,fa4,fa5
    80001158:	00078663          	beqz	a5,80001164 <_etoa+0x1a0>
    8000115c:	1a07f7d3          	fdiv.d	fa5,fa5,ft0
    80001160:	fff58c1b          	addw	s8,a1,-1
    80001164:	063c0c9b          	addw	s9,s8,99
    80001168:	00b45793          	srl	a5,s0,0xb
    8000116c:	0c600593          	li	a1,198
    80001170:	0195bcb3          	sltu	s9,a1,s9
    80001174:	0017f793          	and	a5,a5,1
    80001178:	004c8c93          	add	s9,s9,4
    8000117c:	04078463          	beqz	a5,800011c4 <_etoa+0x200>
    80001180:	f20686d3          	fmv.d.x	fa3,a3
    80001184:	00001797          	auipc	a5,0x1
    80001188:	f5c7b707          	fld	fa4,-164(a5) # 800020e0 <pow10.0+0xd8>
    8000118c:	a2d707d3          	fle.d	a5,fa4,fa3
    80001190:	1c078263          	beqz	a5,80001354 <_etoa+0x390>
    80001194:	00001797          	auipc	a5,0x1
    80001198:	f547b707          	fld	fa4,-172(a5) # 800020e8 <pow10.0+0xe0>
    8000119c:	a2e697d3          	flt.d	a5,fa3,fa4
    800011a0:	1a078a63          	beqz	a5,80001354 <_etoa+0x390>
    800011a4:	0007079b          	sext.w	a5,a4
    800011a8:	00000713          	li	a4,0
    800011ac:	00fc5663          	bge	s8,a5,800011b8 <_etoa+0x1f4>
    800011b0:	4187873b          	subw	a4,a5,s8
    800011b4:	fff7071b          	addw	a4,a4,-1
    800011b8:	40046413          	or	s0,s0,1024
    800011bc:	00000c93          	li	s9,0
    800011c0:	00000c13          	li	s8,0
    800011c4:	00000793          	li	a5,0
    800011c8:	014cf463          	bgeu	s9,s4,800011d0 <_etoa+0x20c>
    800011cc:	419a07bb          	subw	a5,s4,s9
    800011d0:	00247a93          	and	s5,s0,2
    800011d4:	000a8863          	beqz	s5,800011e4 <_etoa+0x220>
    800011d8:	001cb613          	seqz	a2,s9
    800011dc:	40c00633          	neg	a2,a2
    800011e0:	00c7f7b3          	and	a5,a5,a2
    800011e4:	160c1063          	bnez	s8,80001344 <_etoa+0x380>
    800011e8:	f20007d3          	fmv.d.x	fa5,zero
    800011ec:	a2f51653          	flt.d	a2,fa0,fa5
    800011f0:	00060863          	beqz	a2,80001200 <_etoa+0x23c>
    800011f4:	f20687d3          	fmv.d.x	fa5,a3
    800011f8:	22f797d3          	fneg.d	fa5,fa5
    800011fc:	e20786d3          	fmv.x.d	a3,fa5
    80001200:	f2068553          	fmv.d.x	fa0,a3
    80001204:	fffff837          	lui	a6,0xfffff
    80001208:	7ff80813          	add	a6,a6,2047 # fffffffffffff7ff <_pmem_end+0xffffffff77fff7ff>
    8000120c:	01047833          	and	a6,s0,a6
    80001210:	00090693          	mv	a3,s2
    80001214:	000b8613          	mv	a2,s7
    80001218:	00048593          	mv	a1,s1
    8000121c:	000b0513          	mv	a0,s6
    80001220:	9d5ff0ef          	jal	80000bf4 <_ftoa>
    80001224:	00050993          	mv	s3,a0
    80001228:	080c8c63          	beqz	s9,800012c0 <_etoa+0x2fc>
    8000122c:	02047413          	and	s0,s0,32
    80001230:	04500513          	li	a0,69
    80001234:	00041463          	bnez	s0,8000123c <_etoa+0x278>
    80001238:	06500513          	li	a0,101
    8000123c:	00098613          	mv	a2,s3
    80001240:	00090693          	mv	a3,s2
    80001244:	00048593          	mv	a1,s1
    80001248:	000b00e7          	jalr	s6
    8000124c:	41fc571b          	sraw	a4,s8,0x1f
    80001250:	00ec46b3          	xor	a3,s8,a4
    80001254:	00500793          	li	a5,5
    80001258:	fffc8c9b          	addw	s9,s9,-1
    8000125c:	00198613          	add	a2,s3,1
    80001260:	00f13423          	sd	a5,8(sp)
    80001264:	40e6873b          	subw	a4,a3,a4
    80001268:	01913023          	sd	s9,0(sp)
    8000126c:	00000893          	li	a7,0
    80001270:	00a00813          	li	a6,10
    80001274:	01fc579b          	srlw	a5,s8,0x1f
    80001278:	00090693          	mv	a3,s2
    8000127c:	00048593          	mv	a1,s1
    80001280:	000b0513          	mv	a0,s6
    80001284:	df8ff0ef          	jal	8000087c <_ntoa_long>
    80001288:	00050993          	mv	s3,a0
    8000128c:	020a8a63          	beqz	s5,800012c0 <_etoa+0x2fc>
    80001290:	020a1a13          	sll	s4,s4,0x20
    80001294:	41750bb3          	sub	s7,a0,s7
    80001298:	020a5a13          	srl	s4,s4,0x20
    8000129c:	034bf263          	bgeu	s7,s4,800012c0 <_etoa+0x2fc>
    800012a0:	00098613          	mv	a2,s3
    800012a4:	001b8b93          	add	s7,s7,1
    800012a8:	00090693          	mv	a3,s2
    800012ac:	00048593          	mv	a1,s1
    800012b0:	02000513          	li	a0,32
    800012b4:	00198993          	add	s3,s3,1
    800012b8:	000b00e7          	jalr	s6
    800012bc:	ff4be2e3          	bltu	s7,s4,800012a0 <_etoa+0x2dc>
    800012c0:	06813083          	ld	ra,104(sp)
    800012c4:	06013403          	ld	s0,96(sp)
    800012c8:	05813483          	ld	s1,88(sp)
    800012cc:	05013903          	ld	s2,80(sp)
    800012d0:	04013a03          	ld	s4,64(sp)
    800012d4:	03813a83          	ld	s5,56(sp)
    800012d8:	03013b03          	ld	s6,48(sp)
    800012dc:	02813b83          	ld	s7,40(sp)
    800012e0:	02013c03          	ld	s8,32(sp)
    800012e4:	01813c83          	ld	s9,24(sp)
    800012e8:	00098513          	mv	a0,s3
    800012ec:	04813983          	ld	s3,72(sp)
    800012f0:	07010113          	add	sp,sp,112
    800012f4:	00008067          	ret
    800012f8:	00040813          	mv	a6,s0
    800012fc:	06013403          	ld	s0,96(sp)
    80001300:	06813083          	ld	ra,104(sp)
    80001304:	04813983          	ld	s3,72(sp)
    80001308:	03813a83          	ld	s5,56(sp)
    8000130c:	02013c03          	ld	s8,32(sp)
    80001310:	01813c83          	ld	s9,24(sp)
    80001314:	000a0793          	mv	a5,s4
    80001318:	00090693          	mv	a3,s2
    8000131c:	04013a03          	ld	s4,64(sp)
    80001320:	05013903          	ld	s2,80(sp)
    80001324:	000b8613          	mv	a2,s7
    80001328:	00048593          	mv	a1,s1
    8000132c:	02813b83          	ld	s7,40(sp)
    80001330:	05813483          	ld	s1,88(sp)
    80001334:	000b0513          	mv	a0,s6
    80001338:	03013b03          	ld	s6,48(sp)
    8000133c:	07010113          	add	sp,sp,112
    80001340:	8b5ff06f          	j	80000bf4 <_ftoa>
    80001344:	f2068753          	fmv.d.x	fa4,a3
    80001348:	1af777d3          	fdiv.d	fa5,fa4,fa5
    8000134c:	e20786d3          	fmv.x.d	a3,fa5
    80001350:	e99ff06f          	j	800011e8 <_etoa+0x224>
    80001354:	e60708e3          	beqz	a4,800011c4 <_etoa+0x200>
    80001358:	e60606e3          	beqz	a2,800011c4 <_etoa+0x200>
    8000135c:	fff7071b          	addw	a4,a4,-1
    80001360:	e65ff06f          	j	800011c4 <_etoa+0x200>

Disassembly of section .text._vsnprintf:

0000000080001364 <_vsnprintf>:
    80001364:	f6010113          	add	sp,sp,-160
    80001368:	08913423          	sd	s1,136(sp)
    8000136c:	09213023          	sd	s2,128(sp)
    80001370:	07313c23          	sd	s3,120(sp)
    80001374:	07413823          	sd	s4,112(sp)
    80001378:	07613023          	sd	s6,96(sp)
    8000137c:	08113c23          	sd	ra,152(sp)
    80001380:	08813823          	sd	s0,144(sp)
    80001384:	07513423          	sd	s5,104(sp)
    80001388:	05713c23          	sd	s7,88(sp)
    8000138c:	05813823          	sd	s8,80(sp)
    80001390:	05913423          	sd	s9,72(sp)
    80001394:	05a13023          	sd	s10,64(sp)
    80001398:	03b13c23          	sd	s11,56(sp)
    8000139c:	00058913          	mv	s2,a1
    800013a0:	00060493          	mv	s1,a2
    800013a4:	00068b13          	mv	s6,a3
    800013a8:	00070a13          	mv	s4,a4
    800013ac:	fffff997          	auipc	s3,0xfffff
    800013b0:	39098993          	add	s3,s3,912 # 8000073c <_out_null>
    800013b4:	00058463          	beqz	a1,800013bc <_vsnprintf+0x58>
    800013b8:	00050993          	mv	s3,a0
    800013bc:	000b4503          	lbu	a0,0(s6)
    800013c0:	00000c13          	li	s8,0
    800013c4:	68050063          	beqz	a0,80001a44 <_vsnprintf+0x6e0>
    800013c8:	000017b7          	lui	a5,0x1
    800013cc:	80078793          	add	a5,a5,-2048 # 800 <_start-0x7ffff800>
    800013d0:	00f13c23          	sd	a5,24(sp)
    800013d4:	000107b7          	lui	a5,0x10
    800013d8:	fff78793          	add	a5,a5,-1 # ffff <_start-0x7fff0001>
    800013dc:	00001b97          	auipc	s7,0x1
    800013e0:	a4cb8b93          	add	s7,s7,-1460 # 80001e28 <__am_mainargs+0x23>
    800013e4:	02f13023          	sd	a5,32(sp)
    800013e8:	0200006f          	j	80001408 <_vsnprintf+0xa4>
    800013ec:	000c0613          	mv	a2,s8
    800013f0:	00048693          	mv	a3,s1
    800013f4:	00090593          	mv	a1,s2
    800013f8:	001c0c13          	add	s8,s8,1
    800013fc:	000980e7          	jalr	s3
    80001400:	000b4503          	lbu	a0,0(s6)
    80001404:	1a050663          	beqz	a0,800015b0 <_vsnprintf+0x24c>
    80001408:	02500793          	li	a5,37
    8000140c:	001b0b13          	add	s6,s6,1
    80001410:	fcf51ee3          	bne	a0,a5,800013ec <_vsnprintf+0x88>
    80001414:	00000813          	li	a6,0
    80001418:	01000613          	li	a2,16
    8000141c:	000b4503          	lbu	a0,0(s6)
    80001420:	001b0713          	add	a4,s6,1
    80001424:	00070693          	mv	a3,a4
    80001428:	fe05079b          	addw	a5,a0,-32
    8000142c:	0ff7f793          	zext.b	a5,a5
    80001430:	00f66c63          	bltu	a2,a5,80001448 <_vsnprintf+0xe4>
    80001434:	00279793          	sll	a5,a5,0x2
    80001438:	017787b3          	add	a5,a5,s7
    8000143c:	0007a783          	lw	a5,0(a5)
    80001440:	017787b3          	add	a5,a5,s7
    80001444:	00078067          	jr	a5
    80001448:	fd05079b          	addw	a5,a0,-48
    8000144c:	0ff7f793          	zext.b	a5,a5
    80001450:	00900613          	li	a2,9
    80001454:	0cf67e63          	bgeu	a2,a5,80001530 <_vsnprintf+0x1cc>
    80001458:	02a00793          	li	a5,42
    8000145c:	1af50a63          	beq	a0,a5,80001610 <_vsnprintf+0x2ac>
    80001460:	000b0693          	mv	a3,s6
    80001464:	00000a93          	li	s5,0
    80001468:	00070b13          	mv	s6,a4
    8000146c:	02e00713          	li	a4,46
    80001470:	00000893          	li	a7,0
    80001474:	10e50663          	beq	a0,a4,80001580 <_vsnprintf+0x21c>
    80001478:	f985071b          	addw	a4,a0,-104
    8000147c:	0ff77713          	zext.b	a4,a4
    80001480:	01200613          	li	a2,18
    80001484:	08e66063          	bltu	a2,a4,80001504 <_vsnprintf+0x1a0>
    80001488:	00001797          	auipc	a5,0x1
    8000148c:	9e478793          	add	a5,a5,-1564 # 80001e6c <__am_mainargs+0x67>
    80001490:	00271713          	sll	a4,a4,0x2
    80001494:	00f70733          	add	a4,a4,a5
    80001498:	00072703          	lw	a4,0(a4)
    8000149c:	00f70733          	add	a4,a4,a5
    800014a0:	00070067          	jr	a4
    800014a4:	00186813          	or	a6,a6,1
    800014a8:	0008081b          	sext.w	a6,a6
    800014ac:	00070b13          	mv	s6,a4
    800014b0:	f6dff06f          	j	8000141c <_vsnprintf+0xb8>
    800014b4:	00286813          	or	a6,a6,2
    800014b8:	0008081b          	sext.w	a6,a6
    800014bc:	00070b13          	mv	s6,a4
    800014c0:	f5dff06f          	j	8000141c <_vsnprintf+0xb8>
    800014c4:	00486813          	or	a6,a6,4
    800014c8:	0008081b          	sext.w	a6,a6
    800014cc:	00070b13          	mv	s6,a4
    800014d0:	f4dff06f          	j	8000141c <_vsnprintf+0xb8>
    800014d4:	01086813          	or	a6,a6,16
    800014d8:	0008081b          	sext.w	a6,a6
    800014dc:	00070b13          	mv	s6,a4
    800014e0:	f3dff06f          	j	8000141c <_vsnprintf+0xb8>
    800014e4:	00886813          	or	a6,a6,8
    800014e8:	0008081b          	sext.w	a6,a6
    800014ec:	00070b13          	mv	s6,a4
    800014f0:	f2dff06f          	j	8000141c <_vsnprintf+0xb8>
    800014f4:	0016c503          	lbu	a0,1(a3)
    800014f8:	10086813          	or	a6,a6,256
    800014fc:	0008081b          	sext.w	a6,a6
    80001500:	001b0b13          	add	s6,s6,1
    80001504:	fdb5071b          	addw	a4,a0,-37
    80001508:	0ff77713          	zext.b	a4,a4
    8000150c:	05300693          	li	a3,83
    80001510:	ece6eee3          	bltu	a3,a4,800013ec <_vsnprintf+0x88>
    80001514:	00001797          	auipc	a5,0x1
    80001518:	9a478793          	add	a5,a5,-1628 # 80001eb8 <__am_mainargs+0xb3>
    8000151c:	00271713          	sll	a4,a4,0x2
    80001520:	00f70733          	add	a4,a4,a5
    80001524:	00072703          	lw	a4,0(a4)
    80001528:	00f70733          	add	a4,a4,a5
    8000152c:	00070067          	jr	a4
    80001530:	00000a93          	li	s5,0
    80001534:	00900613          	li	a2,9
    80001538:	0080006f          	j	80001540 <_vsnprintf+0x1dc>
    8000153c:	00170713          	add	a4,a4,1
    80001540:	002a969b          	sllw	a3,s5,0x2
    80001544:	015687bb          	addw	a5,a3,s5
    80001548:	0017979b          	sllw	a5,a5,0x1
    8000154c:	00a787bb          	addw	a5,a5,a0
    80001550:	00074503          	lbu	a0,0(a4)
    80001554:	000b0593          	mv	a1,s6
    80001558:	fd078a9b          	addw	s5,a5,-48
    8000155c:	fd05069b          	addw	a3,a0,-48
    80001560:	0ff6f693          	zext.b	a3,a3
    80001564:	00070b13          	mv	s6,a4
    80001568:	fcd67ae3          	bgeu	a2,a3,8000153c <_vsnprintf+0x1d8>
    8000156c:	00070693          	mv	a3,a4
    80001570:	02e00713          	li	a4,46
    80001574:	00258b13          	add	s6,a1,2
    80001578:	00000893          	li	a7,0
    8000157c:	eee51ee3          	bne	a0,a4,80001478 <_vsnprintf+0x114>
    80001580:	0016c503          	lbu	a0,1(a3)
    80001584:	40086813          	or	a6,a6,1024
    80001588:	00900613          	li	a2,9
    8000158c:	fd05071b          	addw	a4,a0,-48
    80001590:	0ff77713          	zext.b	a4,a4
    80001594:	0008081b          	sext.w	a6,a6
    80001598:	34e67263          	bgeu	a2,a4,800018dc <_vsnprintf+0x578>
    8000159c:	02a00713          	li	a4,42
    800015a0:	36e50c63          	beq	a0,a4,80001918 <_vsnprintf+0x5b4>
    800015a4:	000b0693          	mv	a3,s6
    800015a8:	001b0b13          	add	s6,s6,1
    800015ac:	ecdff06f          	j	80001478 <_vsnprintf+0x114>
    800015b0:	000c041b          	sext.w	s0,s8
    800015b4:	009c6463          	bltu	s8,s1,800015bc <_vsnprintf+0x258>
    800015b8:	fff48c13          	add	s8,s1,-1
    800015bc:	00048693          	mv	a3,s1
    800015c0:	000c0613          	mv	a2,s8
    800015c4:	00090593          	mv	a1,s2
    800015c8:	00000513          	li	a0,0
    800015cc:	000980e7          	jalr	s3
    800015d0:	09813083          	ld	ra,152(sp)
    800015d4:	00040513          	mv	a0,s0
    800015d8:	09013403          	ld	s0,144(sp)
    800015dc:	08813483          	ld	s1,136(sp)
    800015e0:	08013903          	ld	s2,128(sp)
    800015e4:	07813983          	ld	s3,120(sp)
    800015e8:	07013a03          	ld	s4,112(sp)
    800015ec:	06813a83          	ld	s5,104(sp)
    800015f0:	06013b03          	ld	s6,96(sp)
    800015f4:	05813b83          	ld	s7,88(sp)
    800015f8:	05013c03          	ld	s8,80(sp)
    800015fc:	04813c83          	ld	s9,72(sp)
    80001600:	04013d03          	ld	s10,64(sp)
    80001604:	03813d83          	ld	s11,56(sp)
    80001608:	0a010113          	add	sp,sp,160
    8000160c:	00008067          	ret
    80001610:	000a2603          	lw	a2,0(s4)
    80001614:	008a0a13          	add	s4,s4,8
    80001618:	00060a9b          	sext.w	s5,a2
    8000161c:	00064863          	bltz	a2,8000162c <_vsnprintf+0x2c8>
    80001620:	001b4503          	lbu	a0,1(s6)
    80001624:	002b0b13          	add	s6,s6,2
    80001628:	e45ff06f          	j	8000146c <_vsnprintf+0x108>
    8000162c:	00286813          	or	a6,a6,2
    80001630:	001b4503          	lbu	a0,1(s6)
    80001634:	0008081b          	sext.w	a6,a6
    80001638:	40c00abb          	negw	s5,a2
    8000163c:	002b0b13          	add	s6,s6,2
    80001640:	e2dff06f          	j	8000146c <_vsnprintf+0x108>
    80001644:	07800713          	li	a4,120
    80001648:	008a0c93          	add	s9,s4,8
    8000164c:	58e50663          	beq	a0,a4,80001bd8 <_vsnprintf+0x874>
    80001650:	05800713          	li	a4,88
    80001654:	3ee50e63          	beq	a0,a4,80001a50 <_vsnprintf+0x6ec>
    80001658:	06f00713          	li	a4,111
    8000165c:	5ee50063          	beq	a0,a4,80001c3c <_vsnprintf+0x8d8>
    80001660:	06200713          	li	a4,98
    80001664:	62e50263          	beq	a0,a4,80001c88 <_vsnprintf+0x924>
    80001668:	fef87693          	and	a3,a6,-17
    8000166c:	06900613          	li	a2,105
    80001670:	00080713          	mv	a4,a6
    80001674:	0006869b          	sext.w	a3,a3
    80001678:	40087813          	and	a6,a6,1024
    8000167c:	66c51063          	bne	a0,a2,80001cdc <_vsnprintf+0x978>
    80001680:	56081863          	bnez	a6,80001bf0 <_vsnprintf+0x88c>
    80001684:	20077413          	and	s0,a4,512
    80001688:	00a00593          	li	a1,10
    8000168c:	50041663          	bnez	s0,80001b98 <_vsnprintf+0x834>
    80001690:	1006f713          	and	a4,a3,256
    80001694:	00068613          	mv	a2,a3
    80001698:	5c071463          	bnez	a4,80001c60 <_vsnprintf+0x8fc>
    8000169c:	0406f713          	and	a4,a3,64
    800016a0:	000a2503          	lw	a0,0(s4)
    800016a4:	54071e63          	bnez	a4,80001c00 <_vsnprintf+0x89c>
    800016a8:	08067613          	and	a2,a2,128
    800016ac:	60060063          	beqz	a2,80001cac <_vsnprintf+0x948>
    800016b0:	0105151b          	sllw	a0,a0,0x10
    800016b4:	4105551b          	sraw	a0,a0,0x10
    800016b8:	40f5561b          	sraw	a2,a0,0xf
    800016bc:	00c54733          	xor	a4,a0,a2
    800016c0:	40c7073b          	subw	a4,a4,a2
    800016c4:	03071713          	sll	a4,a4,0x30
    800016c8:	03075713          	srl	a4,a4,0x30
    800016cc:	000c0613          	mv	a2,s8
    800016d0:	00d13423          	sd	a3,8(sp)
    800016d4:	01513023          	sd	s5,0(sp)
    800016d8:	00058813          	mv	a6,a1
    800016dc:	01f5579b          	srlw	a5,a0,0x1f
    800016e0:	00048693          	mv	a3,s1
    800016e4:	00090593          	mv	a1,s2
    800016e8:	00098513          	mv	a0,s3
    800016ec:	990ff0ef          	jal	8000087c <_ntoa_long>
    800016f0:	00050c13          	mv	s8,a0
    800016f4:	000c8a13          	mv	s4,s9
    800016f8:	d09ff06f          	j	80001400 <_vsnprintf+0x9c>
    800016fc:	0016c503          	lbu	a0,1(a3)
    80001700:	06c00713          	li	a4,108
    80001704:	dee51ae3          	bne	a0,a4,800014f8 <_vsnprintf+0x194>
    80001708:	30086813          	or	a6,a6,768
    8000170c:	0026c503          	lbu	a0,2(a3)
    80001710:	0008081b          	sext.w	a6,a6
    80001714:	00368b13          	add	s6,a3,3
    80001718:	dedff06f          	j	80001504 <_vsnprintf+0x1a0>
    8000171c:	0016c503          	lbu	a0,1(a3)
    80001720:	06800713          	li	a4,104
    80001724:	30e50663          	beq	a0,a4,80001a30 <_vsnprintf+0x6cc>
    80001728:	08086813          	or	a6,a6,128
    8000172c:	0008081b          	sext.w	a6,a6
    80001730:	001b0b13          	add	s6,s6,1
    80001734:	dd1ff06f          	j	80001504 <_vsnprintf+0x1a0>
    80001738:	04600713          	li	a4,70
    8000173c:	24e50863          	beq	a0,a4,8000198c <_vsnprintf+0x628>
    80001740:	000a3507          	fld	fa0,0(s4)
    80001744:	000c0613          	mv	a2,s8
    80001748:	000a8793          	mv	a5,s5
    8000174c:	00088713          	mv	a4,a7
    80001750:	00048693          	mv	a3,s1
    80001754:	00090593          	mv	a1,s2
    80001758:	00098513          	mv	a0,s3
    8000175c:	c98ff0ef          	jal	80000bf4 <_ftoa>
    80001760:	008a0a13          	add	s4,s4,8
    80001764:	00050c13          	mv	s8,a0
    80001768:	c99ff06f          	j	80001400 <_vsnprintf+0x9c>
    8000176c:	001c0d93          	add	s11,s8,1
    80001770:	00287813          	and	a6,a6,2
    80001774:	008a0c93          	add	s9,s4,8
    80001778:	000d8d13          	mv	s10,s11
    8000177c:	3c080063          	beqz	a6,80001b3c <_vsnprintf+0x7d8>
    80001780:	000a4503          	lbu	a0,0(s4)
    80001784:	00048693          	mv	a3,s1
    80001788:	000c0613          	mv	a2,s8
    8000178c:	00090593          	mv	a1,s2
    80001790:	000980e7          	jalr	s3
    80001794:	00100713          	li	a4,1
    80001798:	47577e63          	bgeu	a4,s5,80001c14 <_vsnprintf+0x8b0>
    8000179c:	ffea879b          	addw	a5,s5,-2
    800017a0:	02079793          	sll	a5,a5,0x20
    800017a4:	002c0513          	add	a0,s8,2
    800017a8:	0207d793          	srl	a5,a5,0x20
    800017ac:	00f50c33          	add	s8,a0,a5
    800017b0:	000d0613          	mv	a2,s10
    800017b4:	00048693          	mv	a3,s1
    800017b8:	001d0d13          	add	s10,s10,1
    800017bc:	00090593          	mv	a1,s2
    800017c0:	02000513          	li	a0,32
    800017c4:	000980e7          	jalr	s3
    800017c8:	ff8d14e3          	bne	s10,s8,800017b0 <_vsnprintf+0x44c>
    800017cc:	000c8a13          	mv	s4,s9
    800017d0:	c31ff06f          	j	80001400 <_vsnprintf+0x9c>
    800017d4:	000c0613          	mv	a2,s8
    800017d8:	00048693          	mv	a3,s1
    800017dc:	00090593          	mv	a1,s2
    800017e0:	02500513          	li	a0,37
    800017e4:	001c0c13          	add	s8,s8,1
    800017e8:	000980e7          	jalr	s3
    800017ec:	c15ff06f          	j	80001400 <_vsnprintf+0x9c>
    800017f0:	000a3d03          	ld	s10,0(s4)
    800017f4:	008a0793          	add	a5,s4,8
    800017f8:	02f13423          	sd	a5,40(sp)
    800017fc:	000d4503          	lbu	a0,0(s10)
    80001800:	12088e63          	beqz	a7,8000193c <_vsnprintf+0x5d8>
    80001804:	02089693          	sll	a3,a7,0x20
    80001808:	0206d693          	srl	a3,a3,0x20
    8000180c:	12050c63          	beqz	a0,80001944 <_vsnprintf+0x5e0>
    80001810:	fff68693          	add	a3,a3,-1
    80001814:	00168693          	add	a3,a3,1
    80001818:	00dd06b3          	add	a3,s10,a3
    8000181c:	000d0d93          	mv	s11,s10
    80001820:	0080006f          	j	80001828 <_vsnprintf+0x4c4>
    80001824:	00dd8863          	beq	s11,a3,80001834 <_vsnprintf+0x4d0>
    80001828:	001dc703          	lbu	a4,1(s11)
    8000182c:	001d8d93          	add	s11,s11,1
    80001830:	fe071ae3          	bnez	a4,80001824 <_vsnprintf+0x4c0>
    80001834:	41ad8dbb          	subw	s11,s11,s10
    80001838:	40087c93          	and	s9,a6,1024
    8000183c:	000c8a63          	beqz	s9,80001850 <_vsnprintf+0x4ec>
    80001840:	00088713          	mv	a4,a7
    80001844:	011df463          	bgeu	s11,a7,8000184c <_vsnprintf+0x4e8>
    80001848:	000d8713          	mv	a4,s11
    8000184c:	00070d9b          	sext.w	s11,a4
    80001850:	00287413          	and	s0,a6,2
    80001854:	28040463          	beqz	s0,80001adc <_vsnprintf+0x778>
    80001858:	16050863          	beqz	a0,800019c8 <_vsnprintf+0x664>
    8000185c:	120c8e63          	beqz	s9,80001998 <_vsnprintf+0x634>
    80001860:	02089893          	sll	a7,a7,0x20
    80001864:	0208d893          	srl	a7,a7,0x20
    80001868:	01888cb3          	add	s9,a7,s8
    8000186c:	000c0613          	mv	a2,s8
    80001870:	14cc8863          	beq	s9,a2,800019c0 <_vsnprintf+0x65c>
    80001874:	00048693          	mv	a3,s1
    80001878:	00090593          	mv	a1,s2
    8000187c:	00160a13          	add	s4,a2,1
    80001880:	000980e7          	jalr	s3
    80001884:	418a0733          	sub	a4,s4,s8
    80001888:	00ed0733          	add	a4,s10,a4
    8000188c:	00074503          	lbu	a0,0(a4)
    80001890:	24050063          	beqz	a0,80001ad0 <_vsnprintf+0x76c>
    80001894:	000a0613          	mv	a2,s4
    80001898:	fd9ff06f          	j	80001870 <_vsnprintf+0x50c>
    8000189c:	02186793          	or	a5,a6,33
    800018a0:	000a3703          	ld	a4,0(s4)
    800018a4:	0007879b          	sext.w	a5,a5
    800018a8:	00f13423          	sd	a5,8(sp)
    800018ac:	01000793          	li	a5,16
    800018b0:	000c0613          	mv	a2,s8
    800018b4:	00f13023          	sd	a5,0(sp)
    800018b8:	01000813          	li	a6,16
    800018bc:	00000793          	li	a5,0
    800018c0:	00048693          	mv	a3,s1
    800018c4:	00090593          	mv	a1,s2
    800018c8:	00098513          	mv	a0,s3
    800018cc:	fb1fe0ef          	jal	8000087c <_ntoa_long>
    800018d0:	008a0a13          	add	s4,s4,8
    800018d4:	00050c13          	mv	s8,a0
    800018d8:	b29ff06f          	j	80001400 <_vsnprintf+0x9c>
    800018dc:	00900693          	li	a3,9
    800018e0:	0028971b          	sllw	a4,a7,0x2
    800018e4:	011708bb          	addw	a7,a4,a7
    800018e8:	000b0613          	mv	a2,s6
    800018ec:	0018989b          	sllw	a7,a7,0x1
    800018f0:	001b0b13          	add	s6,s6,1
    800018f4:	00a888bb          	addw	a7,a7,a0
    800018f8:	000b4503          	lbu	a0,0(s6)
    800018fc:	fd08889b          	addw	a7,a7,-48
    80001900:	fd05071b          	addw	a4,a0,-48
    80001904:	0ff77713          	zext.b	a4,a4
    80001908:	fce6fce3          	bgeu	a3,a4,800018e0 <_vsnprintf+0x57c>
    8000190c:	000b0693          	mv	a3,s6
    80001910:	00260b13          	add	s6,a2,2
    80001914:	b65ff06f          	j	80001478 <_vsnprintf+0x114>
    80001918:	000a2883          	lw	a7,0(s4)
    8000191c:	0026c503          	lbu	a0,2(a3)
    80001920:	00368b13          	add	s6,a3,3
    80001924:	fff8c713          	not	a4,a7
    80001928:	43f75713          	sra	a4,a4,0x3f
    8000192c:	00e8f8b3          	and	a7,a7,a4
    80001930:	008a0a13          	add	s4,s4,8
    80001934:	00268693          	add	a3,a3,2
    80001938:	b41ff06f          	j	80001478 <_vsnprintf+0x114>
    8000193c:	ffe00693          	li	a3,-2
    80001940:	ec051ae3          	bnez	a0,80001814 <_vsnprintf+0x4b0>
    80001944:	00000d93          	li	s11,0
    80001948:	ef1ff06f          	j	80001838 <_vsnprintf+0x4d4>
    8000194c:	0df57713          	and	a4,a0,223
    80001950:	04700693          	li	a3,71
    80001954:	0ad70c63          	beq	a4,a3,80001a0c <_vsnprintf+0x6a8>
    80001958:	04500713          	li	a4,69
    8000195c:	0ce50463          	beq	a0,a4,80001a24 <_vsnprintf+0x6c0>
    80001960:	000a3507          	fld	fa0,0(s4)
    80001964:	000c0613          	mv	a2,s8
    80001968:	000a8793          	mv	a5,s5
    8000196c:	00088713          	mv	a4,a7
    80001970:	00048693          	mv	a3,s1
    80001974:	00090593          	mv	a1,s2
    80001978:	00098513          	mv	a0,s3
    8000197c:	e48ff0ef          	jal	80000fc4 <_etoa>
    80001980:	008a0a13          	add	s4,s4,8
    80001984:	00050c13          	mv	s8,a0
    80001988:	a79ff06f          	j	80001400 <_vsnprintf+0x9c>
    8000198c:	02086813          	or	a6,a6,32
    80001990:	0008081b          	sext.w	a6,a6
    80001994:	dadff06f          	j	80001740 <_vsnprintf+0x3dc>
    80001998:	000c0c93          	mv	s9,s8
    8000199c:	000c8613          	mv	a2,s9
    800019a0:	00048693          	mv	a3,s1
    800019a4:	00090593          	mv	a1,s2
    800019a8:	000980e7          	jalr	s3
    800019ac:	001c8c93          	add	s9,s9,1
    800019b0:	418c8733          	sub	a4,s9,s8
    800019b4:	00ed0733          	add	a4,s10,a4
    800019b8:	00074503          	lbu	a0,0(a4)
    800019bc:	fe0510e3          	bnez	a0,8000199c <_vsnprintf+0x638>
    800019c0:	000c8c13          	mv	s8,s9
    800019c4:	04040063          	beqz	s0,80001a04 <_vsnprintf+0x6a0>
    800019c8:	000c0413          	mv	s0,s8
    800019cc:	035dfc63          	bgeu	s11,s5,80001a04 <_vsnprintf+0x6a0>
    800019d0:	fffa879b          	addw	a5,s5,-1
    800019d4:	41b787bb          	subw	a5,a5,s11
    800019d8:	02079793          	sll	a5,a5,0x20
    800019dc:	0207d793          	srl	a5,a5,0x20
    800019e0:	001c0513          	add	a0,s8,1
    800019e4:	00a78c33          	add	s8,a5,a0
    800019e8:	00040613          	mv	a2,s0
    800019ec:	00048693          	mv	a3,s1
    800019f0:	00140413          	add	s0,s0,1
    800019f4:	00090593          	mv	a1,s2
    800019f8:	02000513          	li	a0,32
    800019fc:	000980e7          	jalr	s3
    80001a00:	ff8414e3          	bne	s0,s8,800019e8 <_vsnprintf+0x684>
    80001a04:	02813a03          	ld	s4,40(sp)
    80001a08:	9f9ff06f          	j	80001400 <_vsnprintf+0x9c>
    80001a0c:	01813783          	ld	a5,24(sp)
    80001a10:	0fd57513          	and	a0,a0,253
    80001a14:	04500713          	li	a4,69
    80001a18:	00f86833          	or	a6,a6,a5
    80001a1c:	0008081b          	sext.w	a6,a6
    80001a20:	f4e510e3          	bne	a0,a4,80001960 <_vsnprintf+0x5fc>
    80001a24:	02086813          	or	a6,a6,32
    80001a28:	0008081b          	sext.w	a6,a6
    80001a2c:	f35ff06f          	j	80001960 <_vsnprintf+0x5fc>
    80001a30:	0c086813          	or	a6,a6,192
    80001a34:	0026c503          	lbu	a0,2(a3)
    80001a38:	0008081b          	sext.w	a6,a6
    80001a3c:	00368b13          	add	s6,a3,3
    80001a40:	ac5ff06f          	j	80001504 <_vsnprintf+0x1a0>
    80001a44:	00000413          	li	s0,0
    80001a48:	b69c6ae3          	bltu	s8,s1,800015bc <_vsnprintf+0x258>
    80001a4c:	b6dff06f          	j	800015b8 <_vsnprintf+0x254>
    80001a50:	ff387693          	and	a3,a6,-13
    80001a54:	0006869b          	sext.w	a3,a3
    80001a58:	40087713          	and	a4,a6,1024
    80001a5c:	0206e693          	or	a3,a3,32
    80001a60:	01000593          	li	a1,16
    80001a64:	18070a63          	beqz	a4,80001bf8 <_vsnprintf+0x894>
    80001a68:	ffe6f693          	and	a3,a3,-2
    80001a6c:	0006869b          	sext.w	a3,a3
    80001a70:	06900713          	li	a4,105
    80001a74:	2006f413          	and	s0,a3,512
    80001a78:	c0e50ae3          	beq	a0,a4,8000168c <_vsnprintf+0x328>
    80001a7c:	06400713          	li	a4,100
    80001a80:	c0e506e3          	beq	a0,a4,8000168c <_vsnprintf+0x328>
    80001a84:	18041e63          	bnez	s0,80001c20 <_vsnprintf+0x8bc>
    80001a88:	1006f713          	and	a4,a3,256
    80001a8c:	00068613          	mv	a2,a3
    80001a90:	20071063          	bnez	a4,80001c90 <_vsnprintf+0x92c>
    80001a94:	0406f713          	and	a4,a3,64
    80001a98:	16071a63          	bnez	a4,80001c0c <_vsnprintf+0x8a8>
    80001a9c:	08067613          	and	a2,a2,128
    80001aa0:	000a2703          	lw	a4,0(s4)
    80001aa4:	00060663          	beqz	a2,80001ab0 <_vsnprintf+0x74c>
    80001aa8:	02013783          	ld	a5,32(sp)
    80001aac:	00e7f733          	and	a4,a5,a4
    80001ab0:	02071713          	sll	a4,a4,0x20
    80001ab4:	000c0613          	mv	a2,s8
    80001ab8:	00d13423          	sd	a3,8(sp)
    80001abc:	01513023          	sd	s5,0(sp)
    80001ac0:	00058813          	mv	a6,a1
    80001ac4:	00000793          	li	a5,0
    80001ac8:	02075713          	srl	a4,a4,0x20
    80001acc:	c15ff06f          	j	800016e0 <_vsnprintf+0x37c>
    80001ad0:	000a0c13          	mv	s8,s4
    80001ad4:	f20408e3          	beqz	s0,80001a04 <_vsnprintf+0x6a0>
    80001ad8:	ef1ff06f          	j	800019c8 <_vsnprintf+0x664>
    80001adc:	001d871b          	addw	a4,s11,1
    80001ae0:	1d5dfe63          	bgeu	s11,s5,80001cbc <_vsnprintf+0x958>
    80001ae4:	fffa871b          	addw	a4,s5,-1
    80001ae8:	41b70dbb          	subw	s11,a4,s11
    80001aec:	020d9793          	sll	a5,s11,0x20
    80001af0:	0207d793          	srl	a5,a5,0x20
    80001af4:	001c0d93          	add	s11,s8,1
    80001af8:	01b78a33          	add	s4,a5,s11
    80001afc:	0080006f          	j	80001b04 <_vsnprintf+0x7a0>
    80001b00:	001d8d93          	add	s11,s11,1
    80001b04:	01113823          	sd	a7,16(sp)
    80001b08:	000c0613          	mv	a2,s8
    80001b0c:	00048693          	mv	a3,s1
    80001b10:	00090593          	mv	a1,s2
    80001b14:	02000513          	li	a0,32
    80001b18:	000980e7          	jalr	s3
    80001b1c:	01013883          	ld	a7,16(sp)
    80001b20:	000d8c13          	mv	s8,s11
    80001b24:	fd4d9ee3          	bne	s11,s4,80001b00 <_vsnprintf+0x79c>
    80001b28:	000d4503          	lbu	a0,0(s10)
    80001b2c:	001a8d9b          	addw	s11,s5,1
    80001b30:	d20516e3          	bnez	a0,8000185c <_vsnprintf+0x4f8>
    80001b34:	02813a03          	ld	s4,40(sp)
    80001b38:	8c9ff06f          	j	80001400 <_vsnprintf+0x9c>
    80001b3c:	00100693          	li	a3,1
    80001b40:	1956f463          	bgeu	a3,s5,80001cc8 <_vsnprintf+0x964>
    80001b44:	ffea879b          	addw	a5,s5,-2
    80001b48:	02079413          	sll	s0,a5,0x20
    80001b4c:	02045413          	srl	s0,s0,0x20
    80001b50:	01b40433          	add	s0,s0,s11
    80001b54:	0080006f          	j	80001b5c <_vsnprintf+0x7f8>
    80001b58:	001d8d93          	add	s11,s11,1
    80001b5c:	000c0613          	mv	a2,s8
    80001b60:	00048693          	mv	a3,s1
    80001b64:	00090593          	mv	a1,s2
    80001b68:	02000513          	li	a0,32
    80001b6c:	000d8c13          	mv	s8,s11
    80001b70:	000980e7          	jalr	s3
    80001b74:	fe8d92e3          	bne	s11,s0,80001b58 <_vsnprintf+0x7f4>
    80001b78:	001d8c13          	add	s8,s11,1
    80001b7c:	000a4503          	lbu	a0,0(s4)
    80001b80:	00048693          	mv	a3,s1
    80001b84:	00040613          	mv	a2,s0
    80001b88:	00090593          	mv	a1,s2
    80001b8c:	000980e7          	jalr	s3
    80001b90:	000c8a13          	mv	s4,s9
    80001b94:	86dff06f          	j	80001400 <_vsnprintf+0x9c>
    80001b98:	000a3783          	ld	a5,0(s4)
    80001b9c:	00d13423          	sd	a3,8(sp)
    80001ba0:	000c0613          	mv	a2,s8
    80001ba4:	43f7d713          	sra	a4,a5,0x3f
    80001ba8:	00f746b3          	xor	a3,a4,a5
    80001bac:	01513023          	sd	s5,0(sp)
    80001bb0:	00058813          	mv	a6,a1
    80001bb4:	03f7d793          	srl	a5,a5,0x3f
    80001bb8:	40e68733          	sub	a4,a3,a4
    80001bbc:	00048693          	mv	a3,s1
    80001bc0:	00090593          	mv	a1,s2
    80001bc4:	00098513          	mv	a0,s3
    80001bc8:	cb5fe0ef          	jal	8000087c <_ntoa_long>
    80001bcc:	00050c13          	mv	s8,a0
    80001bd0:	000c8a13          	mv	s4,s9
    80001bd4:	82dff06f          	j	80001400 <_vsnprintf+0x9c>
    80001bd8:	40087713          	and	a4,a6,1024
    80001bdc:	01000593          	li	a1,16
    80001be0:	ff387693          	and	a3,a6,-13
    80001be4:	0006869b          	sext.w	a3,a3
    80001be8:	e80704e3          	beqz	a4,80001a70 <_vsnprintf+0x70c>
    80001bec:	e7dff06f          	j	80001a68 <_vsnprintf+0x704>
    80001bf0:	00a00593          	li	a1,10
    80001bf4:	e75ff06f          	j	80001a68 <_vsnprintf+0x704>
    80001bf8:	20087413          	and	s0,a6,512
    80001bfc:	e89ff06f          	j	80001a84 <_vsnprintf+0x720>
    80001c00:	0ff57513          	zext.b	a0,a0
    80001c04:	00050713          	mv	a4,a0
    80001c08:	ac5ff06f          	j	800016cc <_vsnprintf+0x368>
    80001c0c:	000a4703          	lbu	a4,0(s4)
    80001c10:	ea1ff06f          	j	80001ab0 <_vsnprintf+0x74c>
    80001c14:	000d8c13          	mv	s8,s11
    80001c18:	000c8a13          	mv	s4,s9
    80001c1c:	fe4ff06f          	j	80001400 <_vsnprintf+0x9c>
    80001c20:	000a3703          	ld	a4,0(s4)
    80001c24:	000c0613          	mv	a2,s8
    80001c28:	00d13423          	sd	a3,8(sp)
    80001c2c:	01513023          	sd	s5,0(sp)
    80001c30:	00058813          	mv	a6,a1
    80001c34:	00000793          	li	a5,0
    80001c38:	f85ff06f          	j	80001bbc <_vsnprintf+0x858>
    80001c3c:	00800593          	li	a1,8
    80001c40:	00080693          	mv	a3,a6
    80001c44:	06400613          	li	a2,100
    80001c48:	00068413          	mv	s0,a3
    80001c4c:	4006f713          	and	a4,a3,1024
    80001c50:	08c51263          	bne	a0,a2,80001cd4 <_vsnprintf+0x970>
    80001c54:	20047413          	and	s0,s0,512
    80001c58:	a2070ae3          	beqz	a4,8000168c <_vsnprintf+0x328>
    80001c5c:	e0dff06f          	j	80001a68 <_vsnprintf+0x704>
    80001c60:	000a3783          	ld	a5,0(s4)
    80001c64:	00d13423          	sd	a3,8(sp)
    80001c68:	000c0613          	mv	a2,s8
    80001c6c:	43f7d713          	sra	a4,a5,0x3f
    80001c70:	00f746b3          	xor	a3,a4,a5
    80001c74:	01513023          	sd	s5,0(sp)
    80001c78:	00058813          	mv	a6,a1
    80001c7c:	03f7d793          	srl	a5,a5,0x3f
    80001c80:	40e68733          	sub	a4,a3,a4
    80001c84:	a5dff06f          	j	800016e0 <_vsnprintf+0x37c>
    80001c88:	00200593          	li	a1,2
    80001c8c:	fb5ff06f          	j	80001c40 <_vsnprintf+0x8dc>
    80001c90:	000a3703          	ld	a4,0(s4)
    80001c94:	000c0613          	mv	a2,s8
    80001c98:	00d13423          	sd	a3,8(sp)
    80001c9c:	01513023          	sd	s5,0(sp)
    80001ca0:	00058813          	mv	a6,a1
    80001ca4:	00000793          	li	a5,0
    80001ca8:	a39ff06f          	j	800016e0 <_vsnprintf+0x37c>
    80001cac:	41f5561b          	sraw	a2,a0,0x1f
    80001cb0:	00c54733          	xor	a4,a0,a2
    80001cb4:	40c7073b          	subw	a4,a4,a2
    80001cb8:	a15ff06f          	j	800016cc <_vsnprintf+0x368>
    80001cbc:	00070d93          	mv	s11,a4
    80001cc0:	b8051ee3          	bnez	a0,8000185c <_vsnprintf+0x4f8>
    80001cc4:	e71ff06f          	j	80001b34 <_vsnprintf+0x7d0>
    80001cc8:	000c0413          	mv	s0,s8
    80001ccc:	000d8c13          	mv	s8,s11
    80001cd0:	eadff06f          	j	80001b7c <_vsnprintf+0x818>
    80001cd4:	00068813          	mv	a6,a3
    80001cd8:	f09ff06f          	j	80001be0 <_vsnprintf+0x87c>
    80001cdc:	00a00593          	li	a1,10
    80001ce0:	f65ff06f          	j	80001c44 <_vsnprintf+0x8e0>

Disassembly of section .text.printf_:

0000000080001ce4 <printf_>:
    80001ce4:	fa010113          	add	sp,sp,-96
    80001ce8:	02810313          	add	t1,sp,40
    80001cec:	02b13423          	sd	a1,40(sp)
    80001cf0:	02c13823          	sd	a2,48(sp)
    80001cf4:	02d13c23          	sd	a3,56(sp)
    80001cf8:	04e13023          	sd	a4,64(sp)
    80001cfc:	00050693          	mv	a3,a0
    80001d00:	00010593          	mv	a1,sp
    80001d04:	00030713          	mv	a4,t1
    80001d08:	fff00613          	li	a2,-1
    80001d0c:	fffff517          	auipc	a0,0xfffff
    80001d10:	edc50513          	add	a0,a0,-292 # 80000be8 <_out_char>
    80001d14:	00113c23          	sd	ra,24(sp)
    80001d18:	04f13423          	sd	a5,72(sp)
    80001d1c:	05013823          	sd	a6,80(sp)
    80001d20:	05113c23          	sd	a7,88(sp)
    80001d24:	00613423          	sd	t1,8(sp)
    80001d28:	e3cff0ef          	jal	80001364 <_vsnprintf>
    80001d2c:	01813083          	ld	ra,24(sp)
    80001d30:	06010113          	add	sp,sp,96
    80001d34:	00008067          	ret
